
font_test.elf:     file format elf32-littlearm


Disassembly of section .text:

c0100000 <_start>:
c0100000:	e59fd028 	ldr	sp, [pc, #40]	; c0100030 <clean+0x14>
c0100004:	eb000001 	bl	c0100010 <clean_bss>
c0100008:	eb000166 	bl	c01005a8 <main>

c010000c <halt>:
c010000c:	eafffffe 	b	c010000c <halt>

c0100010 <clean_bss>:
c0100010:	e59f101c 	ldr	r1, [pc, #28]	; c0100034 <clean+0x18>
c0100014:	e59f201c 	ldr	r2, [pc, #28]	; c0100038 <clean+0x1c>
c0100018:	e3a03000 	mov	r3, #0

c010001c <clean>:
c010001c:	e5813000 	str	r3, [r1]
c0100020:	e2811004 	add	r1, r1, #4
c0100024:	e1510002 	cmp	r1, r2
c0100028:	1afffffb 	bne	c010001c <clean>
c010002c:	e1a0f00e 	mov	pc, lr
c0100030:	c0200000 	eorgt	r0, r0, r0
c0100034:	c0103200 	andsgt	r3, r0, r0, lsl #4
c0100038:	c01032d0 			; <UNDEFINED> instruction: 0xc01032d0

c010003c <lcd_test>:
c010003c:	e92d4800 	push	{fp, lr}
c0100040:	e28db004 	add	fp, sp, #4
c0100044:	e24dd028 	sub	sp, sp, #40	; 0x28
c0100048:	eb000545 	bl	c0101564 <lcd_enable>
c010004c:	e24b3024 	sub	r3, fp, #36	; 0x24
c0100050:	e24b2020 	sub	r2, fp, #32
c0100054:	e24b101c 	sub	r1, fp, #28
c0100058:	e24b0018 	sub	r0, fp, #24
c010005c:	eb00051d 	bl	c01014d8 <get_lcd_params>
c0100060:	e51b3024 	ldr	r3, [fp, #-36]	; 0xffffffdc
c0100064:	e3530010 	cmp	r3, #16
c0100068:	1a00006c 	bne	c0100220 <lcd_test+0x1e4>
c010006c:	e51b3018 	ldr	r3, [fp, #-24]	; 0xffffffe8
c0100070:	e50b3010 	str	r3, [fp, #-16]
c0100074:	e3a03000 	mov	r3, #0
c0100078:	e50b3008 	str	r3, [fp, #-8]
c010007c:	ea000011 	b	c01000c8 <lcd_test+0x8c>
c0100080:	e3a03000 	mov	r3, #0
c0100084:	e50b300c 	str	r3, [fp, #-12]
c0100088:	ea000007 	b	c01000ac <lcd_test+0x70>
c010008c:	e51b3010 	ldr	r3, [fp, #-16]
c0100090:	e2832002 	add	r2, r3, #2
c0100094:	e50b2010 	str	r2, [fp, #-16]
c0100098:	e3a02b3e 	mov	r2, #63488	; 0xf800
c010009c:	e1c320b0 	strh	r2, [r3]
c01000a0:	e51b300c 	ldr	r3, [fp, #-12]
c01000a4:	e2833001 	add	r3, r3, #1
c01000a8:	e50b300c 	str	r3, [fp, #-12]
c01000ac:	e51b3020 	ldr	r3, [fp, #-32]	; 0xffffffe0
c01000b0:	e51b200c 	ldr	r2, [fp, #-12]
c01000b4:	e1520003 	cmp	r2, r3
c01000b8:	bafffff3 	blt	c010008c <lcd_test+0x50>
c01000bc:	e51b3008 	ldr	r3, [fp, #-8]
c01000c0:	e2833001 	add	r3, r3, #1
c01000c4:	e50b3008 	str	r3, [fp, #-8]
c01000c8:	e51b301c 	ldr	r3, [fp, #-28]	; 0xffffffe4
c01000cc:	e51b2008 	ldr	r2, [fp, #-8]
c01000d0:	e1520003 	cmp	r2, r3
c01000d4:	baffffe9 	blt	c0100080 <lcd_test+0x44>
c01000d8:	e51b3018 	ldr	r3, [fp, #-24]	; 0xffffffe8
c01000dc:	e50b3010 	str	r3, [fp, #-16]
c01000e0:	e3a03000 	mov	r3, #0
c01000e4:	e50b3008 	str	r3, [fp, #-8]
c01000e8:	ea000011 	b	c0100134 <lcd_test+0xf8>
c01000ec:	e3a03000 	mov	r3, #0
c01000f0:	e50b300c 	str	r3, [fp, #-12]
c01000f4:	ea000007 	b	c0100118 <lcd_test+0xdc>
c01000f8:	e51b3010 	ldr	r3, [fp, #-16]
c01000fc:	e2832002 	add	r2, r3, #2
c0100100:	e50b2010 	str	r2, [fp, #-16]
c0100104:	e3a02e7e 	mov	r2, #2016	; 0x7e0
c0100108:	e1c320b0 	strh	r2, [r3]
c010010c:	e51b300c 	ldr	r3, [fp, #-12]
c0100110:	e2833001 	add	r3, r3, #1
c0100114:	e50b300c 	str	r3, [fp, #-12]
c0100118:	e51b3020 	ldr	r3, [fp, #-32]	; 0xffffffe0
c010011c:	e51b200c 	ldr	r2, [fp, #-12]
c0100120:	e1520003 	cmp	r2, r3
c0100124:	bafffff3 	blt	c01000f8 <lcd_test+0xbc>
c0100128:	e51b3008 	ldr	r3, [fp, #-8]
c010012c:	e2833001 	add	r3, r3, #1
c0100130:	e50b3008 	str	r3, [fp, #-8]
c0100134:	e51b301c 	ldr	r3, [fp, #-28]	; 0xffffffe4
c0100138:	e51b2008 	ldr	r2, [fp, #-8]
c010013c:	e1520003 	cmp	r2, r3
c0100140:	baffffe9 	blt	c01000ec <lcd_test+0xb0>
c0100144:	e51b3018 	ldr	r3, [fp, #-24]	; 0xffffffe8
c0100148:	e50b3010 	str	r3, [fp, #-16]
c010014c:	e3a03000 	mov	r3, #0
c0100150:	e50b3008 	str	r3, [fp, #-8]
c0100154:	ea000011 	b	c01001a0 <lcd_test+0x164>
c0100158:	e3a03000 	mov	r3, #0
c010015c:	e50b300c 	str	r3, [fp, #-12]
c0100160:	ea000007 	b	c0100184 <lcd_test+0x148>
c0100164:	e51b3010 	ldr	r3, [fp, #-16]
c0100168:	e2832002 	add	r2, r3, #2
c010016c:	e50b2010 	str	r2, [fp, #-16]
c0100170:	e3a0201f 	mov	r2, #31
c0100174:	e1c320b0 	strh	r2, [r3]
c0100178:	e51b300c 	ldr	r3, [fp, #-12]
c010017c:	e2833001 	add	r3, r3, #1
c0100180:	e50b300c 	str	r3, [fp, #-12]
c0100184:	e51b3020 	ldr	r3, [fp, #-32]	; 0xffffffe0
c0100188:	e51b200c 	ldr	r2, [fp, #-12]
c010018c:	e1520003 	cmp	r2, r3
c0100190:	bafffff3 	blt	c0100164 <lcd_test+0x128>
c0100194:	e51b3008 	ldr	r3, [fp, #-8]
c0100198:	e2833001 	add	r3, r3, #1
c010019c:	e50b3008 	str	r3, [fp, #-8]
c01001a0:	e51b301c 	ldr	r3, [fp, #-28]	; 0xffffffe4
c01001a4:	e51b2008 	ldr	r2, [fp, #-8]
c01001a8:	e1520003 	cmp	r2, r3
c01001ac:	baffffe9 	blt	c0100158 <lcd_test+0x11c>
c01001b0:	e51b3018 	ldr	r3, [fp, #-24]	; 0xffffffe8
c01001b4:	e50b3010 	str	r3, [fp, #-16]
c01001b8:	e3a03000 	mov	r3, #0
c01001bc:	e50b3008 	str	r3, [fp, #-8]
c01001c0:	ea000011 	b	c010020c <lcd_test+0x1d0>
c01001c4:	e3a03000 	mov	r3, #0
c01001c8:	e50b300c 	str	r3, [fp, #-12]
c01001cc:	ea000007 	b	c01001f0 <lcd_test+0x1b4>
c01001d0:	e51b3010 	ldr	r3, [fp, #-16]
c01001d4:	e2832002 	add	r2, r3, #2
c01001d8:	e50b2010 	str	r2, [fp, #-16]
c01001dc:	e3a02000 	mov	r2, #0
c01001e0:	e1c320b0 	strh	r2, [r3]
c01001e4:	e51b300c 	ldr	r3, [fp, #-12]
c01001e8:	e2833001 	add	r3, r3, #1
c01001ec:	e50b300c 	str	r3, [fp, #-12]
c01001f0:	e51b3020 	ldr	r3, [fp, #-32]	; 0xffffffe0
c01001f4:	e51b200c 	ldr	r2, [fp, #-12]
c01001f8:	e1520003 	cmp	r2, r3
c01001fc:	bafffff3 	blt	c01001d0 <lcd_test+0x194>
c0100200:	e51b3008 	ldr	r3, [fp, #-8]
c0100204:	e2833001 	add	r3, r3, #1
c0100208:	e50b3008 	str	r3, [fp, #-8]
c010020c:	e51b301c 	ldr	r3, [fp, #-28]	; 0xffffffe4
c0100210:	e51b2008 	ldr	r2, [fp, #-8]
c0100214:	e1520003 	cmp	r2, r3
c0100218:	baffffe9 	blt	c01001c4 <lcd_test+0x188>
c010021c:	ea00006e 	b	c01003dc <lcd_test+0x3a0>
c0100220:	e51b3024 	ldr	r3, [fp, #-36]	; 0xffffffdc
c0100224:	e3530020 	cmp	r3, #32
c0100228:	1a00006b 	bne	c01003dc <lcd_test+0x3a0>
c010022c:	e51b3018 	ldr	r3, [fp, #-24]	; 0xffffffe8
c0100230:	e50b3014 	str	r3, [fp, #-20]	; 0xffffffec
c0100234:	e3a03000 	mov	r3, #0
c0100238:	e50b3008 	str	r3, [fp, #-8]
c010023c:	ea000011 	b	c0100288 <lcd_test+0x24c>
c0100240:	e3a03000 	mov	r3, #0
c0100244:	e50b300c 	str	r3, [fp, #-12]
c0100248:	ea000007 	b	c010026c <lcd_test+0x230>
c010024c:	e51b3014 	ldr	r3, [fp, #-20]	; 0xffffffec
c0100250:	e2832004 	add	r2, r3, #4
c0100254:	e50b2014 	str	r2, [fp, #-20]	; 0xffffffec
c0100258:	e3a028ff 	mov	r2, #16711680	; 0xff0000
c010025c:	e5832000 	str	r2, [r3]
c0100260:	e51b300c 	ldr	r3, [fp, #-12]
c0100264:	e2833001 	add	r3, r3, #1
c0100268:	e50b300c 	str	r3, [fp, #-12]
c010026c:	e51b3020 	ldr	r3, [fp, #-32]	; 0xffffffe0
c0100270:	e51b200c 	ldr	r2, [fp, #-12]
c0100274:	e1520003 	cmp	r2, r3
c0100278:	bafffff3 	blt	c010024c <lcd_test+0x210>
c010027c:	e51b3008 	ldr	r3, [fp, #-8]
c0100280:	e2833001 	add	r3, r3, #1
c0100284:	e50b3008 	str	r3, [fp, #-8]
c0100288:	e51b301c 	ldr	r3, [fp, #-28]	; 0xffffffe4
c010028c:	e51b2008 	ldr	r2, [fp, #-8]
c0100290:	e1520003 	cmp	r2, r3
c0100294:	baffffe9 	blt	c0100240 <lcd_test+0x204>
c0100298:	e51b3018 	ldr	r3, [fp, #-24]	; 0xffffffe8
c010029c:	e50b3014 	str	r3, [fp, #-20]	; 0xffffffec
c01002a0:	e3a03000 	mov	r3, #0
c01002a4:	e50b3008 	str	r3, [fp, #-8]
c01002a8:	ea000011 	b	c01002f4 <lcd_test+0x2b8>
c01002ac:	e3a03000 	mov	r3, #0
c01002b0:	e50b300c 	str	r3, [fp, #-12]
c01002b4:	ea000007 	b	c01002d8 <lcd_test+0x29c>
c01002b8:	e51b3014 	ldr	r3, [fp, #-20]	; 0xffffffec
c01002bc:	e2832004 	add	r2, r3, #4
c01002c0:	e50b2014 	str	r2, [fp, #-20]	; 0xffffffec
c01002c4:	e3a02cff 	mov	r2, #65280	; 0xff00
c01002c8:	e5832000 	str	r2, [r3]
c01002cc:	e51b300c 	ldr	r3, [fp, #-12]
c01002d0:	e2833001 	add	r3, r3, #1
c01002d4:	e50b300c 	str	r3, [fp, #-12]
c01002d8:	e51b3020 	ldr	r3, [fp, #-32]	; 0xffffffe0
c01002dc:	e51b200c 	ldr	r2, [fp, #-12]
c01002e0:	e1520003 	cmp	r2, r3
c01002e4:	bafffff3 	blt	c01002b8 <lcd_test+0x27c>
c01002e8:	e51b3008 	ldr	r3, [fp, #-8]
c01002ec:	e2833001 	add	r3, r3, #1
c01002f0:	e50b3008 	str	r3, [fp, #-8]
c01002f4:	e51b301c 	ldr	r3, [fp, #-28]	; 0xffffffe4
c01002f8:	e51b2008 	ldr	r2, [fp, #-8]
c01002fc:	e1520003 	cmp	r2, r3
c0100300:	baffffe9 	blt	c01002ac <lcd_test+0x270>
c0100304:	e51b3018 	ldr	r3, [fp, #-24]	; 0xffffffe8
c0100308:	e50b3014 	str	r3, [fp, #-20]	; 0xffffffec
c010030c:	e3a03000 	mov	r3, #0
c0100310:	e50b3008 	str	r3, [fp, #-8]
c0100314:	ea000011 	b	c0100360 <lcd_test+0x324>
c0100318:	e3a03000 	mov	r3, #0
c010031c:	e50b300c 	str	r3, [fp, #-12]
c0100320:	ea000007 	b	c0100344 <lcd_test+0x308>
c0100324:	e51b3014 	ldr	r3, [fp, #-20]	; 0xffffffec
c0100328:	e2832004 	add	r2, r3, #4
c010032c:	e50b2014 	str	r2, [fp, #-20]	; 0xffffffec
c0100330:	e3a020ff 	mov	r2, #255	; 0xff
c0100334:	e5832000 	str	r2, [r3]
c0100338:	e51b300c 	ldr	r3, [fp, #-12]
c010033c:	e2833001 	add	r3, r3, #1
c0100340:	e50b300c 	str	r3, [fp, #-12]
c0100344:	e51b3020 	ldr	r3, [fp, #-32]	; 0xffffffe0
c0100348:	e51b200c 	ldr	r2, [fp, #-12]
c010034c:	e1520003 	cmp	r2, r3
c0100350:	bafffff3 	blt	c0100324 <lcd_test+0x2e8>
c0100354:	e51b3008 	ldr	r3, [fp, #-8]
c0100358:	e2833001 	add	r3, r3, #1
c010035c:	e50b3008 	str	r3, [fp, #-8]
c0100360:	e51b301c 	ldr	r3, [fp, #-28]	; 0xffffffe4
c0100364:	e51b2008 	ldr	r2, [fp, #-8]
c0100368:	e1520003 	cmp	r2, r3
c010036c:	baffffe9 	blt	c0100318 <lcd_test+0x2dc>
c0100370:	e51b3018 	ldr	r3, [fp, #-24]	; 0xffffffe8
c0100374:	e50b3014 	str	r3, [fp, #-20]	; 0xffffffec
c0100378:	e3a03000 	mov	r3, #0
c010037c:	e50b3008 	str	r3, [fp, #-8]
c0100380:	ea000011 	b	c01003cc <lcd_test+0x390>
c0100384:	e3a03000 	mov	r3, #0
c0100388:	e50b300c 	str	r3, [fp, #-12]
c010038c:	ea000007 	b	c01003b0 <lcd_test+0x374>
c0100390:	e51b3014 	ldr	r3, [fp, #-20]	; 0xffffffec
c0100394:	e2832004 	add	r2, r3, #4
c0100398:	e50b2014 	str	r2, [fp, #-20]	; 0xffffffec
c010039c:	e3a02000 	mov	r2, #0
c01003a0:	e5832000 	str	r2, [r3]
c01003a4:	e51b300c 	ldr	r3, [fp, #-12]
c01003a8:	e2833001 	add	r3, r3, #1
c01003ac:	e50b300c 	str	r3, [fp, #-12]
c01003b0:	e51b3020 	ldr	r3, [fp, #-32]	; 0xffffffe0
c01003b4:	e51b200c 	ldr	r2, [fp, #-12]
c01003b8:	e1520003 	cmp	r2, r3
c01003bc:	bafffff3 	blt	c0100390 <lcd_test+0x354>
c01003c0:	e51b3008 	ldr	r3, [fp, #-8]
c01003c4:	e2833001 	add	r3, r3, #1
c01003c8:	e50b3008 	str	r3, [fp, #-8]
c01003cc:	e51b301c 	ldr	r3, [fp, #-28]	; 0xffffffe4
c01003d0:	e51b2008 	ldr	r2, [fp, #-8]
c01003d4:	e1520003 	cmp	r2, r3
c01003d8:	baffffe9 	blt	c0100384 <lcd_test+0x348>
c01003dc:	eb0002d3 	bl	c0100f30 <fb_get_lcd_params>
c01003e0:	e30806a0 	movw	r0, #34464	; 0x86a0
c01003e4:	e3400001 	movt	r0, #1
c01003e8:	eb0003e2 	bl	c0101378 <delay>
c01003ec:	e51b301c 	ldr	r3, [fp, #-28]	; 0xffffffe4
c01003f0:	e2432001 	sub	r2, r3, #1
c01003f4:	e3a038ff 	mov	r3, #16711680	; 0xff0000
c01003f8:	e58d3000 	str	r3, [sp]
c01003fc:	e3a03000 	mov	r3, #0
c0100400:	e3a01000 	mov	r1, #0
c0100404:	e3a00000 	mov	r0, #0
c0100408:	eb00016d 	bl	c01009c4 <draw_line>
c010040c:	e30806a0 	movw	r0, #34464	; 0x86a0
c0100410:	e3400001 	movt	r0, #1
c0100414:	eb0003d7 	bl	c0101378 <delay>
c0100418:	e51b301c 	ldr	r3, [fp, #-28]	; 0xffffffe4
c010041c:	e2430001 	sub	r0, r3, #1
c0100420:	e51b301c 	ldr	r3, [fp, #-28]	; 0xffffffe4
c0100424:	e2432001 	sub	r2, r3, #1
c0100428:	e51b3020 	ldr	r3, [fp, #-32]	; 0xffffffe0
c010042c:	e2431001 	sub	r1, r3, #1
c0100430:	e3a03cff 	mov	r3, #65280	; 0xff00
c0100434:	e34030ff 	movt	r3, #255	; 0xff
c0100438:	e58d3000 	str	r3, [sp]
c010043c:	e1a03001 	mov	r3, r1
c0100440:	e3a01000 	mov	r1, #0
c0100444:	eb00015e 	bl	c01009c4 <draw_line>
c0100448:	e30806a0 	movw	r0, #34464	; 0x86a0
c010044c:	e3400001 	movt	r0, #1
c0100450:	eb0003c8 	bl	c0101378 <delay>
c0100454:	e51b3020 	ldr	r3, [fp, #-32]	; 0xffffffe0
c0100458:	e2431001 	sub	r1, r3, #1
c010045c:	e51b301c 	ldr	r3, [fp, #-28]	; 0xffffffe4
c0100460:	e2432001 	sub	r2, r3, #1
c0100464:	e51b3020 	ldr	r3, [fp, #-32]	; 0xffffffe0
c0100468:	e2430001 	sub	r0, r3, #1
c010046c:	e3a030aa 	mov	r3, #170	; 0xaa
c0100470:	e34030ff 	movt	r3, #255	; 0xff
c0100474:	e58d3000 	str	r3, [sp]
c0100478:	e1a03000 	mov	r3, r0
c010047c:	e3a00000 	mov	r0, #0
c0100480:	eb00014f 	bl	c01009c4 <draw_line>
c0100484:	e30806a0 	movw	r0, #34464	; 0x86a0
c0100488:	e3400001 	movt	r0, #1
c010048c:	eb0003b9 	bl	c0101378 <delay>
c0100490:	e51b3020 	ldr	r3, [fp, #-32]	; 0xffffffe0
c0100494:	e2432001 	sub	r2, r3, #1
c0100498:	e3a030ef 	mov	r3, #239	; 0xef
c010049c:	e34030ff 	movt	r3, #255	; 0xff
c01004a0:	e58d3000 	str	r3, [sp]
c01004a4:	e1a03002 	mov	r3, r2
c01004a8:	e3a02000 	mov	r2, #0
c01004ac:	e3a01000 	mov	r1, #0
c01004b0:	e3a00000 	mov	r0, #0
c01004b4:	eb000142 	bl	c01009c4 <draw_line>
c01004b8:	e30806a0 	movw	r0, #34464	; 0x86a0
c01004bc:	e3400001 	movt	r0, #1
c01004c0:	eb0003ac 	bl	c0101378 <delay>
c01004c4:	e51b301c 	ldr	r3, [fp, #-28]	; 0xffffffe4
c01004c8:	e2432001 	sub	r2, r3, #1
c01004cc:	e51b3020 	ldr	r3, [fp, #-32]	; 0xffffffe0
c01004d0:	e2431001 	sub	r1, r3, #1
c01004d4:	e3a03c45 	mov	r3, #17664	; 0x4500
c01004d8:	e34030ff 	movt	r3, #255	; 0xff
c01004dc:	e58d3000 	str	r3, [sp]
c01004e0:	e1a03001 	mov	r3, r1
c01004e4:	e3a01000 	mov	r1, #0
c01004e8:	e3a00000 	mov	r0, #0
c01004ec:	eb000134 	bl	c01009c4 <draw_line>
c01004f0:	e30806a0 	movw	r0, #34464	; 0x86a0
c01004f4:	e3400001 	movt	r0, #1
c01004f8:	eb00039e 	bl	c0101378 <delay>
c01004fc:	e51b301c 	ldr	r3, [fp, #-28]	; 0xffffffe4
c0100500:	e2430001 	sub	r0, r3, #1
c0100504:	e51b3020 	ldr	r3, [fp, #-32]	; 0xffffffe0
c0100508:	e2432001 	sub	r2, r3, #1
c010050c:	e3a03d1e 	mov	r3, #1920	; 0x780
c0100510:	e34030ff 	movt	r3, #255	; 0xff
c0100514:	e58d3000 	str	r3, [sp]
c0100518:	e1a03002 	mov	r3, r2
c010051c:	e3a02000 	mov	r2, #0
c0100520:	e3a01000 	mov	r1, #0
c0100524:	eb000126 	bl	c01009c4 <draw_line>
c0100528:	e30806a0 	movw	r0, #34464	; 0x86a0
c010052c:	e3400001 	movt	r0, #1
c0100530:	eb000390 	bl	c0101378 <delay>
c0100534:	e51b301c 	ldr	r3, [fp, #-28]	; 0xffffffe4
c0100538:	e1a02fa3 	lsr	r2, r3, #31
c010053c:	e0823003 	add	r3, r2, r3
c0100540:	e1a030c3 	asr	r3, r3, #1
c0100544:	e1a00003 	mov	r0, r3
c0100548:	e51b3020 	ldr	r3, [fp, #-32]	; 0xffffffe0
c010054c:	e1a02fa3 	lsr	r2, r3, #31
c0100550:	e0823003 	add	r3, r2, r3
c0100554:	e1a030c3 	asr	r3, r3, #1
c0100558:	e1a01003 	mov	r1, r3
c010055c:	e51b3020 	ldr	r3, [fp, #-32]	; 0xffffffe0
c0100560:	e2832003 	add	r2, r3, #3
c0100564:	e3530000 	cmp	r3, #0
c0100568:	b1a03002 	movlt	r3, r2
c010056c:	a1a03003 	movge	r3, r3
c0100570:	e1a03143 	asr	r3, r3, #2
c0100574:	e1a02003 	mov	r2, r3
c0100578:	e3a03cff 	mov	r3, #65280	; 0xff00
c010057c:	eb000097 	bl	c01007e0 <draw_circle>
c0100580:	eb00000f 	bl	c01005c4 <font_init>
c0100584:	e3a03cff 	mov	r3, #65280	; 0xff00
c0100588:	e3022164 	movw	r2, #8548	; 0x2164
c010058c:	e34c2010 	movt	r2, #49168	; 0xc010
c0100590:	e3a0100a 	mov	r1, #10
c0100594:	e3a0000a 	mov	r0, #10
c0100598:	eb000051 	bl	c01006e4 <fb_print_string>
c010059c:	e320f000 	nop	{0}
c01005a0:	e24bd004 	sub	sp, fp, #4
c01005a4:	e8bd8800 	pop	{fp, pc}

c01005a8 <main>:
c01005a8:	e92d4800 	push	{fp, lr}
c01005ac:	e28db004 	add	fp, sp, #4
c01005b0:	eb0003f5 	bl	c010158c <lcd_init>
c01005b4:	ebfffea0 	bl	c010003c <lcd_test>
c01005b8:	e3a03000 	mov	r3, #0
c01005bc:	e1a00003 	mov	r0, r3
c01005c0:	e8bd8800 	pop	{fp, pc}

c01005c4 <font_init>:
c01005c4:	e92d4800 	push	{fp, lr}
c01005c8:	e28db004 	add	fp, sp, #4
c01005cc:	e303320c 	movw	r3, #12812	; 0x320c
c01005d0:	e34c3010 	movt	r3, #49168	; 0xc010
c01005d4:	e3032208 	movw	r2, #12808	; 0x3208
c01005d8:	e34c2010 	movt	r2, #49168	; 0xc010
c01005dc:	e3031204 	movw	r1, #12804	; 0x3204
c01005e0:	e34c1010 	movt	r1, #49168	; 0xc010
c01005e4:	e3030200 	movw	r0, #12800	; 0x3200
c01005e8:	e34c0010 	movt	r0, #49168	; 0xc010
c01005ec:	eb0003b9 	bl	c01014d8 <get_lcd_params>
c01005f0:	e320f000 	nop	{0}
c01005f4:	e8bd8800 	pop	{fp, pc}

c01005f8 <fb_print_char>:
c01005f8:	e92d4800 	push	{fp, lr}
c01005fc:	e28db004 	add	fp, sp, #4
c0100600:	e24dd028 	sub	sp, sp, #40	; 0x28
c0100604:	e50b0020 	str	r0, [fp, #-32]	; 0xffffffe0
c0100608:	e50b1024 	str	r1, [fp, #-36]	; 0xffffffdc
c010060c:	e50b302c 	str	r3, [fp, #-44]	; 0xffffffd4
c0100610:	e1a03002 	mov	r3, r2
c0100614:	e54b3025 	strb	r3, [fp, #-37]	; 0xffffffdb
c0100618:	e55b3025 	ldrb	r3, [fp, #-37]	; 0xffffffdb
c010061c:	e1a02203 	lsl	r2, r3, #4
c0100620:	e3023188 	movw	r3, #8584	; 0x2188
c0100624:	e34c3010 	movt	r3, #49168	; 0xc010
c0100628:	e0823003 	add	r3, r2, r3
c010062c:	e50b3010 	str	r3, [fp, #-16]
c0100630:	e51b3024 	ldr	r3, [fp, #-36]	; 0xffffffdc
c0100634:	e50b300c 	str	r3, [fp, #-12]
c0100638:	ea000021 	b	c01006c4 <fb_print_char+0xcc>
c010063c:	e51b3010 	ldr	r3, [fp, #-16]
c0100640:	e2832001 	add	r2, r3, #1
c0100644:	e50b2010 	str	r2, [fp, #-16]
c0100648:	e5d33000 	ldrb	r3, [r3]
c010064c:	e54b3015 	strb	r3, [fp, #-21]	; 0xffffffeb
c0100650:	e3a03007 	mov	r3, #7
c0100654:	e50b3014 	str	r3, [fp, #-20]	; 0xffffffec
c0100658:	e51b3020 	ldr	r3, [fp, #-32]	; 0xffffffe0
c010065c:	e50b3008 	str	r3, [fp, #-8]
c0100660:	ea00000f 	b	c01006a4 <fb_print_char+0xac>
c0100664:	e55b2015 	ldrb	r2, [fp, #-21]	; 0xffffffeb
c0100668:	e51b3014 	ldr	r3, [fp, #-20]	; 0xffffffec
c010066c:	e1a03352 	asr	r3, r2, r3
c0100670:	e2033001 	and	r3, r3, #1
c0100674:	e3530000 	cmp	r3, #0
c0100678:	0a000003 	beq	c010068c <fb_print_char+0x94>
c010067c:	e51b202c 	ldr	r2, [fp, #-44]	; 0xffffffd4
c0100680:	e51b100c 	ldr	r1, [fp, #-12]
c0100684:	e51b0008 	ldr	r0, [fp, #-8]
c0100688:	eb00025e 	bl	c0101008 <fb_put_pixel>
c010068c:	e51b3014 	ldr	r3, [fp, #-20]	; 0xffffffec
c0100690:	e2433001 	sub	r3, r3, #1
c0100694:	e50b3014 	str	r3, [fp, #-20]	; 0xffffffec
c0100698:	e51b3008 	ldr	r3, [fp, #-8]
c010069c:	e2833001 	add	r3, r3, #1
c01006a0:	e50b3008 	str	r3, [fp, #-8]
c01006a4:	e51b3020 	ldr	r3, [fp, #-32]	; 0xffffffe0
c01006a8:	e2833007 	add	r3, r3, #7
c01006ac:	e51b2008 	ldr	r2, [fp, #-8]
c01006b0:	e1520003 	cmp	r2, r3
c01006b4:	daffffea 	ble	c0100664 <fb_print_char+0x6c>
c01006b8:	e51b300c 	ldr	r3, [fp, #-12]
c01006bc:	e2833001 	add	r3, r3, #1
c01006c0:	e50b300c 	str	r3, [fp, #-12]
c01006c4:	e51b3024 	ldr	r3, [fp, #-36]	; 0xffffffdc
c01006c8:	e283300f 	add	r3, r3, #15
c01006cc:	e51b200c 	ldr	r2, [fp, #-12]
c01006d0:	e1520003 	cmp	r2, r3
c01006d4:	daffffd8 	ble	c010063c <fb_print_char+0x44>
c01006d8:	e320f000 	nop	{0}
c01006dc:	e24bd004 	sub	sp, fp, #4
c01006e0:	e8bd8800 	pop	{fp, pc}

c01006e4 <fb_print_string>:
c01006e4:	e92d4800 	push	{fp, lr}
c01006e8:	e28db004 	add	fp, sp, #4
c01006ec:	e24dd018 	sub	sp, sp, #24
c01006f0:	e50b0010 	str	r0, [fp, #-16]
c01006f4:	e50b1014 	str	r1, [fp, #-20]	; 0xffffffec
c01006f8:	e50b2018 	str	r2, [fp, #-24]	; 0xffffffe8
c01006fc:	e50b301c 	str	r3, [fp, #-28]	; 0xffffffe4
c0100700:	e3a03000 	mov	r3, #0
c0100704:	e50b3008 	str	r3, [fp, #-8]
c0100708:	ea00002b 	b	c01007bc <fb_print_string+0xd8>
c010070c:	e51b3008 	ldr	r3, [fp, #-8]
c0100710:	e51b2018 	ldr	r2, [fp, #-24]	; 0xffffffe8
c0100714:	e0823003 	add	r3, r2, r3
c0100718:	e5d33000 	ldrb	r3, [r3]
c010071c:	e353000a 	cmp	r3, #10
c0100720:	1a000003 	bne	c0100734 <fb_print_string+0x50>
c0100724:	e51b3014 	ldr	r3, [fp, #-20]	; 0xffffffec
c0100728:	e2833010 	add	r3, r3, #16
c010072c:	e50b3014 	str	r3, [fp, #-20]	; 0xffffffec
c0100730:	ea00001e 	b	c01007b0 <fb_print_string+0xcc>
c0100734:	e51b3008 	ldr	r3, [fp, #-8]
c0100738:	e51b2018 	ldr	r2, [fp, #-24]	; 0xffffffe8
c010073c:	e0823003 	add	r3, r2, r3
c0100740:	e5d33000 	ldrb	r3, [r3]
c0100744:	e353000d 	cmp	r3, #13
c0100748:	1a000002 	bne	c0100758 <fb_print_string+0x74>
c010074c:	e3a03000 	mov	r3, #0
c0100750:	e50b3010 	str	r3, [fp, #-16]
c0100754:	ea000015 	b	c01007b0 <fb_print_string+0xcc>
c0100758:	e51b3008 	ldr	r3, [fp, #-8]
c010075c:	e51b2018 	ldr	r2, [fp, #-24]	; 0xffffffe8
c0100760:	e0823003 	add	r3, r2, r3
c0100764:	e5d32000 	ldrb	r2, [r3]
c0100768:	e51b301c 	ldr	r3, [fp, #-28]	; 0xffffffe4
c010076c:	e51b1014 	ldr	r1, [fp, #-20]	; 0xffffffec
c0100770:	e51b0010 	ldr	r0, [fp, #-16]
c0100774:	ebffff9f 	bl	c01005f8 <fb_print_char>
c0100778:	e51b3010 	ldr	r3, [fp, #-16]
c010077c:	e2833008 	add	r3, r3, #8
c0100780:	e50b3010 	str	r3, [fp, #-16]
c0100784:	e3033204 	movw	r3, #12804	; 0x3204
c0100788:	e34c3010 	movt	r3, #49168	; 0xc010
c010078c:	e5933000 	ldr	r3, [r3]
c0100790:	e51b2010 	ldr	r2, [fp, #-16]
c0100794:	e1520003 	cmp	r2, r3
c0100798:	ba000004 	blt	c01007b0 <fb_print_string+0xcc>
c010079c:	e3a03000 	mov	r3, #0
c01007a0:	e50b3010 	str	r3, [fp, #-16]
c01007a4:	e51b3014 	ldr	r3, [fp, #-20]	; 0xffffffec
c01007a8:	e2833010 	add	r3, r3, #16
c01007ac:	e50b3014 	str	r3, [fp, #-20]	; 0xffffffec
c01007b0:	e51b3008 	ldr	r3, [fp, #-8]
c01007b4:	e2833001 	add	r3, r3, #1
c01007b8:	e50b3008 	str	r3, [fp, #-8]
c01007bc:	e51b3008 	ldr	r3, [fp, #-8]
c01007c0:	e51b2018 	ldr	r2, [fp, #-24]	; 0xffffffe8
c01007c4:	e0823003 	add	r3, r2, r3
c01007c8:	e5d33000 	ldrb	r3, [r3]
c01007cc:	e3530000 	cmp	r3, #0
c01007d0:	1affffcd 	bne	c010070c <fb_print_string+0x28>
c01007d4:	e320f000 	nop	{0}
c01007d8:	e24bd004 	sub	sp, fp, #4
c01007dc:	e8bd8800 	pop	{fp, pc}

c01007e0 <draw_circle>:
c01007e0:	e92d4800 	push	{fp, lr}
c01007e4:	e28db004 	add	fp, sp, #4
c01007e8:	e24dd020 	sub	sp, sp, #32
c01007ec:	e50b0018 	str	r0, [fp, #-24]	; 0xffffffe8
c01007f0:	e50b101c 	str	r1, [fp, #-28]	; 0xffffffe4
c01007f4:	e50b2020 	str	r2, [fp, #-32]	; 0xffffffe0
c01007f8:	e50b3024 	str	r3, [fp, #-36]	; 0xffffffdc
c01007fc:	e3a03000 	mov	r3, #0
c0100800:	e50b3008 	str	r3, [fp, #-8]
c0100804:	e51b3020 	ldr	r3, [fp, #-32]	; 0xffffffe0
c0100808:	e50b300c 	str	r3, [fp, #-12]
c010080c:	ea00005f 	b	c0100990 <draw_circle+0x1b0>
c0100810:	e51b2018 	ldr	r2, [fp, #-24]	; 0xffffffe8
c0100814:	e51b3008 	ldr	r3, [fp, #-8]
c0100818:	e0820003 	add	r0, r2, r3
c010081c:	e51b201c 	ldr	r2, [fp, #-28]	; 0xffffffe4
c0100820:	e51b300c 	ldr	r3, [fp, #-12]
c0100824:	e0423003 	sub	r3, r2, r3
c0100828:	e51b2024 	ldr	r2, [fp, #-36]	; 0xffffffdc
c010082c:	e1a01003 	mov	r1, r3
c0100830:	eb0001f4 	bl	c0101008 <fb_put_pixel>
c0100834:	e51b2018 	ldr	r2, [fp, #-24]	; 0xffffffe8
c0100838:	e51b3008 	ldr	r3, [fp, #-8]
c010083c:	e0420003 	sub	r0, r2, r3
c0100840:	e51b201c 	ldr	r2, [fp, #-28]	; 0xffffffe4
c0100844:	e51b300c 	ldr	r3, [fp, #-12]
c0100848:	e0423003 	sub	r3, r2, r3
c010084c:	e51b2024 	ldr	r2, [fp, #-36]	; 0xffffffdc
c0100850:	e1a01003 	mov	r1, r3
c0100854:	eb0001eb 	bl	c0101008 <fb_put_pixel>
c0100858:	e51b2018 	ldr	r2, [fp, #-24]	; 0xffffffe8
c010085c:	e51b3008 	ldr	r3, [fp, #-8]
c0100860:	e0420003 	sub	r0, r2, r3
c0100864:	e51b201c 	ldr	r2, [fp, #-28]	; 0xffffffe4
c0100868:	e51b300c 	ldr	r3, [fp, #-12]
c010086c:	e0823003 	add	r3, r2, r3
c0100870:	e51b2024 	ldr	r2, [fp, #-36]	; 0xffffffdc
c0100874:	e1a01003 	mov	r1, r3
c0100878:	eb0001e2 	bl	c0101008 <fb_put_pixel>
c010087c:	e51b2018 	ldr	r2, [fp, #-24]	; 0xffffffe8
c0100880:	e51b3008 	ldr	r3, [fp, #-8]
c0100884:	e0820003 	add	r0, r2, r3
c0100888:	e51b201c 	ldr	r2, [fp, #-28]	; 0xffffffe4
c010088c:	e51b300c 	ldr	r3, [fp, #-12]
c0100890:	e0823003 	add	r3, r2, r3
c0100894:	e51b2024 	ldr	r2, [fp, #-36]	; 0xffffffdc
c0100898:	e1a01003 	mov	r1, r3
c010089c:	eb0001d9 	bl	c0101008 <fb_put_pixel>
c01008a0:	e51b2018 	ldr	r2, [fp, #-24]	; 0xffffffe8
c01008a4:	e51b300c 	ldr	r3, [fp, #-12]
c01008a8:	e0820003 	add	r0, r2, r3
c01008ac:	e51b201c 	ldr	r2, [fp, #-28]	; 0xffffffe4
c01008b0:	e51b3008 	ldr	r3, [fp, #-8]
c01008b4:	e0823003 	add	r3, r2, r3
c01008b8:	e51b2024 	ldr	r2, [fp, #-36]	; 0xffffffdc
c01008bc:	e1a01003 	mov	r1, r3
c01008c0:	eb0001d0 	bl	c0101008 <fb_put_pixel>
c01008c4:	e51b2018 	ldr	r2, [fp, #-24]	; 0xffffffe8
c01008c8:	e51b300c 	ldr	r3, [fp, #-12]
c01008cc:	e0820003 	add	r0, r2, r3
c01008d0:	e51b201c 	ldr	r2, [fp, #-28]	; 0xffffffe4
c01008d4:	e51b3008 	ldr	r3, [fp, #-8]
c01008d8:	e0423003 	sub	r3, r2, r3
c01008dc:	e51b2024 	ldr	r2, [fp, #-36]	; 0xffffffdc
c01008e0:	e1a01003 	mov	r1, r3
c01008e4:	eb0001c7 	bl	c0101008 <fb_put_pixel>
c01008e8:	e51b2018 	ldr	r2, [fp, #-24]	; 0xffffffe8
c01008ec:	e51b300c 	ldr	r3, [fp, #-12]
c01008f0:	e0420003 	sub	r0, r2, r3
c01008f4:	e51b201c 	ldr	r2, [fp, #-28]	; 0xffffffe4
c01008f8:	e51b3008 	ldr	r3, [fp, #-8]
c01008fc:	e0423003 	sub	r3, r2, r3
c0100900:	e51b2024 	ldr	r2, [fp, #-36]	; 0xffffffdc
c0100904:	e1a01003 	mov	r1, r3
c0100908:	eb0001be 	bl	c0101008 <fb_put_pixel>
c010090c:	e51b2018 	ldr	r2, [fp, #-24]	; 0xffffffe8
c0100910:	e51b300c 	ldr	r3, [fp, #-12]
c0100914:	e0420003 	sub	r0, r2, r3
c0100918:	e51b201c 	ldr	r2, [fp, #-28]	; 0xffffffe4
c010091c:	e51b3008 	ldr	r3, [fp, #-8]
c0100920:	e0823003 	add	r3, r2, r3
c0100924:	e51b2024 	ldr	r2, [fp, #-36]	; 0xffffffdc
c0100928:	e1a01003 	mov	r1, r3
c010092c:	eb0001b5 	bl	c0101008 <fb_put_pixel>
c0100930:	e51b3008 	ldr	r3, [fp, #-8]
c0100934:	e2833001 	add	r3, r3, #1
c0100938:	e50b3008 	str	r3, [fp, #-8]
c010093c:	e51b3008 	ldr	r3, [fp, #-8]
c0100940:	e51b2008 	ldr	r2, [fp, #-8]
c0100944:	e0020392 	mul	r2, r2, r3
c0100948:	e51b300c 	ldr	r3, [fp, #-12]
c010094c:	e51b100c 	ldr	r1, [fp, #-12]
c0100950:	e0030391 	mul	r3, r1, r3
c0100954:	e0822003 	add	r2, r2, r3
c0100958:	e51b3020 	ldr	r3, [fp, #-32]	; 0xffffffe0
c010095c:	e51b1020 	ldr	r1, [fp, #-32]	; 0xffffffe0
c0100960:	e0030391 	mul	r3, r1, r3
c0100964:	e0423003 	sub	r3, r2, r3
c0100968:	e50b3010 	str	r3, [fp, #-16]
c010096c:	e51b3010 	ldr	r3, [fp, #-16]
c0100970:	e3530000 	cmp	r3, #0
c0100974:	da000005 	ble	c0100990 <draw_circle+0x1b0>
c0100978:	e51b300c 	ldr	r3, [fp, #-12]
c010097c:	e2433001 	sub	r3, r3, #1
c0100980:	e50b300c 	str	r3, [fp, #-12]
c0100984:	e51b3008 	ldr	r3, [fp, #-8]
c0100988:	e2433001 	sub	r3, r3, #1
c010098c:	e50b3008 	str	r3, [fp, #-8]
c0100990:	e51b300c 	ldr	r3, [fp, #-12]
c0100994:	e51b200c 	ldr	r2, [fp, #-12]
c0100998:	e0030392 	mul	r3, r2, r3
c010099c:	e3a02016 	mov	r2, #22
c01009a0:	e0020392 	mul	r2, r2, r3
c01009a4:	e51b3020 	ldr	r3, [fp, #-32]	; 0xffffffe0
c01009a8:	e51b1020 	ldr	r1, [fp, #-32]	; 0xffffffe0
c01009ac:	e0030391 	mul	r3, r1, r3
c01009b0:	e1520003 	cmp	r2, r3
c01009b4:	aaffff95 	bge	c0100810 <draw_circle+0x30>
c01009b8:	e320f000 	nop	{0}
c01009bc:	e24bd004 	sub	sp, fp, #4
c01009c0:	e8bd8800 	pop	{fp, pc}

c01009c4 <draw_line>:
c01009c4:	e92d4800 	push	{fp, lr}
c01009c8:	e28db004 	add	fp, sp, #4
c01009cc:	e24dd020 	sub	sp, sp, #32
c01009d0:	e50b0018 	str	r0, [fp, #-24]	; 0xffffffe8
c01009d4:	e50b101c 	str	r1, [fp, #-28]	; 0xffffffe4
c01009d8:	e50b2020 	str	r2, [fp, #-32]	; 0xffffffe0
c01009dc:	e50b3024 	str	r3, [fp, #-36]	; 0xffffffdc
c01009e0:	e51b2020 	ldr	r2, [fp, #-32]	; 0xffffffe0
c01009e4:	e51b3018 	ldr	r3, [fp, #-24]	; 0xffffffe8
c01009e8:	e0423003 	sub	r3, r2, r3
c01009ec:	e50b300c 	str	r3, [fp, #-12]
c01009f0:	e51b2024 	ldr	r2, [fp, #-36]	; 0xffffffdc
c01009f4:	e51b301c 	ldr	r3, [fp, #-28]	; 0xffffffe4
c01009f8:	e0423003 	sub	r3, r2, r3
c01009fc:	e50b3010 	str	r3, [fp, #-16]
c0100a00:	e51b300c 	ldr	r3, [fp, #-12]
c0100a04:	e3530000 	cmp	r3, #0
c0100a08:	ba0000a1 	blt	c0100c94 <draw_line+0x2d0>
c0100a0c:	e51b3010 	ldr	r3, [fp, #-16]
c0100a10:	e3530000 	cmp	r3, #0
c0100a14:	ba00004d 	blt	c0100b50 <draw_line+0x18c>
c0100a18:	e51b200c 	ldr	r2, [fp, #-12]
c0100a1c:	e51b3010 	ldr	r3, [fp, #-16]
c0100a20:	e1520003 	cmp	r2, r3
c0100a24:	ba000024 	blt	c0100abc <draw_line+0xf8>
c0100a28:	e51b300c 	ldr	r3, [fp, #-12]
c0100a2c:	e1a02fa3 	lsr	r2, r3, #31
c0100a30:	e0823003 	add	r3, r2, r3
c0100a34:	e1a030c3 	asr	r3, r3, #1
c0100a38:	e2633000 	rsb	r3, r3, #0
c0100a3c:	e1a02003 	mov	r2, r3
c0100a40:	e51b3010 	ldr	r3, [fp, #-16]
c0100a44:	e0833002 	add	r3, r3, r2
c0100a48:	e50b3008 	str	r3, [fp, #-8]
c0100a4c:	ea000015 	b	c0100aa8 <draw_line+0xe4>
c0100a50:	e59b3004 	ldr	r3, [fp, #4]
c0100a54:	e1a02003 	mov	r2, r3
c0100a58:	e51b101c 	ldr	r1, [fp, #-28]	; 0xffffffe4
c0100a5c:	e51b0018 	ldr	r0, [fp, #-24]	; 0xffffffe8
c0100a60:	eb000168 	bl	c0101008 <fb_put_pixel>
c0100a64:	e51b3008 	ldr	r3, [fp, #-8]
c0100a68:	e3530000 	cmp	r3, #0
c0100a6c:	da000006 	ble	c0100a8c <draw_line+0xc8>
c0100a70:	e51b301c 	ldr	r3, [fp, #-28]	; 0xffffffe4
c0100a74:	e2833001 	add	r3, r3, #1
c0100a78:	e50b301c 	str	r3, [fp, #-28]	; 0xffffffe4
c0100a7c:	e51b2008 	ldr	r2, [fp, #-8]
c0100a80:	e51b300c 	ldr	r3, [fp, #-12]
c0100a84:	e0423003 	sub	r3, r2, r3
c0100a88:	e50b3008 	str	r3, [fp, #-8]
c0100a8c:	e51b3018 	ldr	r3, [fp, #-24]	; 0xffffffe8
c0100a90:	e2833001 	add	r3, r3, #1
c0100a94:	e50b3018 	str	r3, [fp, #-24]	; 0xffffffe8
c0100a98:	e51b2008 	ldr	r2, [fp, #-8]
c0100a9c:	e51b3010 	ldr	r3, [fp, #-16]
c0100aa0:	e0823003 	add	r3, r2, r3
c0100aa4:	e50b3008 	str	r3, [fp, #-8]
c0100aa8:	e51b2018 	ldr	r2, [fp, #-24]	; 0xffffffe8
c0100aac:	e51b3020 	ldr	r3, [fp, #-32]	; 0xffffffe0
c0100ab0:	e1520003 	cmp	r2, r3
c0100ab4:	daffffe5 	ble	c0100a50 <draw_line+0x8c>
c0100ab8:	ea000119 	b	c0100f24 <draw_line+0x560>
c0100abc:	e51b3010 	ldr	r3, [fp, #-16]
c0100ac0:	e1a02fa3 	lsr	r2, r3, #31
c0100ac4:	e0823003 	add	r3, r2, r3
c0100ac8:	e1a030c3 	asr	r3, r3, #1
c0100acc:	e2633000 	rsb	r3, r3, #0
c0100ad0:	e1a02003 	mov	r2, r3
c0100ad4:	e51b300c 	ldr	r3, [fp, #-12]
c0100ad8:	e0833002 	add	r3, r3, r2
c0100adc:	e50b3008 	str	r3, [fp, #-8]
c0100ae0:	ea000015 	b	c0100b3c <draw_line+0x178>
c0100ae4:	e59b3004 	ldr	r3, [fp, #4]
c0100ae8:	e1a02003 	mov	r2, r3
c0100aec:	e51b101c 	ldr	r1, [fp, #-28]	; 0xffffffe4
c0100af0:	e51b0018 	ldr	r0, [fp, #-24]	; 0xffffffe8
c0100af4:	eb000143 	bl	c0101008 <fb_put_pixel>
c0100af8:	e51b3008 	ldr	r3, [fp, #-8]
c0100afc:	e3530000 	cmp	r3, #0
c0100b00:	da000006 	ble	c0100b20 <draw_line+0x15c>
c0100b04:	e51b3018 	ldr	r3, [fp, #-24]	; 0xffffffe8
c0100b08:	e2833001 	add	r3, r3, #1
c0100b0c:	e50b3018 	str	r3, [fp, #-24]	; 0xffffffe8
c0100b10:	e51b2008 	ldr	r2, [fp, #-8]
c0100b14:	e51b3010 	ldr	r3, [fp, #-16]
c0100b18:	e0423003 	sub	r3, r2, r3
c0100b1c:	e50b3008 	str	r3, [fp, #-8]
c0100b20:	e51b301c 	ldr	r3, [fp, #-28]	; 0xffffffe4
c0100b24:	e2833001 	add	r3, r3, #1
c0100b28:	e50b301c 	str	r3, [fp, #-28]	; 0xffffffe4
c0100b2c:	e51b2008 	ldr	r2, [fp, #-8]
c0100b30:	e51b300c 	ldr	r3, [fp, #-12]
c0100b34:	e0823003 	add	r3, r2, r3
c0100b38:	e50b3008 	str	r3, [fp, #-8]
c0100b3c:	e51b201c 	ldr	r2, [fp, #-28]	; 0xffffffe4
c0100b40:	e51b3024 	ldr	r3, [fp, #-36]	; 0xffffffdc
c0100b44:	e1520003 	cmp	r2, r3
c0100b48:	daffffe5 	ble	c0100ae4 <draw_line+0x120>
c0100b4c:	ea0000f4 	b	c0100f24 <draw_line+0x560>
c0100b50:	e51b3010 	ldr	r3, [fp, #-16]
c0100b54:	e2633000 	rsb	r3, r3, #0
c0100b58:	e50b3010 	str	r3, [fp, #-16]
c0100b5c:	e51b200c 	ldr	r2, [fp, #-12]
c0100b60:	e51b3010 	ldr	r3, [fp, #-16]
c0100b64:	e1520003 	cmp	r2, r3
c0100b68:	ba000024 	blt	c0100c00 <draw_line+0x23c>
c0100b6c:	e51b300c 	ldr	r3, [fp, #-12]
c0100b70:	e1a02fa3 	lsr	r2, r3, #31
c0100b74:	e0823003 	add	r3, r2, r3
c0100b78:	e1a030c3 	asr	r3, r3, #1
c0100b7c:	e2633000 	rsb	r3, r3, #0
c0100b80:	e1a02003 	mov	r2, r3
c0100b84:	e51b3010 	ldr	r3, [fp, #-16]
c0100b88:	e0833002 	add	r3, r3, r2
c0100b8c:	e50b3008 	str	r3, [fp, #-8]
c0100b90:	ea000015 	b	c0100bec <draw_line+0x228>
c0100b94:	e59b3004 	ldr	r3, [fp, #4]
c0100b98:	e1a02003 	mov	r2, r3
c0100b9c:	e51b101c 	ldr	r1, [fp, #-28]	; 0xffffffe4
c0100ba0:	e51b0018 	ldr	r0, [fp, #-24]	; 0xffffffe8
c0100ba4:	eb000117 	bl	c0101008 <fb_put_pixel>
c0100ba8:	e51b3008 	ldr	r3, [fp, #-8]
c0100bac:	e3530000 	cmp	r3, #0
c0100bb0:	da000006 	ble	c0100bd0 <draw_line+0x20c>
c0100bb4:	e51b301c 	ldr	r3, [fp, #-28]	; 0xffffffe4
c0100bb8:	e2433001 	sub	r3, r3, #1
c0100bbc:	e50b301c 	str	r3, [fp, #-28]	; 0xffffffe4
c0100bc0:	e51b2008 	ldr	r2, [fp, #-8]
c0100bc4:	e51b300c 	ldr	r3, [fp, #-12]
c0100bc8:	e0423003 	sub	r3, r2, r3
c0100bcc:	e50b3008 	str	r3, [fp, #-8]
c0100bd0:	e51b3018 	ldr	r3, [fp, #-24]	; 0xffffffe8
c0100bd4:	e2833001 	add	r3, r3, #1
c0100bd8:	e50b3018 	str	r3, [fp, #-24]	; 0xffffffe8
c0100bdc:	e51b2008 	ldr	r2, [fp, #-8]
c0100be0:	e51b3010 	ldr	r3, [fp, #-16]
c0100be4:	e0823003 	add	r3, r2, r3
c0100be8:	e50b3008 	str	r3, [fp, #-8]
c0100bec:	e51b2018 	ldr	r2, [fp, #-24]	; 0xffffffe8
c0100bf0:	e51b3020 	ldr	r3, [fp, #-32]	; 0xffffffe0
c0100bf4:	e1520003 	cmp	r2, r3
c0100bf8:	daffffe5 	ble	c0100b94 <draw_line+0x1d0>
c0100bfc:	ea0000c8 	b	c0100f24 <draw_line+0x560>
c0100c00:	e51b3010 	ldr	r3, [fp, #-16]
c0100c04:	e1a02fa3 	lsr	r2, r3, #31
c0100c08:	e0823003 	add	r3, r2, r3
c0100c0c:	e1a030c3 	asr	r3, r3, #1
c0100c10:	e2633000 	rsb	r3, r3, #0
c0100c14:	e1a02003 	mov	r2, r3
c0100c18:	e51b300c 	ldr	r3, [fp, #-12]
c0100c1c:	e0833002 	add	r3, r3, r2
c0100c20:	e50b3008 	str	r3, [fp, #-8]
c0100c24:	ea000015 	b	c0100c80 <draw_line+0x2bc>
c0100c28:	e59b3004 	ldr	r3, [fp, #4]
c0100c2c:	e1a02003 	mov	r2, r3
c0100c30:	e51b101c 	ldr	r1, [fp, #-28]	; 0xffffffe4
c0100c34:	e51b0018 	ldr	r0, [fp, #-24]	; 0xffffffe8
c0100c38:	eb0000f2 	bl	c0101008 <fb_put_pixel>
c0100c3c:	e51b3008 	ldr	r3, [fp, #-8]
c0100c40:	e3530000 	cmp	r3, #0
c0100c44:	da000006 	ble	c0100c64 <draw_line+0x2a0>
c0100c48:	e51b3018 	ldr	r3, [fp, #-24]	; 0xffffffe8
c0100c4c:	e2833001 	add	r3, r3, #1
c0100c50:	e50b3018 	str	r3, [fp, #-24]	; 0xffffffe8
c0100c54:	e51b2008 	ldr	r2, [fp, #-8]
c0100c58:	e51b3010 	ldr	r3, [fp, #-16]
c0100c5c:	e0423003 	sub	r3, r2, r3
c0100c60:	e50b3008 	str	r3, [fp, #-8]
c0100c64:	e51b301c 	ldr	r3, [fp, #-28]	; 0xffffffe4
c0100c68:	e2433001 	sub	r3, r3, #1
c0100c6c:	e50b301c 	str	r3, [fp, #-28]	; 0xffffffe4
c0100c70:	e51b2008 	ldr	r2, [fp, #-8]
c0100c74:	e51b300c 	ldr	r3, [fp, #-12]
c0100c78:	e0823003 	add	r3, r2, r3
c0100c7c:	e50b3008 	str	r3, [fp, #-8]
c0100c80:	e51b201c 	ldr	r2, [fp, #-28]	; 0xffffffe4
c0100c84:	e51b3024 	ldr	r3, [fp, #-36]	; 0xffffffdc
c0100c88:	e1520003 	cmp	r2, r3
c0100c8c:	aaffffe5 	bge	c0100c28 <draw_line+0x264>
c0100c90:	ea0000a3 	b	c0100f24 <draw_line+0x560>
c0100c94:	e51b300c 	ldr	r3, [fp, #-12]
c0100c98:	e2633000 	rsb	r3, r3, #0
c0100c9c:	e50b300c 	str	r3, [fp, #-12]
c0100ca0:	e51b3010 	ldr	r3, [fp, #-16]
c0100ca4:	e3530000 	cmp	r3, #0
c0100ca8:	ba00004d 	blt	c0100de4 <draw_line+0x420>
c0100cac:	e51b200c 	ldr	r2, [fp, #-12]
c0100cb0:	e51b3010 	ldr	r3, [fp, #-16]
c0100cb4:	e1520003 	cmp	r2, r3
c0100cb8:	ba000024 	blt	c0100d50 <draw_line+0x38c>
c0100cbc:	e51b300c 	ldr	r3, [fp, #-12]
c0100cc0:	e1a02fa3 	lsr	r2, r3, #31
c0100cc4:	e0823003 	add	r3, r2, r3
c0100cc8:	e1a030c3 	asr	r3, r3, #1
c0100ccc:	e2633000 	rsb	r3, r3, #0
c0100cd0:	e1a02003 	mov	r2, r3
c0100cd4:	e51b3010 	ldr	r3, [fp, #-16]
c0100cd8:	e0833002 	add	r3, r3, r2
c0100cdc:	e50b3008 	str	r3, [fp, #-8]
c0100ce0:	ea000015 	b	c0100d3c <draw_line+0x378>
c0100ce4:	e59b3004 	ldr	r3, [fp, #4]
c0100ce8:	e1a02003 	mov	r2, r3
c0100cec:	e51b101c 	ldr	r1, [fp, #-28]	; 0xffffffe4
c0100cf0:	e51b0018 	ldr	r0, [fp, #-24]	; 0xffffffe8
c0100cf4:	eb0000c3 	bl	c0101008 <fb_put_pixel>
c0100cf8:	e51b3008 	ldr	r3, [fp, #-8]
c0100cfc:	e3530000 	cmp	r3, #0
c0100d00:	da000006 	ble	c0100d20 <draw_line+0x35c>
c0100d04:	e51b301c 	ldr	r3, [fp, #-28]	; 0xffffffe4
c0100d08:	e2833001 	add	r3, r3, #1
c0100d0c:	e50b301c 	str	r3, [fp, #-28]	; 0xffffffe4
c0100d10:	e51b2008 	ldr	r2, [fp, #-8]
c0100d14:	e51b300c 	ldr	r3, [fp, #-12]
c0100d18:	e0423003 	sub	r3, r2, r3
c0100d1c:	e50b3008 	str	r3, [fp, #-8]
c0100d20:	e51b3018 	ldr	r3, [fp, #-24]	; 0xffffffe8
c0100d24:	e2433001 	sub	r3, r3, #1
c0100d28:	e50b3018 	str	r3, [fp, #-24]	; 0xffffffe8
c0100d2c:	e51b2008 	ldr	r2, [fp, #-8]
c0100d30:	e51b3010 	ldr	r3, [fp, #-16]
c0100d34:	e0823003 	add	r3, r2, r3
c0100d38:	e50b3008 	str	r3, [fp, #-8]
c0100d3c:	e51b2018 	ldr	r2, [fp, #-24]	; 0xffffffe8
c0100d40:	e51b3020 	ldr	r3, [fp, #-32]	; 0xffffffe0
c0100d44:	e1520003 	cmp	r2, r3
c0100d48:	aaffffe5 	bge	c0100ce4 <draw_line+0x320>
c0100d4c:	ea000074 	b	c0100f24 <draw_line+0x560>
c0100d50:	e51b3010 	ldr	r3, [fp, #-16]
c0100d54:	e1a02fa3 	lsr	r2, r3, #31
c0100d58:	e0823003 	add	r3, r2, r3
c0100d5c:	e1a030c3 	asr	r3, r3, #1
c0100d60:	e2633000 	rsb	r3, r3, #0
c0100d64:	e1a02003 	mov	r2, r3
c0100d68:	e51b300c 	ldr	r3, [fp, #-12]
c0100d6c:	e0833002 	add	r3, r3, r2
c0100d70:	e50b3008 	str	r3, [fp, #-8]
c0100d74:	ea000015 	b	c0100dd0 <draw_line+0x40c>
c0100d78:	e59b3004 	ldr	r3, [fp, #4]
c0100d7c:	e1a02003 	mov	r2, r3
c0100d80:	e51b101c 	ldr	r1, [fp, #-28]	; 0xffffffe4
c0100d84:	e51b0018 	ldr	r0, [fp, #-24]	; 0xffffffe8
c0100d88:	eb00009e 	bl	c0101008 <fb_put_pixel>
c0100d8c:	e51b3008 	ldr	r3, [fp, #-8]
c0100d90:	e3530000 	cmp	r3, #0
c0100d94:	da000006 	ble	c0100db4 <draw_line+0x3f0>
c0100d98:	e51b3018 	ldr	r3, [fp, #-24]	; 0xffffffe8
c0100d9c:	e2433001 	sub	r3, r3, #1
c0100da0:	e50b3018 	str	r3, [fp, #-24]	; 0xffffffe8
c0100da4:	e51b2008 	ldr	r2, [fp, #-8]
c0100da8:	e51b3010 	ldr	r3, [fp, #-16]
c0100dac:	e0423003 	sub	r3, r2, r3
c0100db0:	e50b3008 	str	r3, [fp, #-8]
c0100db4:	e51b301c 	ldr	r3, [fp, #-28]	; 0xffffffe4
c0100db8:	e2833001 	add	r3, r3, #1
c0100dbc:	e50b301c 	str	r3, [fp, #-28]	; 0xffffffe4
c0100dc0:	e51b2008 	ldr	r2, [fp, #-8]
c0100dc4:	e51b300c 	ldr	r3, [fp, #-12]
c0100dc8:	e0823003 	add	r3, r2, r3
c0100dcc:	e50b3008 	str	r3, [fp, #-8]
c0100dd0:	e51b201c 	ldr	r2, [fp, #-28]	; 0xffffffe4
c0100dd4:	e51b3024 	ldr	r3, [fp, #-36]	; 0xffffffdc
c0100dd8:	e1520003 	cmp	r2, r3
c0100ddc:	daffffe5 	ble	c0100d78 <draw_line+0x3b4>
c0100de0:	ea00004f 	b	c0100f24 <draw_line+0x560>
c0100de4:	e51b3010 	ldr	r3, [fp, #-16]
c0100de8:	e2633000 	rsb	r3, r3, #0
c0100dec:	e50b3010 	str	r3, [fp, #-16]
c0100df0:	e51b200c 	ldr	r2, [fp, #-12]
c0100df4:	e51b3010 	ldr	r3, [fp, #-16]
c0100df8:	e1520003 	cmp	r2, r3
c0100dfc:	ba000024 	blt	c0100e94 <draw_line+0x4d0>
c0100e00:	e51b300c 	ldr	r3, [fp, #-12]
c0100e04:	e1a02fa3 	lsr	r2, r3, #31
c0100e08:	e0823003 	add	r3, r2, r3
c0100e0c:	e1a030c3 	asr	r3, r3, #1
c0100e10:	e2633000 	rsb	r3, r3, #0
c0100e14:	e1a02003 	mov	r2, r3
c0100e18:	e51b3010 	ldr	r3, [fp, #-16]
c0100e1c:	e0833002 	add	r3, r3, r2
c0100e20:	e50b3008 	str	r3, [fp, #-8]
c0100e24:	ea000015 	b	c0100e80 <draw_line+0x4bc>
c0100e28:	e59b3004 	ldr	r3, [fp, #4]
c0100e2c:	e1a02003 	mov	r2, r3
c0100e30:	e51b101c 	ldr	r1, [fp, #-28]	; 0xffffffe4
c0100e34:	e51b0018 	ldr	r0, [fp, #-24]	; 0xffffffe8
c0100e38:	eb000072 	bl	c0101008 <fb_put_pixel>
c0100e3c:	e51b3008 	ldr	r3, [fp, #-8]
c0100e40:	e3530000 	cmp	r3, #0
c0100e44:	da000006 	ble	c0100e64 <draw_line+0x4a0>
c0100e48:	e51b301c 	ldr	r3, [fp, #-28]	; 0xffffffe4
c0100e4c:	e2433001 	sub	r3, r3, #1
c0100e50:	e50b301c 	str	r3, [fp, #-28]	; 0xffffffe4
c0100e54:	e51b2008 	ldr	r2, [fp, #-8]
c0100e58:	e51b300c 	ldr	r3, [fp, #-12]
c0100e5c:	e0423003 	sub	r3, r2, r3
c0100e60:	e50b3008 	str	r3, [fp, #-8]
c0100e64:	e51b3018 	ldr	r3, [fp, #-24]	; 0xffffffe8
c0100e68:	e2433001 	sub	r3, r3, #1
c0100e6c:	e50b3018 	str	r3, [fp, #-24]	; 0xffffffe8
c0100e70:	e51b2008 	ldr	r2, [fp, #-8]
c0100e74:	e51b3010 	ldr	r3, [fp, #-16]
c0100e78:	e0823003 	add	r3, r2, r3
c0100e7c:	e50b3008 	str	r3, [fp, #-8]
c0100e80:	e51b2018 	ldr	r2, [fp, #-24]	; 0xffffffe8
c0100e84:	e51b3020 	ldr	r3, [fp, #-32]	; 0xffffffe0
c0100e88:	e1520003 	cmp	r2, r3
c0100e8c:	aaffffe5 	bge	c0100e28 <draw_line+0x464>
c0100e90:	ea000023 	b	c0100f24 <draw_line+0x560>
c0100e94:	e51b3010 	ldr	r3, [fp, #-16]
c0100e98:	e1a02fa3 	lsr	r2, r3, #31
c0100e9c:	e0823003 	add	r3, r2, r3
c0100ea0:	e1a030c3 	asr	r3, r3, #1
c0100ea4:	e2633000 	rsb	r3, r3, #0
c0100ea8:	e1a02003 	mov	r2, r3
c0100eac:	e51b300c 	ldr	r3, [fp, #-12]
c0100eb0:	e0833002 	add	r3, r3, r2
c0100eb4:	e50b3008 	str	r3, [fp, #-8]
c0100eb8:	ea000015 	b	c0100f14 <draw_line+0x550>
c0100ebc:	e59b3004 	ldr	r3, [fp, #4]
c0100ec0:	e1a02003 	mov	r2, r3
c0100ec4:	e51b101c 	ldr	r1, [fp, #-28]	; 0xffffffe4
c0100ec8:	e51b0018 	ldr	r0, [fp, #-24]	; 0xffffffe8
c0100ecc:	eb00004d 	bl	c0101008 <fb_put_pixel>
c0100ed0:	e51b3008 	ldr	r3, [fp, #-8]
c0100ed4:	e3530000 	cmp	r3, #0
c0100ed8:	da000006 	ble	c0100ef8 <draw_line+0x534>
c0100edc:	e51b3018 	ldr	r3, [fp, #-24]	; 0xffffffe8
c0100ee0:	e2433001 	sub	r3, r3, #1
c0100ee4:	e50b3018 	str	r3, [fp, #-24]	; 0xffffffe8
c0100ee8:	e51b2008 	ldr	r2, [fp, #-8]
c0100eec:	e51b3010 	ldr	r3, [fp, #-16]
c0100ef0:	e0423003 	sub	r3, r2, r3
c0100ef4:	e50b3008 	str	r3, [fp, #-8]
c0100ef8:	e51b301c 	ldr	r3, [fp, #-28]	; 0xffffffe4
c0100efc:	e2433001 	sub	r3, r3, #1
c0100f00:	e50b301c 	str	r3, [fp, #-28]	; 0xffffffe4
c0100f04:	e51b2008 	ldr	r2, [fp, #-8]
c0100f08:	e51b300c 	ldr	r3, [fp, #-12]
c0100f0c:	e0823003 	add	r3, r2, r3
c0100f10:	e50b3008 	str	r3, [fp, #-8]
c0100f14:	e51b201c 	ldr	r2, [fp, #-28]	; 0xffffffe4
c0100f18:	e51b3024 	ldr	r3, [fp, #-36]	; 0xffffffdc
c0100f1c:	e1520003 	cmp	r2, r3
c0100f20:	aaffffe5 	bge	c0100ebc <draw_line+0x4f8>
c0100f24:	e320f000 	nop	{0}
c0100f28:	e24bd004 	sub	sp, fp, #4
c0100f2c:	e8bd8800 	pop	{fp, pc}

c0100f30 <fb_get_lcd_params>:
c0100f30:	e92d4800 	push	{fp, lr}
c0100f34:	e28db004 	add	fp, sp, #4
c0100f38:	e303321c 	movw	r3, #12828	; 0x321c
c0100f3c:	e34c3010 	movt	r3, #49168	; 0xc010
c0100f40:	e3032218 	movw	r2, #12824	; 0x3218
c0100f44:	e34c2010 	movt	r2, #49168	; 0xc010
c0100f48:	e3031214 	movw	r1, #12820	; 0x3214
c0100f4c:	e34c1010 	movt	r1, #49168	; 0xc010
c0100f50:	e3030210 	movw	r0, #12816	; 0x3210
c0100f54:	e34c0010 	movt	r0, #49168	; 0xc010
c0100f58:	eb00015e 	bl	c01014d8 <get_lcd_params>
c0100f5c:	e320f000 	nop	{0}
c0100f60:	e8bd8800 	pop	{fp, pc}

c0100f64 <convert32bppto16bpp>:
c0100f64:	e52db004 	push	{fp}		; (str fp, [sp, #-4]!)
c0100f68:	e28db000 	add	fp, sp, #0
c0100f6c:	e24dd01c 	sub	sp, sp, #28
c0100f70:	e50b0018 	str	r0, [fp, #-24]	; 0xffffffe8
c0100f74:	e51b3018 	ldr	r3, [fp, #-24]	; 0xffffffe8
c0100f78:	e1a03823 	lsr	r3, r3, #16
c0100f7c:	e6ef3073 	uxtb	r3, r3
c0100f80:	e50b3008 	str	r3, [fp, #-8]
c0100f84:	e51b3018 	ldr	r3, [fp, #-24]	; 0xffffffe8
c0100f88:	e1a03423 	lsr	r3, r3, #8
c0100f8c:	e6ef3073 	uxtb	r3, r3
c0100f90:	e50b300c 	str	r3, [fp, #-12]
c0100f94:	e51b3018 	ldr	r3, [fp, #-24]	; 0xffffffe8
c0100f98:	e6ef3073 	uxtb	r3, r3
c0100f9c:	e50b3010 	str	r3, [fp, #-16]
c0100fa0:	e51b3008 	ldr	r3, [fp, #-8]
c0100fa4:	e1a031c3 	asr	r3, r3, #3
c0100fa8:	e50b3008 	str	r3, [fp, #-8]
c0100fac:	e51b300c 	ldr	r3, [fp, #-12]
c0100fb0:	e1a03143 	asr	r3, r3, #2
c0100fb4:	e50b300c 	str	r3, [fp, #-12]
c0100fb8:	e51b3010 	ldr	r3, [fp, #-16]
c0100fbc:	e1a031c3 	asr	r3, r3, #3
c0100fc0:	e50b3010 	str	r3, [fp, #-16]
c0100fc4:	e51b3008 	ldr	r3, [fp, #-8]
c0100fc8:	e1a03583 	lsl	r3, r3, #11
c0100fcc:	e6bf2073 	sxth	r2, r3
c0100fd0:	e51b300c 	ldr	r3, [fp, #-12]
c0100fd4:	e1a03283 	lsl	r3, r3, #5
c0100fd8:	e6bf3073 	sxth	r3, r3
c0100fdc:	e1823003 	orr	r3, r2, r3
c0100fe0:	e6bf2073 	sxth	r2, r3
c0100fe4:	e51b3010 	ldr	r3, [fp, #-16]
c0100fe8:	e6bf3073 	sxth	r3, r3
c0100fec:	e1823003 	orr	r3, r2, r3
c0100ff0:	e6bf3073 	sxth	r3, r3
c0100ff4:	e6ff3073 	uxth	r3, r3
c0100ff8:	e1a00003 	mov	r0, r3
c0100ffc:	e28bd000 	add	sp, fp, #0
c0101000:	e49db004 	pop	{fp}		; (ldr fp, [sp], #4)
c0101004:	e12fff1e 	bx	lr

c0101008 <fb_put_pixel>:
c0101008:	e92d4800 	push	{fp, lr}
c010100c:	e28db004 	add	fp, sp, #4
c0101010:	e24dd020 	sub	sp, sp, #32
c0101014:	e50b0018 	str	r0, [fp, #-24]	; 0xffffffe8
c0101018:	e50b101c 	str	r1, [fp, #-28]	; 0xffffffe4
c010101c:	e50b2020 	str	r2, [fp, #-32]	; 0xffffffe0
c0101020:	e3033214 	movw	r3, #12820	; 0x3214
c0101024:	e34c3010 	movt	r3, #49168	; 0xc010
c0101028:	e5932000 	ldr	r2, [r3]
c010102c:	e303321c 	movw	r3, #12828	; 0x321c
c0101030:	e34c3010 	movt	r3, #49168	; 0xc010
c0101034:	e5933000 	ldr	r3, [r3]
c0101038:	e0030293 	mul	r3, r3, r2
c010103c:	e2832007 	add	r2, r3, #7
c0101040:	e3530000 	cmp	r3, #0
c0101044:	b1a03002 	movlt	r3, r2
c0101048:	a1a03003 	movge	r3, r3
c010104c:	e1a031c3 	asr	r3, r3, #3
c0101050:	e1a02003 	mov	r2, r3
c0101054:	e51b301c 	ldr	r3, [fp, #-28]	; 0xffffffe4
c0101058:	e0030293 	mul	r3, r3, r2
c010105c:	e1a02003 	mov	r2, r3
c0101060:	e3033210 	movw	r3, #12816	; 0x3210
c0101064:	e34c3010 	movt	r3, #49168	; 0xc010
c0101068:	e5933000 	ldr	r3, [r3]
c010106c:	e0822003 	add	r2, r2, r3
c0101070:	e303321c 	movw	r3, #12828	; 0x321c
c0101074:	e34c3010 	movt	r3, #49168	; 0xc010
c0101078:	e5933000 	ldr	r3, [r3]
c010107c:	e51b1018 	ldr	r1, [fp, #-24]	; 0xffffffe8
c0101080:	e0030391 	mul	r3, r1, r3
c0101084:	e2831007 	add	r1, r3, #7
c0101088:	e3530000 	cmp	r3, #0
c010108c:	b1a03001 	movlt	r3, r1
c0101090:	a1a03003 	movge	r3, r3
c0101094:	e1a031c3 	asr	r3, r3, #3
c0101098:	e0823003 	add	r3, r2, r3
c010109c:	e50b3008 	str	r3, [fp, #-8]
c01010a0:	e303321c 	movw	r3, #12828	; 0x321c
c01010a4:	e34c3010 	movt	r3, #49168	; 0xc010
c01010a8:	e5933000 	ldr	r3, [r3]
c01010ac:	e3530010 	cmp	r3, #16
c01010b0:	0a000002 	beq	c01010c0 <fb_put_pixel+0xb8>
c01010b4:	e3530020 	cmp	r3, #32
c01010b8:	0a000009 	beq	c01010e4 <fb_put_pixel+0xdc>
c01010bc:	ea00000e 	b	c01010fc <fb_put_pixel+0xf4>
c01010c0:	e51b3008 	ldr	r3, [fp, #-8]
c01010c4:	e50b300c 	str	r3, [fp, #-12]
c01010c8:	e51b0020 	ldr	r0, [fp, #-32]	; 0xffffffe0
c01010cc:	ebffffa4 	bl	c0100f64 <convert32bppto16bpp>
c01010d0:	e1a03000 	mov	r3, r0
c01010d4:	e1a02003 	mov	r2, r3
c01010d8:	e51b300c 	ldr	r3, [fp, #-12]
c01010dc:	e1c320b0 	strh	r2, [r3]
c01010e0:	ea000005 	b	c01010fc <fb_put_pixel+0xf4>
c01010e4:	e51b3008 	ldr	r3, [fp, #-8]
c01010e8:	e50b3010 	str	r3, [fp, #-16]
c01010ec:	e51b3010 	ldr	r3, [fp, #-16]
c01010f0:	e51b2020 	ldr	r2, [fp, #-32]	; 0xffffffe0
c01010f4:	e5832000 	str	r2, [r3]
c01010f8:	e320f000 	nop	{0}
c01010fc:	e320f000 	nop	{0}
c0101100:	e24bd004 	sub	sp, fp, #4
c0101104:	e8bd8800 	pop	{fp, pc}

c0101108 <strcmp>:
c0101108:	e92d0810 	push	{r4, fp}
c010110c:	e28db004 	add	fp, sp, #4
c0101110:	e24dd008 	sub	sp, sp, #8
c0101114:	e50b0008 	str	r0, [fp, #-8]
c0101118:	e50b100c 	str	r1, [fp, #-12]
c010111c:	e51b3008 	ldr	r3, [fp, #-8]
c0101120:	e5d32000 	ldrb	r2, [r3]
c0101124:	e51b300c 	ldr	r3, [fp, #-12]
c0101128:	e2831001 	add	r1, r3, #1
c010112c:	e50b100c 	str	r1, [fp, #-12]
c0101130:	e5d33000 	ldrb	r3, [r3]
c0101134:	e0423003 	sub	r3, r2, r3
c0101138:	e6ef3073 	uxtb	r3, r3
c010113c:	e6af4073 	sxtb	r4, r3
c0101140:	e3540000 	cmp	r4, #0
c0101144:	1a000006 	bne	c0101164 <strcmp+0x5c>
c0101148:	e51b3008 	ldr	r3, [fp, #-8]
c010114c:	e2832001 	add	r2, r3, #1
c0101150:	e50b2008 	str	r2, [fp, #-8]
c0101154:	e5d33000 	ldrb	r3, [r3]
c0101158:	e3530000 	cmp	r3, #0
c010115c:	0a000000 	beq	c0101164 <strcmp+0x5c>
c0101160:	eaffffed 	b	c010111c <strcmp+0x14>
c0101164:	e1a03004 	mov	r3, r4
c0101168:	e1a00003 	mov	r0, r3
c010116c:	e24bd004 	sub	sp, fp, #4
c0101170:	e8bd0810 	pop	{r4, fp}
c0101174:	e12fff1e 	bx	lr

c0101178 <register_lcd_controller>:
c0101178:	e52db004 	push	{fp}		; (str fp, [sp, #-4]!)
c010117c:	e28db000 	add	fp, sp, #0
c0101180:	e24dd014 	sub	sp, sp, #20
c0101184:	e50b0010 	str	r0, [fp, #-16]
c0101188:	e3a03000 	mov	r3, #0
c010118c:	e50b3008 	str	r3, [fp, #-8]
c0101190:	ea00000f 	b	c01011d4 <register_lcd_controller+0x5c>
c0101194:	e3033220 	movw	r3, #12832	; 0x3220
c0101198:	e34c3010 	movt	r3, #49168	; 0xc010
c010119c:	e51b2008 	ldr	r2, [fp, #-8]
c01011a0:	e7933102 	ldr	r3, [r3, r2, lsl #2]
c01011a4:	e3530000 	cmp	r3, #0
c01011a8:	1a000006 	bne	c01011c8 <register_lcd_controller+0x50>
c01011ac:	e3033220 	movw	r3, #12832	; 0x3220
c01011b0:	e34c3010 	movt	r3, #49168	; 0xc010
c01011b4:	e51b2008 	ldr	r2, [fp, #-8]
c01011b8:	e51b1010 	ldr	r1, [fp, #-16]
c01011bc:	e7831102 	str	r1, [r3, r2, lsl #2]
c01011c0:	e51b3008 	ldr	r3, [fp, #-8]
c01011c4:	ea000006 	b	c01011e4 <register_lcd_controller+0x6c>
c01011c8:	e51b3008 	ldr	r3, [fp, #-8]
c01011cc:	e2833001 	add	r3, r3, #1
c01011d0:	e50b3008 	str	r3, [fp, #-8]
c01011d4:	e51b3008 	ldr	r3, [fp, #-8]
c01011d8:	e3530009 	cmp	r3, #9
c01011dc:	daffffec 	ble	c0101194 <register_lcd_controller+0x1c>
c01011e0:	e3e03000 	mvn	r3, #0
c01011e4:	e1a00003 	mov	r0, r3
c01011e8:	e28bd000 	add	sp, fp, #0
c01011ec:	e49db004 	pop	{fp}		; (ldr fp, [sp], #4)
c01011f0:	e12fff1e 	bx	lr

c01011f4 <select_lcd_controller>:
c01011f4:	e92d4800 	push	{fp, lr}
c01011f8:	e28db004 	add	fp, sp, #4
c01011fc:	e24dd010 	sub	sp, sp, #16
c0101200:	e50b0010 	str	r0, [fp, #-16]
c0101204:	e3a03000 	mov	r3, #0
c0101208:	e50b3008 	str	r3, [fp, #-8]
c010120c:	ea00001c 	b	c0101284 <select_lcd_controller+0x90>
c0101210:	e3033220 	movw	r3, #12832	; 0x3220
c0101214:	e34c3010 	movt	r3, #49168	; 0xc010
c0101218:	e51b2008 	ldr	r2, [fp, #-8]
c010121c:	e7933102 	ldr	r3, [r3, r2, lsl #2]
c0101220:	e3530000 	cmp	r3, #0
c0101224:	0a000013 	beq	c0101278 <select_lcd_controller+0x84>
c0101228:	e3033220 	movw	r3, #12832	; 0x3220
c010122c:	e34c3010 	movt	r3, #49168	; 0xc010
c0101230:	e51b2008 	ldr	r2, [fp, #-8]
c0101234:	e7933102 	ldr	r3, [r3, r2, lsl #2]
c0101238:	e5933000 	ldr	r3, [r3]
c010123c:	e51b1010 	ldr	r1, [fp, #-16]
c0101240:	e1a00003 	mov	r0, r3
c0101244:	ebffffaf 	bl	c0101108 <strcmp>
c0101248:	e1a03000 	mov	r3, r0
c010124c:	e3530000 	cmp	r3, #0
c0101250:	1a000008 	bne	c0101278 <select_lcd_controller+0x84>
c0101254:	e3033220 	movw	r3, #12832	; 0x3220
c0101258:	e34c3010 	movt	r3, #49168	; 0xc010
c010125c:	e51b2008 	ldr	r2, [fp, #-8]
c0101260:	e7932102 	ldr	r2, [r3, r2, lsl #2]
c0101264:	e3033248 	movw	r3, #12872	; 0x3248
c0101268:	e34c3010 	movt	r3, #49168	; 0xc010
c010126c:	e5832000 	str	r2, [r3]
c0101270:	e51b3008 	ldr	r3, [fp, #-8]
c0101274:	ea000006 	b	c0101294 <select_lcd_controller+0xa0>
c0101278:	e51b3008 	ldr	r3, [fp, #-8]
c010127c:	e2833001 	add	r3, r3, #1
c0101280:	e50b3008 	str	r3, [fp, #-8]
c0101284:	e51b3008 	ldr	r3, [fp, #-8]
c0101288:	e3530009 	cmp	r3, #9
c010128c:	daffffdf 	ble	c0101210 <select_lcd_controller+0x1c>
c0101290:	e3e03000 	mvn	r3, #0
c0101294:	e1a00003 	mov	r0, r3
c0101298:	e24bd004 	sub	sp, fp, #4
c010129c:	e8bd8800 	pop	{fp, pc}

c01012a0 <lcd_controller_init>:
c01012a0:	e92d4800 	push	{fp, lr}
c01012a4:	e28db004 	add	fp, sp, #4
c01012a8:	e24dd008 	sub	sp, sp, #8
c01012ac:	e50b0008 	str	r0, [fp, #-8]
c01012b0:	e3033248 	movw	r3, #12872	; 0x3248
c01012b4:	e34c3010 	movt	r3, #49168	; 0xc010
c01012b8:	e5933000 	ldr	r3, [r3]
c01012bc:	e3530000 	cmp	r3, #0
c01012c0:	0a000007 	beq	c01012e4 <lcd_controller_init+0x44>
c01012c4:	e3033248 	movw	r3, #12872	; 0x3248
c01012c8:	e34c3010 	movt	r3, #49168	; 0xc010
c01012cc:	e5933000 	ldr	r3, [r3]
c01012d0:	e5933004 	ldr	r3, [r3, #4]
c01012d4:	e51b0008 	ldr	r0, [fp, #-8]
c01012d8:	e12fff33 	blx	r3
c01012dc:	e3a03000 	mov	r3, #0
c01012e0:	ea000000 	b	c01012e8 <lcd_controller_init+0x48>
c01012e4:	e3e03000 	mvn	r3, #0
c01012e8:	e1a00003 	mov	r0, r3
c01012ec:	e24bd004 	sub	sp, fp, #4
c01012f0:	e8bd8800 	pop	{fp, pc}

c01012f4 <lcd_controller_enable>:
c01012f4:	e92d4800 	push	{fp, lr}
c01012f8:	e28db004 	add	fp, sp, #4
c01012fc:	e3033248 	movw	r3, #12872	; 0x3248
c0101300:	e34c3010 	movt	r3, #49168	; 0xc010
c0101304:	e5933000 	ldr	r3, [r3]
c0101308:	e3530000 	cmp	r3, #0
c010130c:	0a000004 	beq	c0101324 <lcd_controller_enable+0x30>
c0101310:	e3033248 	movw	r3, #12872	; 0x3248
c0101314:	e34c3010 	movt	r3, #49168	; 0xc010
c0101318:	e5933000 	ldr	r3, [r3]
c010131c:	e5933008 	ldr	r3, [r3, #8]
c0101320:	e12fff33 	blx	r3
c0101324:	e320f000 	nop	{0}
c0101328:	e8bd8800 	pop	{fp, pc}

c010132c <lcd_controller_disable>:
c010132c:	e92d4800 	push	{fp, lr}
c0101330:	e28db004 	add	fp, sp, #4
c0101334:	e3033248 	movw	r3, #12872	; 0x3248
c0101338:	e34c3010 	movt	r3, #49168	; 0xc010
c010133c:	e5933000 	ldr	r3, [r3]
c0101340:	e3530000 	cmp	r3, #0
c0101344:	0a000004 	beq	c010135c <lcd_controller_disable+0x30>
c0101348:	e3033248 	movw	r3, #12872	; 0x3248
c010134c:	e34c3010 	movt	r3, #49168	; 0xc010
c0101350:	e5933000 	ldr	r3, [r3]
c0101354:	e593300c 	ldr	r3, [r3, #12]
c0101358:	e12fff33 	blx	r3
c010135c:	e320f000 	nop	{0}
c0101360:	e8bd8800 	pop	{fp, pc}

c0101364 <lcd_contoller_add>:
c0101364:	e92d4800 	push	{fp, lr}
c0101368:	e28db004 	add	fp, sp, #4
c010136c:	eb000375 	bl	c0102148 <Stm32mp157_lcd_controller_add>
c0101370:	e320f000 	nop	{0}
c0101374:	e8bd8800 	pop	{fp, pc}

c0101378 <delay>:
c0101378:	e52db004 	push	{fp}		; (str fp, [sp, #-4]!)
c010137c:	e28db000 	add	fp, sp, #0
c0101380:	e24dd00c 	sub	sp, sp, #12
c0101384:	e50b0008 	str	r0, [fp, #-8]
c0101388:	e320f000 	nop	{0}
c010138c:	e51b3008 	ldr	r3, [fp, #-8]
c0101390:	e2432001 	sub	r2, r3, #1
c0101394:	e50b2008 	str	r2, [fp, #-8]
c0101398:	e3530000 	cmp	r3, #0
c010139c:	1afffffa 	bne	c010138c <delay+0x14>
c01013a0:	e320f000 	nop	{0}
c01013a4:	e28bd000 	add	sp, fp, #0
c01013a8:	e49db004 	pop	{fp}		; (ldr fp, [sp], #4)
c01013ac:	e12fff1e 	bx	lr

c01013b0 <register_lcd>:
c01013b0:	e52db004 	push	{fp}		; (str fp, [sp, #-4]!)
c01013b4:	e28db000 	add	fp, sp, #0
c01013b8:	e24dd014 	sub	sp, sp, #20
c01013bc:	e50b0010 	str	r0, [fp, #-16]
c01013c0:	e3a03000 	mov	r3, #0
c01013c4:	e50b3008 	str	r3, [fp, #-8]
c01013c8:	ea00000f 	b	c010140c <register_lcd+0x5c>
c01013cc:	e303324c 	movw	r3, #12876	; 0x324c
c01013d0:	e34c3010 	movt	r3, #49168	; 0xc010
c01013d4:	e51b2008 	ldr	r2, [fp, #-8]
c01013d8:	e7933102 	ldr	r3, [r3, r2, lsl #2]
c01013dc:	e3530000 	cmp	r3, #0
c01013e0:	1a000006 	bne	c0101400 <register_lcd+0x50>
c01013e4:	e303324c 	movw	r3, #12876	; 0x324c
c01013e8:	e34c3010 	movt	r3, #49168	; 0xc010
c01013ec:	e51b2008 	ldr	r2, [fp, #-8]
c01013f0:	e51b1010 	ldr	r1, [fp, #-16]
c01013f4:	e7831102 	str	r1, [r3, r2, lsl #2]
c01013f8:	e51b3008 	ldr	r3, [fp, #-8]
c01013fc:	ea000006 	b	c010141c <register_lcd+0x6c>
c0101400:	e51b3008 	ldr	r3, [fp, #-8]
c0101404:	e2833001 	add	r3, r3, #1
c0101408:	e50b3008 	str	r3, [fp, #-8]
c010140c:	e51b3008 	ldr	r3, [fp, #-8]
c0101410:	e3530004 	cmp	r3, #4
c0101414:	daffffec 	ble	c01013cc <register_lcd+0x1c>
c0101418:	e3e03000 	mvn	r3, #0
c010141c:	e1a00003 	mov	r0, r3
c0101420:	e28bd000 	add	sp, fp, #0
c0101424:	e49db004 	pop	{fp}		; (ldr fp, [sp], #4)
c0101428:	e12fff1e 	bx	lr

c010142c <select_lcd>:
c010142c:	e92d4800 	push	{fp, lr}
c0101430:	e28db004 	add	fp, sp, #4
c0101434:	e24dd010 	sub	sp, sp, #16
c0101438:	e50b0010 	str	r0, [fp, #-16]
c010143c:	e3a03000 	mov	r3, #0
c0101440:	e50b3008 	str	r3, [fp, #-8]
c0101444:	ea00001c 	b	c01014bc <select_lcd+0x90>
c0101448:	e303324c 	movw	r3, #12876	; 0x324c
c010144c:	e34c3010 	movt	r3, #49168	; 0xc010
c0101450:	e51b2008 	ldr	r2, [fp, #-8]
c0101454:	e7933102 	ldr	r3, [r3, r2, lsl #2]
c0101458:	e3530000 	cmp	r3, #0
c010145c:	0a000013 	beq	c01014b0 <select_lcd+0x84>
c0101460:	e303324c 	movw	r3, #12876	; 0x324c
c0101464:	e34c3010 	movt	r3, #49168	; 0xc010
c0101468:	e51b2008 	ldr	r2, [fp, #-8]
c010146c:	e7933102 	ldr	r3, [r3, r2, lsl #2]
c0101470:	e5933000 	ldr	r3, [r3]
c0101474:	e51b1010 	ldr	r1, [fp, #-16]
c0101478:	e1a00003 	mov	r0, r3
c010147c:	ebffff21 	bl	c0101108 <strcmp>
c0101480:	e1a03000 	mov	r3, r0
c0101484:	e3530000 	cmp	r3, #0
c0101488:	1a000008 	bne	c01014b0 <select_lcd+0x84>
c010148c:	e303324c 	movw	r3, #12876	; 0x324c
c0101490:	e34c3010 	movt	r3, #49168	; 0xc010
c0101494:	e51b2008 	ldr	r2, [fp, #-8]
c0101498:	e7932102 	ldr	r2, [r3, r2, lsl #2]
c010149c:	e3033260 	movw	r3, #12896	; 0x3260
c01014a0:	e34c3010 	movt	r3, #49168	; 0xc010
c01014a4:	e5832000 	str	r2, [r3]
c01014a8:	e51b3008 	ldr	r3, [fp, #-8]
c01014ac:	ea000006 	b	c01014cc <select_lcd+0xa0>
c01014b0:	e51b3008 	ldr	r3, [fp, #-8]
c01014b4:	e2833001 	add	r3, r3, #1
c01014b8:	e50b3008 	str	r3, [fp, #-8]
c01014bc:	e51b3008 	ldr	r3, [fp, #-8]
c01014c0:	e3530004 	cmp	r3, #4
c01014c4:	daffffdf 	ble	c0101448 <select_lcd+0x1c>
c01014c8:	e3e03000 	mvn	r3, #0
c01014cc:	e1a00003 	mov	r0, r3
c01014d0:	e24bd004 	sub	sp, fp, #4
c01014d4:	e8bd8800 	pop	{fp, pc}

c01014d8 <get_lcd_params>:
c01014d8:	e52db004 	push	{fp}		; (str fp, [sp, #-4]!)
c01014dc:	e28db000 	add	fp, sp, #0
c01014e0:	e24dd014 	sub	sp, sp, #20
c01014e4:	e50b0008 	str	r0, [fp, #-8]
c01014e8:	e50b100c 	str	r1, [fp, #-12]
c01014ec:	e50b2010 	str	r2, [fp, #-16]
c01014f0:	e50b3014 	str	r3, [fp, #-20]	; 0xffffffec
c01014f4:	e3033260 	movw	r3, #12896	; 0x3260
c01014f8:	e34c3010 	movt	r3, #49168	; 0xc010
c01014fc:	e5933000 	ldr	r3, [r3]
c0101500:	e593203c 	ldr	r2, [r3, #60]	; 0x3c
c0101504:	e51b3008 	ldr	r3, [fp, #-8]
c0101508:	e5832000 	str	r2, [r3]
c010150c:	e3033260 	movw	r3, #12896	; 0x3260
c0101510:	e34c3010 	movt	r3, #49168	; 0xc010
c0101514:	e5933000 	ldr	r3, [r3]
c0101518:	e5932030 	ldr	r2, [r3, #48]	; 0x30
c010151c:	e51b300c 	ldr	r3, [fp, #-12]
c0101520:	e5832000 	str	r2, [r3]
c0101524:	e3033260 	movw	r3, #12896	; 0x3260
c0101528:	e34c3010 	movt	r3, #49168	; 0xc010
c010152c:	e5933000 	ldr	r3, [r3]
c0101530:	e5932034 	ldr	r2, [r3, #52]	; 0x34
c0101534:	e51b3010 	ldr	r3, [fp, #-16]
c0101538:	e5832000 	str	r2, [r3]
c010153c:	e3033260 	movw	r3, #12896	; 0x3260
c0101540:	e34c3010 	movt	r3, #49168	; 0xc010
c0101544:	e5933000 	ldr	r3, [r3]
c0101548:	e5932038 	ldr	r2, [r3, #56]	; 0x38
c010154c:	e51b3014 	ldr	r3, [fp, #-20]	; 0xffffffec
c0101550:	e5832000 	str	r2, [r3]
c0101554:	e320f000 	nop	{0}
c0101558:	e28bd000 	add	sp, fp, #0
c010155c:	e49db004 	pop	{fp}		; (ldr fp, [sp], #4)
c0101560:	e12fff1e 	bx	lr

c0101564 <lcd_enable>:
c0101564:	e92d4800 	push	{fp, lr}
c0101568:	e28db004 	add	fp, sp, #4
c010156c:	ebffff60 	bl	c01012f4 <lcd_controller_enable>
c0101570:	e320f000 	nop	{0}
c0101574:	e8bd8800 	pop	{fp, pc}

c0101578 <lcd_disable>:
c0101578:	e92d4800 	push	{fp, lr}
c010157c:	e28db004 	add	fp, sp, #4
c0101580:	ebffff69 	bl	c010132c <lcd_controller_disable>
c0101584:	e320f000 	nop	{0}
c0101588:	e8bd8800 	pop	{fp, pc}

c010158c <lcd_init>:
c010158c:	e92d4800 	push	{fp, lr}
c0101590:	e28db004 	add	fp, sp, #4
c0101594:	eb00000d 	bl	c01015d0 <lcd_7_0_add>
c0101598:	ebffff71 	bl	c0101364 <lcd_contoller_add>
c010159c:	e3030188 	movw	r0, #12680	; 0x3188
c01015a0:	e34c0010 	movt	r0, #49168	; 0xc010
c01015a4:	ebffff12 	bl	c01011f4 <select_lcd_controller>
c01015a8:	e3030194 	movw	r0, #12692	; 0x3194
c01015ac:	e34c0010 	movt	r0, #49168	; 0xc010
c01015b0:	ebffff9d 	bl	c010142c <select_lcd>
c01015b4:	e3033260 	movw	r3, #12896	; 0x3260
c01015b8:	e34c3010 	movt	r3, #49168	; 0xc010
c01015bc:	e5933000 	ldr	r3, [r3]
c01015c0:	e1a00003 	mov	r0, r3
c01015c4:	ebffff35 	bl	c01012a0 <lcd_controller_init>
c01015c8:	e320f000 	nop	{0}
c01015cc:	e8bd8800 	pop	{fp, pc}

c01015d0 <lcd_7_0_add>:
c01015d0:	e92d4800 	push	{fp, lr}
c01015d4:	e28db004 	add	fp, sp, #4
c01015d8:	e30301b0 	movw	r0, #12720	; 0x31b0
c01015dc:	e34c0010 	movt	r0, #49168	; 0xc010
c01015e0:	ebffff72 	bl	c01013b0 <register_lcd>
c01015e4:	e320f000 	nop	{0}
c01015e8:	e8bd8800 	pop	{fp, pc}

c01015ec <Stm32mp157_clk_init>:
c01015ec:	e52db004 	push	{fp}		; (str fp, [sp, #-4]!)
c01015f0:	e28db000 	add	fp, sp, #0
c01015f4:	e3032268 	movw	r2, #12904	; 0x3268
c01015f8:	e34c2010 	movt	r2, #49168	; 0xc010
c01015fc:	e3003824 	movw	r3, #2084	; 0x824
c0101600:	e3453000 	movt	r3, #20480	; 0x5000
c0101604:	e5823000 	str	r3, [r2]
c0101608:	e303226c 	movw	r2, #12908	; 0x326c
c010160c:	e34c2010 	movt	r2, #49168	; 0xc010
c0101610:	e3003898 	movw	r3, #2200	; 0x898
c0101614:	e3453000 	movt	r3, #20480	; 0x5000
c0101618:	e5823000 	str	r3, [r2]
c010161c:	e3032270 	movw	r2, #12912	; 0x3270
c0101620:	e34c2010 	movt	r2, #49168	; 0xc010
c0101624:	e300389c 	movw	r3, #2204	; 0x89c
c0101628:	e3453000 	movt	r3, #20480	; 0x5000
c010162c:	e5823000 	str	r3, [r2]
c0101630:	e3032274 	movw	r2, #12916	; 0x3274
c0101634:	e34c2010 	movt	r2, #49168	; 0xc010
c0101638:	e3003894 	movw	r3, #2196	; 0x894
c010163c:	e3453000 	movt	r3, #20480	; 0x5000
c0101640:	e5823000 	str	r3, [r2]
c0101644:	e3032278 	movw	r2, #12920	; 0x3278
c0101648:	e34c2010 	movt	r2, #49168	; 0xc010
c010164c:	e3003a28 	movw	r3, #2600	; 0xa28
c0101650:	e3453000 	movt	r3, #20480	; 0x5000
c0101654:	e5823000 	str	r3, [r2]
c0101658:	e303227c 	movw	r2, #12924	; 0x327c
c010165c:	e34c2010 	movt	r2, #49168	; 0xc010
c0101660:	e3a03c02 	mov	r3, #512	; 0x200
c0101664:	e3453000 	movt	r3, #20480	; 0x5000
c0101668:	e5823000 	str	r3, [r2]
c010166c:	e3033268 	movw	r3, #12904	; 0x3268
c0101670:	e34c3010 	movt	r3, #49168	; 0xc010
c0101674:	e5933000 	ldr	r3, [r3]
c0101678:	e5932000 	ldr	r2, [r3]
c010167c:	e3033268 	movw	r3, #12904	; 0x3268
c0101680:	e34c3010 	movt	r3, #49168	; 0xc010
c0101684:	e5933000 	ldr	r3, [r3]
c0101688:	e3c22003 	bic	r2, r2, #3
c010168c:	e5832000 	str	r2, [r3]
c0101690:	e3033268 	movw	r3, #12904	; 0x3268
c0101694:	e34c3010 	movt	r3, #49168	; 0xc010
c0101698:	e5933000 	ldr	r3, [r3]
c010169c:	e5932000 	ldr	r2, [r3]
c01016a0:	e3033268 	movw	r3, #12904	; 0x3268
c01016a4:	e34c3010 	movt	r3, #49168	; 0xc010
c01016a8:	e5933000 	ldr	r3, [r3]
c01016ac:	e3822001 	orr	r2, r2, #1
c01016b0:	e5832000 	str	r2, [r3]
c01016b4:	e303326c 	movw	r3, #12908	; 0x326c
c01016b8:	e34c3010 	movt	r3, #49168	; 0xc010
c01016bc:	e5933000 	ldr	r3, [r3]
c01016c0:	e5932000 	ldr	r2, [r3]
c01016c4:	e303326c 	movw	r3, #12908	; 0x326c
c01016c8:	e34c3010 	movt	r3, #49168	; 0xc010
c01016cc:	e5933000 	ldr	r3, [r3]
c01016d0:	e3c220c7 	bic	r2, r2, #199	; 0xc7
c01016d4:	e5832000 	str	r2, [r3]
c01016d8:	e303326c 	movw	r3, #12908	; 0x326c
c01016dc:	e34c3010 	movt	r3, #49168	; 0xc010
c01016e0:	e5933000 	ldr	r3, [r3]
c01016e4:	e5932000 	ldr	r2, [r3]
c01016e8:	e303326c 	movw	r3, #12908	; 0x326c
c01016ec:	e34c3010 	movt	r3, #49168	; 0xc010
c01016f0:	e5933000 	ldr	r3, [r3]
c01016f4:	e3c2283f 	bic	r2, r2, #4128768	; 0x3f0000
c01016f8:	e5832000 	str	r2, [r3]
c01016fc:	e303326c 	movw	r3, #12908	; 0x326c
c0101700:	e34c3010 	movt	r3, #49168	; 0xc010
c0101704:	e5933000 	ldr	r3, [r3]
c0101708:	e5931000 	ldr	r1, [r3]
c010170c:	e303326c 	movw	r3, #12908	; 0x326c
c0101710:	e34c3010 	movt	r3, #49168	; 0xc010
c0101714:	e5932000 	ldr	r2, [r3]
c0101718:	e3813801 	orr	r3, r1, #65536	; 0x10000
c010171c:	e383303f 	orr	r3, r3, #63	; 0x3f
c0101720:	e5823000 	str	r3, [r2]
c0101724:	e3033270 	movw	r3, #12912	; 0x3270
c0101728:	e34c3010 	movt	r3, #49168	; 0xc010
c010172c:	e5933000 	ldr	r3, [r3]
c0101730:	e5932000 	ldr	r2, [r3]
c0101734:	e3033270 	movw	r3, #12912	; 0x3270
c0101738:	e34c3010 	movt	r3, #49168	; 0xc010
c010173c:	e5933000 	ldr	r3, [r3]
c0101740:	e3c22c7f 	bic	r2, r2, #32512	; 0x7f00
c0101744:	e5832000 	str	r2, [r3]
c0101748:	e3033270 	movw	r3, #12912	; 0x3270
c010174c:	e34c3010 	movt	r3, #49168	; 0xc010
c0101750:	e5933000 	ldr	r3, [r3]
c0101754:	e5932000 	ldr	r2, [r3]
c0101758:	e3033270 	movw	r3, #12912	; 0x3270
c010175c:	e34c3010 	movt	r3, #49168	; 0xc010
c0101760:	e5933000 	ldr	r3, [r3]
c0101764:	e3822c0e 	orr	r2, r2, #3584	; 0xe00
c0101768:	e5832000 	str	r2, [r3]
c010176c:	e3033274 	movw	r3, #12916	; 0x3274
c0101770:	e34c3010 	movt	r3, #49168	; 0xc010
c0101774:	e5933000 	ldr	r3, [r3]
c0101778:	e5932000 	ldr	r2, [r3]
c010177c:	e3033274 	movw	r3, #12916	; 0x3274
c0101780:	e34c3010 	movt	r3, #49168	; 0xc010
c0101784:	e5933000 	ldr	r3, [r3]
c0101788:	e3822001 	orr	r2, r2, #1
c010178c:	e5832000 	str	r2, [r3]
c0101790:	e320f000 	nop	{0}
c0101794:	e3033274 	movw	r3, #12916	; 0x3274
c0101798:	e34c3010 	movt	r3, #49168	; 0xc010
c010179c:	e5933000 	ldr	r3, [r3]
c01017a0:	e5933000 	ldr	r3, [r3]
c01017a4:	e2033002 	and	r3, r3, #2
c01017a8:	e3530000 	cmp	r3, #0
c01017ac:	0afffff8 	beq	c0101794 <Stm32mp157_clk_init+0x1a8>
c01017b0:	e3033274 	movw	r3, #12916	; 0x3274
c01017b4:	e34c3010 	movt	r3, #49168	; 0xc010
c01017b8:	e5933000 	ldr	r3, [r3]
c01017bc:	e5932000 	ldr	r2, [r3]
c01017c0:	e3033274 	movw	r3, #12916	; 0x3274
c01017c4:	e34c3010 	movt	r3, #49168	; 0xc010
c01017c8:	e5933000 	ldr	r3, [r3]
c01017cc:	e3822020 	orr	r2, r2, #32
c01017d0:	e5832000 	str	r2, [r3]
c01017d4:	e3033278 	movw	r3, #12920	; 0x3278
c01017d8:	e34c3010 	movt	r3, #49168	; 0xc010
c01017dc:	e5933000 	ldr	r3, [r3]
c01017e0:	e5932000 	ldr	r2, [r3]
c01017e4:	e3033278 	movw	r3, #12920	; 0x3278
c01017e8:	e34c3010 	movt	r3, #49168	; 0xc010
c01017ec:	e5933000 	ldr	r3, [r3]
c01017f0:	e3822f76 	orr	r2, r2, #472	; 0x1d8
c01017f4:	e5832000 	str	r2, [r3]
c01017f8:	e303327c 	movw	r3, #12924	; 0x327c
c01017fc:	e34c3010 	movt	r3, #49168	; 0xc010
c0101800:	e5933000 	ldr	r3, [r3]
c0101804:	e5932000 	ldr	r2, [r3]
c0101808:	e303327c 	movw	r3, #12924	; 0x327c
c010180c:	e34c3010 	movt	r3, #49168	; 0xc010
c0101810:	e5933000 	ldr	r3, [r3]
c0101814:	e3822001 	orr	r2, r2, #1
c0101818:	e5832000 	str	r2, [r3]
c010181c:	e320f000 	nop	{0}
c0101820:	e28bd000 	add	sp, fp, #0
c0101824:	e49db004 	pop	{fp}		; (ldr fp, [sp], #4)
c0101828:	e12fff1e 	bx	lr

c010182c <Stm32mp157_lcd_io_init>:
c010182c:	e52db004 	push	{fp}		; (str fp, [sp, #-4]!)
c0101830:	e28db000 	add	fp, sp, #0
c0101834:	e3032284 	movw	r2, #12932	; 0x3284
c0101838:	e34c2010 	movt	r2, #49168	; 0xc010
c010183c:	e3a03a05 	mov	r3, #20480	; 0x5000
c0101840:	e3453000 	movt	r3, #20480	; 0x5000
c0101844:	e5823000 	str	r3, [r2]
c0101848:	e3032280 	movw	r2, #12928	; 0x3280
c010184c:	e34c2010 	movt	r2, #49168	; 0xc010
c0101850:	e3053024 	movw	r3, #20516	; 0x5024
c0101854:	e3453000 	movt	r3, #20480	; 0x5000
c0101858:	e5823000 	str	r3, [r2]
c010185c:	e30322bc 	movw	r2, #12988	; 0x32bc
c0101860:	e34c2010 	movt	r2, #49168	; 0xc010
c0101864:	e3053008 	movw	r3, #20488	; 0x5008
c0101868:	e3453000 	movt	r3, #20480	; 0x5000
c010186c:	e5823000 	str	r3, [r2]
c0101870:	e3032290 	movw	r2, #12944	; 0x3290
c0101874:	e34c2010 	movt	r2, #49168	; 0xc010
c0101878:	e3a03a06 	mov	r3, #24576	; 0x6000
c010187c:	e3453000 	movt	r3, #20480	; 0x5000
c0101880:	e5823000 	str	r3, [r2]
c0101884:	e303228c 	movw	r2, #12940	; 0x328c
c0101888:	e34c2010 	movt	r2, #49168	; 0xc010
c010188c:	e3063024 	movw	r3, #24612	; 0x6024
c0101890:	e3453000 	movt	r3, #20480	; 0x5000
c0101894:	e5823000 	str	r3, [r2]
c0101898:	e3032288 	movw	r2, #12936	; 0x3288
c010189c:	e34c2010 	movt	r2, #49168	; 0xc010
c01018a0:	e3063020 	movw	r3, #24608	; 0x6020
c01018a4:	e3453000 	movt	r3, #20480	; 0x5000
c01018a8:	e5823000 	str	r3, [r2]
c01018ac:	e3032294 	movw	r2, #12948	; 0x3294
c01018b0:	e34c2010 	movt	r2, #49168	; 0xc010
c01018b4:	e3063014 	movw	r3, #24596	; 0x6014
c01018b8:	e3453000 	movt	r3, #20480	; 0x5000
c01018bc:	e5823000 	str	r3, [r2]
c01018c0:	e30322c0 	movw	r2, #12992	; 0x32c0
c01018c4:	e34c2010 	movt	r2, #49168	; 0xc010
c01018c8:	e3063008 	movw	r3, #24584	; 0x6008
c01018cc:	e3453000 	movt	r3, #20480	; 0x5000
c01018d0:	e5823000 	str	r3, [r2]
c01018d4:	e30322a0 	movw	r2, #12960	; 0x32a0
c01018d8:	e34c2010 	movt	r2, #49168	; 0xc010
c01018dc:	e3a03902 	mov	r3, #32768	; 0x8000
c01018e0:	e3453000 	movt	r3, #20480	; 0x5000
c01018e4:	e5823000 	str	r3, [r2]
c01018e8:	e3032298 	movw	r2, #12952	; 0x3298
c01018ec:	e34c2010 	movt	r2, #49168	; 0xc010
c01018f0:	e3083024 	movw	r3, #32804	; 0x8024
c01018f4:	e3453000 	movt	r3, #20480	; 0x5000
c01018f8:	e5823000 	str	r3, [r2]
c01018fc:	e303229c 	movw	r2, #12956	; 0x329c
c0101900:	e34c2010 	movt	r2, #49168	; 0xc010
c0101904:	e3083020 	movw	r3, #32800	; 0x8020
c0101908:	e3453000 	movt	r3, #20480	; 0x5000
c010190c:	e5823000 	str	r3, [r2]
c0101910:	e30322c4 	movw	r2, #12996	; 0x32c4
c0101914:	e34c2010 	movt	r2, #49168	; 0xc010
c0101918:	e3083008 	movw	r3, #32776	; 0x8008
c010191c:	e3453000 	movt	r3, #20480	; 0x5000
c0101920:	e5823000 	str	r3, [r2]
c0101924:	e30322ac 	movw	r2, #12972	; 0x32ac
c0101928:	e34c2010 	movt	r2, #49168	; 0xc010
c010192c:	e3a03a09 	mov	r3, #36864	; 0x9000
c0101930:	e3453000 	movt	r3, #20480	; 0x5000
c0101934:	e5823000 	str	r3, [r2]
c0101938:	e30322a8 	movw	r2, #12968	; 0x32a8
c010193c:	e34c2010 	movt	r2, #49168	; 0xc010
c0101940:	e3093024 	movw	r3, #36900	; 0x9024
c0101944:	e3453000 	movt	r3, #20480	; 0x5000
c0101948:	e5823000 	str	r3, [r2]
c010194c:	e30322a4 	movw	r2, #12964	; 0x32a4
c0101950:	e34c2010 	movt	r2, #49168	; 0xc010
c0101954:	e3093020 	movw	r3, #36896	; 0x9020
c0101958:	e3453000 	movt	r3, #20480	; 0x5000
c010195c:	e5823000 	str	r3, [r2]
c0101960:	e30322c8 	movw	r2, #13000	; 0x32c8
c0101964:	e34c2010 	movt	r2, #49168	; 0xc010
c0101968:	e3093008 	movw	r3, #36872	; 0x9008
c010196c:	e3453000 	movt	r3, #20480	; 0x5000
c0101970:	e5823000 	str	r3, [r2]
c0101974:	e30322b8 	movw	r2, #12984	; 0x32b8
c0101978:	e34c2010 	movt	r2, #49168	; 0xc010
c010197c:	e3a03a0a 	mov	r3, #40960	; 0xa000
c0101980:	e3453000 	movt	r3, #20480	; 0x5000
c0101984:	e5823000 	str	r3, [r2]
c0101988:	e30322b4 	movw	r2, #12980	; 0x32b4
c010198c:	e34c2010 	movt	r2, #49168	; 0xc010
c0101990:	e30a3024 	movw	r3, #40996	; 0xa024
c0101994:	e3453000 	movt	r3, #20480	; 0x5000
c0101998:	e5823000 	str	r3, [r2]
c010199c:	e30322b0 	movw	r2, #12976	; 0x32b0
c01019a0:	e34c2010 	movt	r2, #49168	; 0xc010
c01019a4:	e30a3020 	movw	r3, #40992	; 0xa020
c01019a8:	e3453000 	movt	r3, #20480	; 0x5000
c01019ac:	e5823000 	str	r3, [r2]
c01019b0:	e30322cc 	movw	r2, #13004	; 0x32cc
c01019b4:	e34c2010 	movt	r2, #49168	; 0xc010
c01019b8:	e30a3008 	movw	r3, #40968	; 0xa008
c01019bc:	e3453000 	movt	r3, #20480	; 0x5000
c01019c0:	e5823000 	str	r3, [r2]
c01019c4:	e30332bc 	movw	r3, #12988	; 0x32bc
c01019c8:	e34c3010 	movt	r3, #49168	; 0xc010
c01019cc:	e5933000 	ldr	r3, [r3]
c01019d0:	e3e02000 	mvn	r2, #0
c01019d4:	e5832000 	str	r2, [r3]
c01019d8:	e30332c0 	movw	r3, #12992	; 0x32c0
c01019dc:	e34c3010 	movt	r3, #49168	; 0xc010
c01019e0:	e5933000 	ldr	r3, [r3]
c01019e4:	e3e02000 	mvn	r2, #0
c01019e8:	e5832000 	str	r2, [r3]
c01019ec:	e30332c4 	movw	r3, #12996	; 0x32c4
c01019f0:	e34c3010 	movt	r3, #49168	; 0xc010
c01019f4:	e5933000 	ldr	r3, [r3]
c01019f8:	e3e02000 	mvn	r2, #0
c01019fc:	e5832000 	str	r2, [r3]
c0101a00:	e30332c8 	movw	r3, #13000	; 0x32c8
c0101a04:	e34c3010 	movt	r3, #49168	; 0xc010
c0101a08:	e5933000 	ldr	r3, [r3]
c0101a0c:	e3e02000 	mvn	r2, #0
c0101a10:	e5832000 	str	r2, [r3]
c0101a14:	e30332cc 	movw	r3, #13004	; 0x32cc
c0101a18:	e34c3010 	movt	r3, #49168	; 0xc010
c0101a1c:	e5933000 	ldr	r3, [r3]
c0101a20:	e3e02000 	mvn	r2, #0
c0101a24:	e5832000 	str	r2, [r3]
c0101a28:	e3033284 	movw	r3, #12932	; 0x3284
c0101a2c:	e34c3010 	movt	r3, #49168	; 0xc010
c0101a30:	e5933000 	ldr	r3, [r3]
c0101a34:	e3a02602 	mov	r2, #2097152	; 0x200000
c0101a38:	e5832000 	str	r2, [r3]
c0101a3c:	e3033280 	movw	r3, #12928	; 0x3280
c0101a40:	e34c3010 	movt	r3, #49168	; 0xc010
c0101a44:	e5933000 	ldr	r3, [r3]
c0101a48:	e3a02c0e 	mov	r2, #3584	; 0xe00
c0101a4c:	e5832000 	str	r2, [r3]
c0101a50:	e3033290 	movw	r3, #12944	; 0x3290
c0101a54:	e34c3010 	movt	r3, #49168	; 0xc010
c0101a58:	e5932000 	ldr	r2, [r3]
c0101a5c:	e3a03a02 	mov	r3, #8192	; 0x2000
c0101a60:	e34a3800 	movt	r3, #43008	; 0xa800
c0101a64:	e5823000 	str	r3, [r2]
c0101a68:	e303328c 	movw	r3, #12940	; 0x328c
c0101a6c:	e34c3010 	movt	r3, #49168	; 0xc010
c0101a70:	e5932000 	ldr	r2, [r3]
c0101a74:	e3a03000 	mov	r3, #0
c0101a78:	e34e3ee0 	movt	r3, #61152	; 0xeee0
c0101a7c:	e5823000 	str	r3, [r2]
c0101a80:	e3033288 	movw	r3, #12936	; 0x3288
c0101a84:	e34c3010 	movt	r3, #49168	; 0xc010
c0101a88:	e5933000 	ldr	r3, [r3]
c0101a8c:	e3a0240e 	mov	r2, #234881024	; 0xe000000
c0101a90:	e5832000 	str	r2, [r3]
c0101a94:	e30332a0 	movw	r3, #12960	; 0x32a0
c0101a98:	e34c3010 	movt	r3, #49168	; 0xc010
c0101a9c:	e5932000 	ldr	r2, [r3]
c0101aa0:	e3a03902 	mov	r3, #32768	; 0x8000
c0101aa4:	e3403220 	movt	r3, #544	; 0x220
c0101aa8:	e5823000 	str	r3, [r2]
c0101aac:	e3033298 	movw	r3, #12952	; 0x3298
c0101ab0:	e34c3010 	movt	r3, #49168	; 0xc010
c0101ab4:	e5932000 	ldr	r2, [r3]
c0101ab8:	e3a03c0e 	mov	r3, #3584	; 0xe00
c0101abc:	e340300e 	movt	r3, #14
c0101ac0:	e5823000 	str	r3, [r2]
c0101ac4:	e303329c 	movw	r3, #12956	; 0x329c
c0101ac8:	e34c3010 	movt	r3, #49168	; 0xc010
c0101acc:	e5933000 	ldr	r3, [r3]
c0101ad0:	e3a0220e 	mov	r2, #-536870912	; 0xe0000000
c0101ad4:	e5832000 	str	r2, [r3]
c0101ad8:	e30332ac 	movw	r3, #12972	; 0x32ac
c0101adc:	e34c3010 	movt	r3, #49168	; 0xc010
c0101ae0:	e5932000 	ldr	r2, [r3]
c0101ae4:	e3a030a0 	mov	r3, #160	; 0xa0
c0101ae8:	e34a3aaa 	movt	r3, #43690	; 0xaaaa
c0101aec:	e5823000 	str	r3, [r2]
c0101af0:	e30332a8 	movw	r3, #12968	; 0x32a8
c0101af4:	e34c3010 	movt	r3, #49168	; 0xc010
c0101af8:	e5932000 	ldr	r2, [r3]
c0101afc:	e30e3eee 	movw	r3, #61166	; 0xeeee
c0101b00:	e34e3eee 	movt	r3, #61166	; 0xeeee
c0101b04:	e5823000 	str	r3, [r2]
c0101b08:	e30332a4 	movw	r3, #12964	; 0x32a4
c0101b0c:	e34c3010 	movt	r3, #49168	; 0xc010
c0101b10:	e5933000 	ldr	r3, [r3]
c0101b14:	e3a02cee 	mov	r2, #60928	; 0xee00
c0101b18:	e5832000 	str	r2, [r3]
c0101b1c:	e30332b8 	movw	r3, #12984	; 0x32b8
c0101b20:	e34c3010 	movt	r3, #49168	; 0xc010
c0101b24:	e5932000 	ldr	r2, [r3]
c0101b28:	e30a3a2a 	movw	r3, #43562	; 0xaa2a
c0101b2c:	e3403028 	movt	r3, #40	; 0x28
c0101b30:	e5823000 	str	r3, [r2]
c0101b34:	e30332b4 	movw	r3, #12980	; 0x32b4
c0101b38:	e34c3010 	movt	r3, #49168	; 0xc010
c0101b3c:	e5933000 	ldr	r3, [r3]
c0101b40:	e3a02eee 	mov	r2, #3808	; 0xee0
c0101b44:	e5832000 	str	r2, [r3]
c0101b48:	e30332b0 	movw	r3, #12976	; 0x32b0
c0101b4c:	e34c3010 	movt	r3, #49168	; 0xc010
c0101b50:	e5932000 	ldr	r2, [r3]
c0101b54:	e3003eee 	movw	r3, #3822	; 0xeee
c0101b58:	e34e3eee 	movt	r3, #61166	; 0xeeee
c0101b5c:	e5823000 	str	r3, [r2]
c0101b60:	e3033290 	movw	r3, #12944	; 0x3290
c0101b64:	e34c3010 	movt	r3, #49168	; 0xc010
c0101b68:	e5933000 	ldr	r3, [r3]
c0101b6c:	e5932000 	ldr	r2, [r3]
c0101b70:	e3033290 	movw	r3, #12944	; 0x3290
c0101b74:	e34c3010 	movt	r3, #49168	; 0xc010
c0101b78:	e5933000 	ldr	r3, [r3]
c0101b7c:	e3c22503 	bic	r2, r2, #12582912	; 0xc00000
c0101b80:	e5832000 	str	r2, [r3]
c0101b84:	e3033290 	movw	r3, #12944	; 0x3290
c0101b88:	e34c3010 	movt	r3, #49168	; 0xc010
c0101b8c:	e5933000 	ldr	r3, [r3]
c0101b90:	e5932000 	ldr	r2, [r3]
c0101b94:	e3033290 	movw	r3, #12944	; 0x3290
c0101b98:	e34c3010 	movt	r3, #49168	; 0xc010
c0101b9c:	e5933000 	ldr	r3, [r3]
c0101ba0:	e3822501 	orr	r2, r2, #4194304	; 0x400000
c0101ba4:	e5832000 	str	r2, [r3]
c0101ba8:	e320f000 	nop	{0}
c0101bac:	e28bd000 	add	sp, fp, #0
c0101bb0:	e49db004 	pop	{fp}		; (ldr fp, [sp], #4)
c0101bb4:	e12fff1e 	bx	lr

c0101bb8 <Stm32mp157_lcd_controller_init>:
c0101bb8:	e92d4800 	push	{fp, lr}
c0101bbc:	e28db004 	add	fp, sp, #4
c0101bc0:	e24dd010 	sub	sp, sp, #16
c0101bc4:	e50b0010 	str	r0, [fp, #-16]
c0101bc8:	ebfffe87 	bl	c01015ec <Stm32mp157_clk_init>
c0101bcc:	ebffff16 	bl	c010182c <Stm32mp157_lcd_io_init>
c0101bd0:	e51b3010 	ldr	r3, [fp, #-16]
c0101bd4:	e5932014 	ldr	r2, [r3, #20]
c0101bd8:	e51b3010 	ldr	r3, [fp, #-16]
c0101bdc:	e5933020 	ldr	r3, [r3, #32]
c0101be0:	e1a03803 	lsl	r3, r3, #16
c0101be4:	e1822003 	orr	r2, r2, r3
c0101be8:	e3a03a01 	mov	r3, #4096	; 0x1000
c0101bec:	e3453a00 	movt	r3, #23040	; 0x5a00
c0101bf0:	e5832008 	str	r2, [r3, #8]
c0101bf4:	e3a03a01 	mov	r3, #4096	; 0x1000
c0101bf8:	e3453a00 	movt	r3, #23040	; 0x5a00
c0101bfc:	e3a02000 	mov	r2, #0
c0101c00:	e583200c 	str	r2, [r3, #12]
c0101c04:	e3a03a01 	mov	r3, #4096	; 0x1000
c0101c08:	e3453a00 	movt	r3, #23040	; 0x5a00
c0101c0c:	e593200c 	ldr	r2, [r3, #12]
c0101c10:	e51b3010 	ldr	r3, [fp, #-16]
c0101c14:	e5931014 	ldr	r1, [r3, #20]
c0101c18:	e51b3010 	ldr	r3, [fp, #-16]
c0101c1c:	e5933018 	ldr	r3, [r3, #24]
c0101c20:	e0813003 	add	r3, r1, r3
c0101c24:	e2433001 	sub	r3, r3, #1
c0101c28:	e1a01003 	mov	r1, r3
c0101c2c:	e3a03a01 	mov	r3, #4096	; 0x1000
c0101c30:	e3453a00 	movt	r3, #23040	; 0x5a00
c0101c34:	e1822001 	orr	r2, r2, r1
c0101c38:	e583200c 	str	r2, [r3, #12]
c0101c3c:	e3a03a01 	mov	r3, #4096	; 0x1000
c0101c40:	e3453a00 	movt	r3, #23040	; 0x5a00
c0101c44:	e593200c 	ldr	r2, [r3, #12]
c0101c48:	e51b3010 	ldr	r3, [fp, #-16]
c0101c4c:	e5931020 	ldr	r1, [r3, #32]
c0101c50:	e51b3010 	ldr	r3, [fp, #-16]
c0101c54:	e5933024 	ldr	r3, [r3, #36]	; 0x24
c0101c58:	e0813003 	add	r3, r1, r3
c0101c5c:	e2433001 	sub	r3, r3, #1
c0101c60:	e1a03803 	lsl	r3, r3, #16
c0101c64:	e1a01003 	mov	r1, r3
c0101c68:	e3a03a01 	mov	r3, #4096	; 0x1000
c0101c6c:	e3453a00 	movt	r3, #23040	; 0x5a00
c0101c70:	e1822001 	orr	r2, r2, r1
c0101c74:	e583200c 	str	r2, [r3, #12]
c0101c78:	e3a03a01 	mov	r3, #4096	; 0x1000
c0101c7c:	e3453a00 	movt	r3, #23040	; 0x5a00
c0101c80:	e3a02000 	mov	r2, #0
c0101c84:	e5832010 	str	r2, [r3, #16]
c0101c88:	e3a03a01 	mov	r3, #4096	; 0x1000
c0101c8c:	e3453a00 	movt	r3, #23040	; 0x5a00
c0101c90:	e5932010 	ldr	r2, [r3, #16]
c0101c94:	e51b3010 	ldr	r3, [fp, #-16]
c0101c98:	e5931014 	ldr	r1, [r3, #20]
c0101c9c:	e51b3010 	ldr	r3, [fp, #-16]
c0101ca0:	e5933018 	ldr	r3, [r3, #24]
c0101ca4:	e0811003 	add	r1, r1, r3
c0101ca8:	e51b3010 	ldr	r3, [fp, #-16]
c0101cac:	e5933034 	ldr	r3, [r3, #52]	; 0x34
c0101cb0:	e0813003 	add	r3, r1, r3
c0101cb4:	e2433001 	sub	r3, r3, #1
c0101cb8:	e1a01003 	mov	r1, r3
c0101cbc:	e3a03a01 	mov	r3, #4096	; 0x1000
c0101cc0:	e3453a00 	movt	r3, #23040	; 0x5a00
c0101cc4:	e1822001 	orr	r2, r2, r1
c0101cc8:	e5832010 	str	r2, [r3, #16]
c0101ccc:	e3a03a01 	mov	r3, #4096	; 0x1000
c0101cd0:	e3453a00 	movt	r3, #23040	; 0x5a00
c0101cd4:	e5932010 	ldr	r2, [r3, #16]
c0101cd8:	e51b3010 	ldr	r3, [fp, #-16]
c0101cdc:	e5931020 	ldr	r1, [r3, #32]
c0101ce0:	e51b3010 	ldr	r3, [fp, #-16]
c0101ce4:	e5933024 	ldr	r3, [r3, #36]	; 0x24
c0101ce8:	e0811003 	add	r1, r1, r3
c0101cec:	e51b3010 	ldr	r3, [fp, #-16]
c0101cf0:	e5933030 	ldr	r3, [r3, #48]	; 0x30
c0101cf4:	e0813003 	add	r3, r1, r3
c0101cf8:	e2433001 	sub	r3, r3, #1
c0101cfc:	e1a03803 	lsl	r3, r3, #16
c0101d00:	e1a01003 	mov	r1, r3
c0101d04:	e3a03a01 	mov	r3, #4096	; 0x1000
c0101d08:	e3453a00 	movt	r3, #23040	; 0x5a00
c0101d0c:	e1822001 	orr	r2, r2, r1
c0101d10:	e5832010 	str	r2, [r3, #16]
c0101d14:	e3a03a01 	mov	r3, #4096	; 0x1000
c0101d18:	e3453a00 	movt	r3, #23040	; 0x5a00
c0101d1c:	e3a02000 	mov	r2, #0
c0101d20:	e5832014 	str	r2, [r3, #20]
c0101d24:	e3a03a01 	mov	r3, #4096	; 0x1000
c0101d28:	e3453a00 	movt	r3, #23040	; 0x5a00
c0101d2c:	e5932014 	ldr	r2, [r3, #20]
c0101d30:	e51b3010 	ldr	r3, [fp, #-16]
c0101d34:	e5931014 	ldr	r1, [r3, #20]
c0101d38:	e51b3010 	ldr	r3, [fp, #-16]
c0101d3c:	e5933018 	ldr	r3, [r3, #24]
c0101d40:	e0811003 	add	r1, r1, r3
c0101d44:	e51b3010 	ldr	r3, [fp, #-16]
c0101d48:	e5933034 	ldr	r3, [r3, #52]	; 0x34
c0101d4c:	e0811003 	add	r1, r1, r3
c0101d50:	e51b3010 	ldr	r3, [fp, #-16]
c0101d54:	e593301c 	ldr	r3, [r3, #28]
c0101d58:	e0813003 	add	r3, r1, r3
c0101d5c:	e2433001 	sub	r3, r3, #1
c0101d60:	e1a01003 	mov	r1, r3
c0101d64:	e3a03a01 	mov	r3, #4096	; 0x1000
c0101d68:	e3453a00 	movt	r3, #23040	; 0x5a00
c0101d6c:	e1822001 	orr	r2, r2, r1
c0101d70:	e5832014 	str	r2, [r3, #20]
c0101d74:	e3a03a01 	mov	r3, #4096	; 0x1000
c0101d78:	e3453a00 	movt	r3, #23040	; 0x5a00
c0101d7c:	e5932014 	ldr	r2, [r3, #20]
c0101d80:	e51b3010 	ldr	r3, [fp, #-16]
c0101d84:	e5931020 	ldr	r1, [r3, #32]
c0101d88:	e51b3010 	ldr	r3, [fp, #-16]
c0101d8c:	e5933024 	ldr	r3, [r3, #36]	; 0x24
c0101d90:	e0811003 	add	r1, r1, r3
c0101d94:	e51b3010 	ldr	r3, [fp, #-16]
c0101d98:	e5933030 	ldr	r3, [r3, #48]	; 0x30
c0101d9c:	e0811003 	add	r1, r1, r3
c0101da0:	e51b3010 	ldr	r3, [fp, #-16]
c0101da4:	e5933028 	ldr	r3, [r3, #40]	; 0x28
c0101da8:	e0813003 	add	r3, r1, r3
c0101dac:	e2433001 	sub	r3, r3, #1
c0101db0:	e1a03803 	lsl	r3, r3, #16
c0101db4:	e1a01003 	mov	r1, r3
c0101db8:	e3a03a01 	mov	r3, #4096	; 0x1000
c0101dbc:	e3453a00 	movt	r3, #23040	; 0x5a00
c0101dc0:	e1822001 	orr	r2, r2, r1
c0101dc4:	e5832014 	str	r2, [r3, #20]
c0101dc8:	e3a03a01 	mov	r3, #4096	; 0x1000
c0101dcc:	e3453a00 	movt	r3, #23040	; 0x5a00
c0101dd0:	e5932018 	ldr	r2, [r3, #24]
c0101dd4:	e3a03a01 	mov	r3, #4096	; 0x1000
c0101dd8:	e3453a00 	movt	r3, #23040	; 0x5a00
c0101ddc:	e3c2220f 	bic	r2, r2, #-268435456	; 0xf0000000
c0101de0:	e5832018 	str	r2, [r3, #24]
c0101de4:	e3a03a01 	mov	r3, #4096	; 0x1000
c0101de8:	e3453a00 	movt	r3, #23040	; 0x5a00
c0101dec:	e5932018 	ldr	r2, [r3, #24]
c0101df0:	e51b3010 	ldr	r3, [fp, #-16]
c0101df4:	e5933008 	ldr	r3, [r3, #8]
c0101df8:	e1a03e03 	lsl	r3, r3, #28
c0101dfc:	e1a01003 	mov	r1, r3
c0101e00:	e3a03a01 	mov	r3, #4096	; 0x1000
c0101e04:	e3453a00 	movt	r3, #23040	; 0x5a00
c0101e08:	e1822001 	orr	r2, r2, r1
c0101e0c:	e5832018 	str	r2, [r3, #24]
c0101e10:	e3a03a01 	mov	r3, #4096	; 0x1000
c0101e14:	e3453a00 	movt	r3, #23040	; 0x5a00
c0101e18:	e5932018 	ldr	r2, [r3, #24]
c0101e1c:	e51b3010 	ldr	r3, [fp, #-16]
c0101e20:	e5933004 	ldr	r3, [r3, #4]
c0101e24:	e1a03e83 	lsl	r3, r3, #29
c0101e28:	e1a01003 	mov	r1, r3
c0101e2c:	e3a03a01 	mov	r3, #4096	; 0x1000
c0101e30:	e3453a00 	movt	r3, #23040	; 0x5a00
c0101e34:	e1822001 	orr	r2, r2, r1
c0101e38:	e5832018 	str	r2, [r3, #24]
c0101e3c:	e3a03a01 	mov	r3, #4096	; 0x1000
c0101e40:	e3453a00 	movt	r3, #23040	; 0x5a00
c0101e44:	e5932018 	ldr	r2, [r3, #24]
c0101e48:	e51b3010 	ldr	r3, [fp, #-16]
c0101e4c:	e5933010 	ldr	r3, [r3, #16]
c0101e50:	e1a03f03 	lsl	r3, r3, #30
c0101e54:	e1a01003 	mov	r1, r3
c0101e58:	e3a03a01 	mov	r3, #4096	; 0x1000
c0101e5c:	e3453a00 	movt	r3, #23040	; 0x5a00
c0101e60:	e1822001 	orr	r2, r2, r1
c0101e64:	e5832018 	str	r2, [r3, #24]
c0101e68:	e3a03a01 	mov	r3, #4096	; 0x1000
c0101e6c:	e3453a00 	movt	r3, #23040	; 0x5a00
c0101e70:	e5932018 	ldr	r2, [r3, #24]
c0101e74:	e51b3010 	ldr	r3, [fp, #-16]
c0101e78:	e593300c 	ldr	r3, [r3, #12]
c0101e7c:	e1a03f83 	lsl	r3, r3, #31
c0101e80:	e1a01003 	mov	r1, r3
c0101e84:	e3a03a01 	mov	r3, #4096	; 0x1000
c0101e88:	e3453a00 	movt	r3, #23040	; 0x5a00
c0101e8c:	e1822001 	orr	r2, r2, r1
c0101e90:	e5832018 	str	r2, [r3, #24]
c0101e94:	e3a03a01 	mov	r3, #4096	; 0x1000
c0101e98:	e3453a00 	movt	r3, #23040	; 0x5a00
c0101e9c:	e5932088 	ldr	r2, [r3, #136]	; 0x88
c0101ea0:	e51b3010 	ldr	r3, [fp, #-16]
c0101ea4:	e5931020 	ldr	r1, [r3, #32]
c0101ea8:	e51b3010 	ldr	r3, [fp, #-16]
c0101eac:	e5933024 	ldr	r3, [r3, #36]	; 0x24
c0101eb0:	e0811003 	add	r1, r1, r3
c0101eb4:	e51b3010 	ldr	r3, [fp, #-16]
c0101eb8:	e5933030 	ldr	r3, [r3, #48]	; 0x30
c0101ebc:	e0813003 	add	r3, r1, r3
c0101ec0:	e2433001 	sub	r3, r3, #1
c0101ec4:	e1a01803 	lsl	r1, r3, #16
c0101ec8:	e51b3010 	ldr	r3, [fp, #-16]
c0101ecc:	e5930020 	ldr	r0, [r3, #32]
c0101ed0:	e51b3010 	ldr	r3, [fp, #-16]
c0101ed4:	e5933024 	ldr	r3, [r3, #36]	; 0x24
c0101ed8:	e0803003 	add	r3, r0, r3
c0101edc:	e1813003 	orr	r3, r1, r3
c0101ee0:	e1a01003 	mov	r1, r3
c0101ee4:	e3a03a01 	mov	r3, #4096	; 0x1000
c0101ee8:	e3453a00 	movt	r3, #23040	; 0x5a00
c0101eec:	e1822001 	orr	r2, r2, r1
c0101ef0:	e5832088 	str	r2, [r3, #136]	; 0x88
c0101ef4:	e3a03a01 	mov	r3, #4096	; 0x1000
c0101ef8:	e3453a00 	movt	r3, #23040	; 0x5a00
c0101efc:	e593208c 	ldr	r2, [r3, #140]	; 0x8c
c0101f00:	e51b3010 	ldr	r3, [fp, #-16]
c0101f04:	e5931014 	ldr	r1, [r3, #20]
c0101f08:	e51b3010 	ldr	r3, [fp, #-16]
c0101f0c:	e5933018 	ldr	r3, [r3, #24]
c0101f10:	e0811003 	add	r1, r1, r3
c0101f14:	e51b3010 	ldr	r3, [fp, #-16]
c0101f18:	e5933034 	ldr	r3, [r3, #52]	; 0x34
c0101f1c:	e0813003 	add	r3, r1, r3
c0101f20:	e2433001 	sub	r3, r3, #1
c0101f24:	e1a01803 	lsl	r1, r3, #16
c0101f28:	e51b3010 	ldr	r3, [fp, #-16]
c0101f2c:	e5930014 	ldr	r0, [r3, #20]
c0101f30:	e51b3010 	ldr	r3, [fp, #-16]
c0101f34:	e5933018 	ldr	r3, [r3, #24]
c0101f38:	e0803003 	add	r3, r0, r3
c0101f3c:	e1813003 	orr	r3, r1, r3
c0101f40:	e1a01003 	mov	r1, r3
c0101f44:	e3a03a01 	mov	r3, #4096	; 0x1000
c0101f48:	e3453a00 	movt	r3, #23040	; 0x5a00
c0101f4c:	e1822001 	orr	r2, r2, r1
c0101f50:	e583208c 	str	r2, [r3, #140]	; 0x8c
c0101f54:	e51b3010 	ldr	r3, [fp, #-16]
c0101f58:	e5933030 	ldr	r3, [r3, #48]	; 0x30
c0101f5c:	e51b2010 	ldr	r2, [fp, #-16]
c0101f60:	e5922038 	ldr	r2, [r2, #56]	; 0x38
c0101f64:	e1a021c2 	asr	r2, r2, #3
c0101f68:	e0030392 	mul	r3, r2, r3
c0101f6c:	e2832007 	add	r2, r3, #7
c0101f70:	e51b3010 	ldr	r3, [fp, #-16]
c0101f74:	e5933030 	ldr	r3, [r3, #48]	; 0x30
c0101f78:	e51b1010 	ldr	r1, [fp, #-16]
c0101f7c:	e5911038 	ldr	r1, [r1, #56]	; 0x38
c0101f80:	e1a011c1 	asr	r1, r1, #3
c0101f84:	e0030391 	mul	r3, r1, r3
c0101f88:	e1a03803 	lsl	r3, r3, #16
c0101f8c:	e1822003 	orr	r2, r2, r3
c0101f90:	e3a03a01 	mov	r3, #4096	; 0x1000
c0101f94:	e3453a00 	movt	r3, #23040	; 0x5a00
c0101f98:	e58320b0 	str	r2, [r3, #176]	; 0xb0
c0101f9c:	e51b3010 	ldr	r3, [fp, #-16]
c0101fa0:	e5932034 	ldr	r2, [r3, #52]	; 0x34
c0101fa4:	e3a03a01 	mov	r3, #4096	; 0x1000
c0101fa8:	e3453a00 	movt	r3, #23040	; 0x5a00
c0101fac:	e58320b4 	str	r2, [r3, #180]	; 0xb4
c0101fb0:	e3a03a01 	mov	r3, #4096	; 0x1000
c0101fb4:	e3453a00 	movt	r3, #23040	; 0x5a00
c0101fb8:	e3a020ff 	mov	r2, #255	; 0xff
c0101fbc:	e5832098 	str	r2, [r3, #152]	; 0x98
c0101fc0:	e3a03a01 	mov	r3, #4096	; 0x1000
c0101fc4:	e3453a00 	movt	r3, #23040	; 0x5a00
c0101fc8:	e3002405 	movw	r2, #1029	; 0x405
c0101fcc:	e58320a0 	str	r2, [r3, #160]	; 0xa0
c0101fd0:	e51b3010 	ldr	r3, [fp, #-16]
c0101fd4:	e5933038 	ldr	r3, [r3, #56]	; 0x38
c0101fd8:	e3530010 	cmp	r3, #16
c0101fdc:	0a000002 	beq	c0101fec <Stm32mp157_lcd_controller_init+0x434>
c0101fe0:	e3530020 	cmp	r3, #32
c0101fe4:	0a000003 	beq	c0101ff8 <Stm32mp157_lcd_controller_init+0x440>
c0101fe8:	ea000005 	b	c0102004 <Stm32mp157_lcd_controller_init+0x44c>
c0101fec:	e3a03002 	mov	r3, #2
c0101ff0:	e50b3008 	str	r3, [fp, #-8]
c0101ff4:	ea000005 	b	c0102010 <Stm32mp157_lcd_controller_init+0x458>
c0101ff8:	e3a03000 	mov	r3, #0
c0101ffc:	e50b3008 	str	r3, [fp, #-8]
c0102000:	ea000002 	b	c0102010 <Stm32mp157_lcd_controller_init+0x458>
c0102004:	e3a03000 	mov	r3, #0
c0102008:	e50b3008 	str	r3, [fp, #-8]
c010200c:	e320f000 	nop	{0}
c0102010:	e3a03a01 	mov	r3, #4096	; 0x1000
c0102014:	e3453a00 	movt	r3, #23040	; 0x5a00
c0102018:	e3a02000 	mov	r2, #0
c010201c:	e5832094 	str	r2, [r3, #148]	; 0x94
c0102020:	e3a03a01 	mov	r3, #4096	; 0x1000
c0102024:	e3453a00 	movt	r3, #23040	; 0x5a00
c0102028:	e5931094 	ldr	r1, [r3, #148]	; 0x94
c010202c:	e51b2008 	ldr	r2, [fp, #-8]
c0102030:	e3a03a01 	mov	r3, #4096	; 0x1000
c0102034:	e3453a00 	movt	r3, #23040	; 0x5a00
c0102038:	e1812002 	orr	r2, r1, r2
c010203c:	e5832094 	str	r2, [r3, #148]	; 0x94
c0102040:	e3a03a01 	mov	r3, #4096	; 0x1000
c0102044:	e3453a00 	movt	r3, #23040	; 0x5a00
c0102048:	e51b2010 	ldr	r2, [fp, #-16]
c010204c:	e592203c 	ldr	r2, [r2, #60]	; 0x3c
c0102050:	e58320ac 	str	r2, [r3, #172]	; 0xac
c0102054:	e3a03a01 	mov	r3, #4096	; 0x1000
c0102058:	e3453a00 	movt	r3, #23040	; 0x5a00
c010205c:	e5932084 	ldr	r2, [r3, #132]	; 0x84
c0102060:	e3a03a01 	mov	r3, #4096	; 0x1000
c0102064:	e3453a00 	movt	r3, #23040	; 0x5a00
c0102068:	e3822001 	orr	r2, r2, #1
c010206c:	e5832084 	str	r2, [r3, #132]	; 0x84
c0102070:	e320f000 	nop	{0}
c0102074:	e24bd004 	sub	sp, fp, #4
c0102078:	e8bd8800 	pop	{fp, pc}

c010207c <Stm32mp157_lcd_controller_enable>:
c010207c:	e52db004 	push	{fp}		; (str fp, [sp, #-4]!)
c0102080:	e28db000 	add	fp, sp, #0
c0102084:	e3a03a01 	mov	r3, #4096	; 0x1000
c0102088:	e3453a00 	movt	r3, #23040	; 0x5a00
c010208c:	e5932024 	ldr	r2, [r3, #36]	; 0x24
c0102090:	e3a03a01 	mov	r3, #4096	; 0x1000
c0102094:	e3453a00 	movt	r3, #23040	; 0x5a00
c0102098:	e3822001 	orr	r2, r2, #1
c010209c:	e5832024 	str	r2, [r3, #36]	; 0x24
c01020a0:	e3a03a01 	mov	r3, #4096	; 0x1000
c01020a4:	e3453a00 	movt	r3, #23040	; 0x5a00
c01020a8:	e5932018 	ldr	r2, [r3, #24]
c01020ac:	e3a03a01 	mov	r3, #4096	; 0x1000
c01020b0:	e3453a00 	movt	r3, #23040	; 0x5a00
c01020b4:	e3822001 	orr	r2, r2, #1
c01020b8:	e5832018 	str	r2, [r3, #24]
c01020bc:	e3033294 	movw	r3, #12948	; 0x3294
c01020c0:	e34c3010 	movt	r3, #49168	; 0xc010
c01020c4:	e5933000 	ldr	r3, [r3]
c01020c8:	e5932000 	ldr	r2, [r3]
c01020cc:	e3033294 	movw	r3, #12948	; 0x3294
c01020d0:	e34c3010 	movt	r3, #49168	; 0xc010
c01020d4:	e5933000 	ldr	r3, [r3]
c01020d8:	e3822b02 	orr	r2, r2, #2048	; 0x800
c01020dc:	e5832000 	str	r2, [r3]
c01020e0:	e320f000 	nop	{0}
c01020e4:	e28bd000 	add	sp, fp, #0
c01020e8:	e49db004 	pop	{fp}		; (ldr fp, [sp], #4)
c01020ec:	e12fff1e 	bx	lr

c01020f0 <Stm32mp157_lcd_controller_disable>:
c01020f0:	e52db004 	push	{fp}		; (str fp, [sp, #-4]!)
c01020f4:	e28db000 	add	fp, sp, #0
c01020f8:	e3a03a01 	mov	r3, #4096	; 0x1000
c01020fc:	e3453a00 	movt	r3, #23040	; 0x5a00
c0102100:	e5932018 	ldr	r2, [r3, #24]
c0102104:	e3a03a01 	mov	r3, #4096	; 0x1000
c0102108:	e3453a00 	movt	r3, #23040	; 0x5a00
c010210c:	e3c22001 	bic	r2, r2, #1
c0102110:	e5832018 	str	r2, [r3, #24]
c0102114:	e3033294 	movw	r3, #12948	; 0x3294
c0102118:	e34c3010 	movt	r3, #49168	; 0xc010
c010211c:	e5933000 	ldr	r3, [r3]
c0102120:	e5932000 	ldr	r2, [r3]
c0102124:	e3033294 	movw	r3, #12948	; 0x3294
c0102128:	e34c3010 	movt	r3, #49168	; 0xc010
c010212c:	e5933000 	ldr	r3, [r3]
c0102130:	e3c22b02 	bic	r2, r2, #2048	; 0x800
c0102134:	e5832000 	str	r2, [r3]
c0102138:	e320f000 	nop	{0}
c010213c:	e28bd000 	add	sp, fp, #0
c0102140:	e49db004 	pop	{fp}		; (ldr fp, [sp], #4)
c0102144:	e12fff1e 	bx	lr

c0102148 <Stm32mp157_lcd_controller_add>:
c0102148:	e92d4800 	push	{fp, lr}
c010214c:	e28db004 	add	fp, sp, #4
c0102150:	e30301f0 	movw	r0, #12784	; 0x31f0
c0102154:	e34c0010 	movt	r0, #49168	; 0xc010
c0102158:	ebfffc06 	bl	c0101178 <register_lcd_controller>
c010215c:	e320f000 	nop	{0}
c0102160:	e8bd8800 	pop	{fp, pc}

Disassembly of section .rodata:

c0102164 <.LC0>:
c0102164:	2e777777 	mrccs	7, 3, r7, cr7, cr7, {3}
c0102168:	61303031 	teqvs	r0, r1, lsr r0
c010216c:	6e2e6b73 	vmovvs.16	d14[3], r6
c0102170:	0d0a7465 	cfstrseq	mvf7, [sl, #-404]	; 0xfffffe6c
c0102174:	61303031 	teqvs	r0, r1, lsr r0
c0102178:	742e6b73 	strtvc	r6, [lr], #-2931	; 0xfffff48d
c010217c:	61626f61 	cmnvs	r2, r1, ror #30
c0102180:	6f632e6f 	svcvs	0x00632e6f
c0102184:	0000006d 	andeq	r0, r0, sp, rrx

c0102188 <fontdata_8x16>:
	...
c0102198:	817e0000 	cmnhi	lr, r0
c010219c:	bd8181a5 	stfltd	f0, [r1, #660]	; 0x294
c01021a0:	7e818199 	mcrvc	1, 4, r8, cr1, cr9, {4}
c01021a4:	00000000 	andeq	r0, r0, r0
c01021a8:	ff7e0000 			; <UNDEFINED> instruction: 0xff7e0000
c01021ac:	c3ffffdb 	mvnsgt	pc, #876	; 0x36c
c01021b0:	7effffe7 	cdpvc	15, 15, cr15, cr15, cr7, {7}
	...
c01021bc:	fefefe6c 	cdp2	14, 15, cr15, cr14, cr12, {3}
c01021c0:	10387cfe 	ldrshtne	r7, [r8], -lr
	...
c01021cc:	fe7c3810 	mrc2	8, 3, r3, cr12, cr0, {0}
c01021d0:	0010387c 	andseq	r3, r0, ip, ror r8
c01021d4:	00000000 	andeq	r0, r0, r0
c01021d8:	18000000 	stmdane	r0, {}	; <UNPREDICTABLE>
c01021dc:	e7e73c3c 			; <UNDEFINED> instruction: 0xe7e73c3c
c01021e0:	3c1818e7 	ldccc	8, cr1, [r8], {231}	; 0xe7
c01021e4:	00000000 	andeq	r0, r0, r0
c01021e8:	18000000 	stmdane	r0, {}	; <UNPREDICTABLE>
c01021ec:	ffff7e3c 			; <UNDEFINED> instruction: 0xffff7e3c
c01021f0:	3c18187e 	ldccc	8, cr1, [r8], {126}	; 0x7e
	...
c01021fc:	3c180000 	ldccc	0, cr0, [r8], {-0}
c0102200:	0000183c 	andeq	r1, r0, ip, lsr r8
c0102204:	00000000 	andeq	r0, r0, r0
c0102208:	ffffffff 			; <UNDEFINED> instruction: 0xffffffff
c010220c:	c3e7ffff 	mvngt	pc, #1020	; 0x3fc
c0102210:	ffffe7c3 			; <UNDEFINED> instruction: 0xffffe7c3
c0102214:	ffffffff 			; <UNDEFINED> instruction: 0xffffffff
c0102218:	00000000 	andeq	r0, r0, r0
c010221c:	42663c00 	rsbmi	r3, r6, #0, 24
c0102220:	003c6642 	eorseq	r6, ip, r2, asr #12
c0102224:	00000000 	andeq	r0, r0, r0
c0102228:	ffffffff 			; <UNDEFINED> instruction: 0xffffffff
c010222c:	bd99c3ff 	ldclt	3, cr12, [r9, #1020]	; 0x3fc
c0102230:	ffc399bd 			; <UNDEFINED> instruction: 0xffc399bd
c0102234:	ffffffff 			; <UNDEFINED> instruction: 0xffffffff
c0102238:	0e1e0000 	cdpeq	0, 1, cr0, cr14, cr0, {0}
c010223c:	cc78321a 	lfmgt	f3, 2, [r8], #-104	; 0xffffff98
c0102240:	78cccccc 	stmiavc	ip, {r2, r3, r6, r7, sl, fp, lr, pc}^
c0102244:	00000000 	andeq	r0, r0, r0
c0102248:	663c0000 	ldrtvs	r0, [ip], -r0
c010224c:	3c666666 	stclcc	6, cr6, [r6], #-408	; 0xfffffe68
c0102250:	18187e18 	ldmdane	r8, {r3, r4, r9, sl, fp, ip, sp, lr}
c0102254:	00000000 	andeq	r0, r0, r0
c0102258:	333f0000 	teqcc	pc, #0
c010225c:	3030303f 	eorscc	r3, r0, pc, lsr r0
c0102260:	e0f07030 	rscs	r7, r0, r0, lsr r0
c0102264:	00000000 	andeq	r0, r0, r0
c0102268:	637f0000 	cmnvs	pc, #0
c010226c:	6363637f 	cmnvs	r3, #-67108863	; 0xfc000001
c0102270:	e6e76763 	strbt	r6, [r7], r3, ror #14
c0102274:	000000c0 	andeq	r0, r0, r0, asr #1
c0102278:	18000000 	stmdane	r0, {}	; <UNPREDICTABLE>
c010227c:	e73cdb18 			; <UNDEFINED> instruction: 0xe73cdb18
c0102280:	1818db3c 	ldmdane	r8, {r2, r3, r4, r5, r8, r9, fp, ip, lr, pc}
c0102284:	00000000 	andeq	r0, r0, r0
c0102288:	e0c08000 	sbc	r8, r0, r0
c010228c:	f8fef8f0 			; <UNDEFINED> instruction: 0xf8fef8f0
c0102290:	80c0e0f0 	strdhi	lr, [r0], #0
c0102294:	00000000 	andeq	r0, r0, r0
c0102298:	0e060200 	cdpeq	2, 0, cr0, cr6, cr0, {0}
c010229c:	3efe3e1e 	mrccc	14, 7, r3, cr14, cr14, {0}
c01022a0:	02060e1e 	andeq	r0, r6, #480	; 0x1e0
c01022a4:	00000000 	andeq	r0, r0, r0
c01022a8:	3c180000 	ldccc	0, cr0, [r8], {-0}
c01022ac:	1818187e 	ldmdane	r8, {r1, r2, r3, r4, r5, r6, fp, ip}
c01022b0:	00183c7e 	andseq	r3, r8, lr, ror ip
c01022b4:	00000000 	andeq	r0, r0, r0
c01022b8:	66660000 	strbtvs	r0, [r6], -r0
c01022bc:	66666666 	strbtvs	r6, [r6], -r6, ror #12
c01022c0:	66660066 	strbtvs	r0, [r6], -r6, rrx
c01022c4:	00000000 	andeq	r0, r0, r0
c01022c8:	db7f0000 	blle	c20c22d0 <__bss_end+0x1fbf000>
c01022cc:	1b7bdbdb 	blne	c1ff9240 <__bss_end+0x1ef5f70>
c01022d0:	1b1b1b1b 	blne	c07c8f44 <__bss_end+0x6c5c74>
c01022d4:	00000000 	andeq	r0, r0, r0
c01022d8:	60c67c00 	sbcvs	r7, r6, r0, lsl #24
c01022dc:	c6c66c38 			; <UNDEFINED> instruction: 0xc6c66c38
c01022e0:	c60c386c 	strgt	r3, [ip], -ip, ror #16
c01022e4:	0000007c 	andeq	r0, r0, ip, ror r0
	...
c01022f0:	fefefefe 	mrc2	14, 7, pc, cr14, cr14, {7}
c01022f4:	00000000 	andeq	r0, r0, r0
c01022f8:	3c180000 	ldccc	0, cr0, [r8], {-0}
c01022fc:	1818187e 	ldmdane	r8, {r1, r2, r3, r4, r5, r6, fp, ip}
c0102300:	7e183c7e 	mrcvc	12, 0, r3, cr8, cr14, {3}
c0102304:	00000000 	andeq	r0, r0, r0
c0102308:	3c180000 	ldccc	0, cr0, [r8], {-0}
c010230c:	1818187e 	ldmdane	r8, {r1, r2, r3, r4, r5, r6, fp, ip}
c0102310:	18181818 	ldmdane	r8, {r3, r4, fp, ip}
c0102314:	00000000 	andeq	r0, r0, r0
c0102318:	18180000 	ldmdane	r8, {}	; <UNPREDICTABLE>
c010231c:	18181818 	ldmdane	r8, {r3, r4, fp, ip}
c0102320:	183c7e18 	ldmdane	ip!, {r3, r4, r9, sl, fp, ip, sp, lr}
	...
c010232c:	fe0c1800 	vcmla.f16	d1, d12, d0[0], #0
c0102330:	0000180c 	andeq	r1, r0, ip, lsl #16
	...
c010233c:	fe603000 	cdp2	0, 6, cr3, cr0, cr0, {0}
c0102340:	00003060 	andeq	r3, r0, r0, rrx
	...
c010234c:	c0c00000 	sbcgt	r0, r0, r0
c0102350:	0000fec0 	andeq	pc, r0, r0, asr #29
	...
c010235c:	fe6c2800 	vcmla.f16	d18, d12, d0[0], #180
c0102360:	0000286c 	andeq	r2, r0, ip, ror #16
	...
c010236c:	7c383810 	ldcvc	8, cr3, [r8], #-64	; 0xffffffc0
c0102370:	00fefe7c 	rscseq	pc, lr, ip, ror lr	; <UNPREDICTABLE>
	...
c010237c:	7c7cfefe 	ldclvc	14, cr15, [ip], #-1016	; 0xfffffc08
c0102380:	00103838 	andseq	r3, r0, r8, lsr r8
	...
c0102398:	3c180000 	ldccc	0, cr0, [r8], {-0}
c010239c:	18183c3c 	ldmdane	r8, {r2, r3, r4, r5, sl, fp, ip, sp}
c01023a0:	18180018 	ldmdane	r8, {r3, r4}
c01023a4:	00000000 	andeq	r0, r0, r0
c01023a8:	66666600 	strbtvs	r6, [r6], -r0, lsl #12
c01023ac:	00000024 	andeq	r0, r0, r4, lsr #32
	...
c01023b8:	6c000000 	stcvs	0, cr0, [r0], {-0}
c01023bc:	6c6cfe6c 	stclvs	14, cr15, [ip], #-432	; 0xfffffe50
c01023c0:	6c6cfe6c 	stclvs	14, cr15, [ip], #-432	; 0xfffffe50
c01023c4:	00000000 	andeq	r0, r0, r0
c01023c8:	c67c1818 			; <UNDEFINED> instruction: 0xc67c1818
c01023cc:	067cc0c2 	ldrbteq	ip, [ip], -r2, asr #1
c01023d0:	7cc68606 	stclvc	6, cr8, [r6], {6}
c01023d4:	00001818 	andeq	r1, r0, r8, lsl r8
c01023d8:	00000000 	andeq	r0, r0, r0
c01023dc:	180cc6c2 	stmdane	ip, {r1, r6, r7, r9, sl, lr, pc}
c01023e0:	86c66030 			; <UNDEFINED> instruction: 0x86c66030
c01023e4:	00000000 	andeq	r0, r0, r0
c01023e8:	6c380000 	ldcvs	0, cr0, [r8], #-0
c01023ec:	dc76386c 	ldclle	8, cr3, [r6], #-432	; 0xfffffe50
c01023f0:	76cccccc 	strbvc	ip, [ip], ip, asr #25
c01023f4:	00000000 	andeq	r0, r0, r0
c01023f8:	30303000 	eorscc	r3, r0, r0
c01023fc:	00000060 	andeq	r0, r0, r0, rrx
	...
c0102408:	180c0000 	stmdane	ip, {}	; <UNPREDICTABLE>
c010240c:	30303030 	eorscc	r3, r0, r0, lsr r0
c0102410:	0c183030 	ldceq	0, cr3, [r8], {48}	; 0x30
c0102414:	00000000 	andeq	r0, r0, r0
c0102418:	18300000 	ldmdane	r0!, {}	; <UNPREDICTABLE>
c010241c:	0c0c0c0c 	stceq	12, cr0, [ip], {12}
c0102420:	30180c0c 	andscc	r0, r8, ip, lsl #24
	...
c010242c:	ff3c6600 			; <UNDEFINED> instruction: 0xff3c6600
c0102430:	0000663c 	andeq	r6, r0, ip, lsr r6
	...
c010243c:	7e181800 	cdpvc	8, 1, cr1, cr8, cr0, {0}
c0102440:	00001818 	andeq	r1, r0, r8, lsl r8
	...
c0102450:	18181800 	ldmdane	r8, {fp, ip}
c0102454:	00000030 	andeq	r0, r0, r0, lsr r0
c0102458:	00000000 	andeq	r0, r0, r0
c010245c:	fe000000 	cdp2	0, 0, cr0, cr0, cr0, {0}
	...
c0102470:	18180000 	ldmdane	r8, {}	; <UNPREDICTABLE>
	...
c010247c:	180c0602 	stmdane	ip, {r1, r9, sl}
c0102480:	80c06030 	sbchi	r6, r0, r0, lsr r0
c0102484:	00000000 	andeq	r0, r0, r0
c0102488:	6c380000 	ldcvs	0, cr0, [r8], #-0
c010248c:	d6d6c6c6 	ldrble	ip, [r6], r6, asr #13
c0102490:	386cc6c6 	stmdacc	ip!, {r1, r2, r6, r7, r9, sl, lr, pc}^
c0102494:	00000000 	andeq	r0, r0, r0
c0102498:	38180000 	ldmdacc	r8, {}	; <UNPREDICTABLE>
c010249c:	18181878 	ldmdane	r8, {r3, r4, r5, r6, fp, ip}
c01024a0:	7e181818 	mrcvc	8, 0, r1, cr8, cr8, {0}
c01024a4:	00000000 	andeq	r0, r0, r0
c01024a8:	c67c0000 	ldrbtgt	r0, [ip], -r0
c01024ac:	30180c06 	andscc	r0, r8, r6, lsl #24
c01024b0:	fec6c060 	cdp2	0, 12, cr12, cr6, cr0, {3}
c01024b4:	00000000 	andeq	r0, r0, r0
c01024b8:	c67c0000 	ldrbtgt	r0, [ip], -r0
c01024bc:	063c0606 	ldrteq	r0, [ip], -r6, lsl #12
c01024c0:	7cc60606 	stclvc	6, cr0, [r6], {6}
c01024c4:	00000000 	andeq	r0, r0, r0
c01024c8:	1c0c0000 	stcne	0, cr0, [ip], {-0}
c01024cc:	fecc6c3c 	mcr2	12, 6, r6, cr12, cr12, {1}
c01024d0:	1e0c0c0c 	cdpne	12, 0, cr0, cr12, cr12, {0}
c01024d4:	00000000 	andeq	r0, r0, r0
c01024d8:	c0fe0000 	rscsgt	r0, lr, r0
c01024dc:	06fcc0c0 	ldrbteq	ip, [ip], r0, asr #1
c01024e0:	7cc60606 	stclvc	6, cr0, [r6], {6}
c01024e4:	00000000 	andeq	r0, r0, r0
c01024e8:	60380000 	eorsvs	r0, r8, r0
c01024ec:	c6fcc0c0 	ldrbtgt	ip, [ip], r0, asr #1
c01024f0:	7cc6c6c6 	stclvc	6, cr12, [r6], {198}	; 0xc6
c01024f4:	00000000 	andeq	r0, r0, r0
c01024f8:	c6fe0000 	ldrbtgt	r0, [lr], r0
c01024fc:	180c0606 	stmdane	ip, {r1, r2, r9, sl}
c0102500:	30303030 	eorscc	r3, r0, r0, lsr r0
c0102504:	00000000 	andeq	r0, r0, r0
c0102508:	c67c0000 	ldrbtgt	r0, [ip], -r0
c010250c:	c67cc6c6 	ldrbtgt	ip, [ip], -r6, asr #13
c0102510:	7cc6c6c6 	stclvc	6, cr12, [r6], {198}	; 0xc6
c0102514:	00000000 	andeq	r0, r0, r0
c0102518:	c67c0000 	ldrbtgt	r0, [ip], -r0
c010251c:	067ec6c6 	ldrbteq	ip, [lr], -r6, asr #13
c0102520:	780c0606 	stmdavc	ip, {r1, r2, r9, sl}
	...
c010252c:	00001818 	andeq	r1, r0, r8, lsl r8
c0102530:	00181800 	andseq	r1, r8, r0, lsl #16
	...
c010253c:	00001818 	andeq	r1, r0, r8, lsl r8
c0102540:	30181800 	andscc	r1, r8, r0, lsl #16
c0102544:	00000000 	andeq	r0, r0, r0
c0102548:	06000000 	streq	r0, [r0], -r0
c010254c:	6030180c 	eorsvs	r1, r0, ip, lsl #16
c0102550:	060c1830 			; <UNDEFINED> instruction: 0x060c1830
	...
c010255c:	00007e00 	andeq	r7, r0, r0, lsl #28
c0102560:	0000007e 	andeq	r0, r0, lr, ror r0
c0102564:	00000000 	andeq	r0, r0, r0
c0102568:	60000000 	andvs	r0, r0, r0
c010256c:	060c1830 			; <UNDEFINED> instruction: 0x060c1830
c0102570:	6030180c 	eorsvs	r1, r0, ip, lsl #16
c0102574:	00000000 	andeq	r0, r0, r0
c0102578:	c67c0000 	ldrbtgt	r0, [ip], -r0
c010257c:	18180cc6 	ldmdane	r8, {r1, r2, r6, r7, sl, fp}
c0102580:	18180018 	ldmdane	r8, {r3, r4}
c0102584:	00000000 	andeq	r0, r0, r0
c0102588:	7c000000 	stcvc	0, cr0, [r0], {-0}
c010258c:	dedec6c6 	cdple	6, 13, cr12, cr14, cr6, {6}
c0102590:	7cc0dcde 	stclvc	12, cr13, [r0], {222}	; 0xde
c0102594:	00000000 	andeq	r0, r0, r0
c0102598:	38100000 	ldmdacc	r0, {}	; <UNPREDICTABLE>
c010259c:	fec6c66c 	cdp2	6, 12, cr12, cr6, cr12, {3}
c01025a0:	c6c6c6c6 	strbgt	ip, [r6], r6, asr #13
c01025a4:	00000000 	andeq	r0, r0, r0
c01025a8:	66fc0000 	ldrbtvs	r0, [ip], r0
c01025ac:	667c6666 	ldrbtvs	r6, [ip], -r6, ror #12
c01025b0:	fc666666 	stc2l	6, cr6, [r6], #-408	; 0xfffffe68
c01025b4:	00000000 	andeq	r0, r0, r0
c01025b8:	663c0000 	ldrtvs	r0, [ip], -r0
c01025bc:	c0c0c0c2 	sbcgt	ip, r0, r2, asr #1
c01025c0:	3c66c2c0 	sfmcc	f4, 3, [r6], #-768	; 0xfffffd00
c01025c4:	00000000 	andeq	r0, r0, r0
c01025c8:	6cf80000 	ldclvs	0, cr0, [r8]
c01025cc:	66666666 	strbtvs	r6, [r6], -r6, ror #12
c01025d0:	f86c6666 			; <UNDEFINED> instruction: 0xf86c6666
c01025d4:	00000000 	andeq	r0, r0, r0
c01025d8:	66fe0000 	ldrbtvs	r0, [lr], r0
c01025dc:	68786862 	ldmdavs	r8!, {r1, r5, r6, fp, sp, lr}^
c01025e0:	fe666260 	cdp2	2, 6, cr6, cr6, cr0, {3}
c01025e4:	00000000 	andeq	r0, r0, r0
c01025e8:	66fe0000 	ldrbtvs	r0, [lr], r0
c01025ec:	68786862 	ldmdavs	r8!, {r1, r5, r6, fp, sp, lr}^
c01025f0:	f0606060 			; <UNDEFINED> instruction: 0xf0606060
c01025f4:	00000000 	andeq	r0, r0, r0
c01025f8:	663c0000 	ldrtvs	r0, [ip], -r0
c01025fc:	dec0c0c2 	cdple	0, 12, cr12, cr0, cr2, {6}
c0102600:	3a66c6c6 	bcc	c1ab4120 <__bss_end+0x19b0e50>
c0102604:	00000000 	andeq	r0, r0, r0
c0102608:	c6c60000 	strbgt	r0, [r6], r0
c010260c:	c6fec6c6 	ldrbtgt	ip, [lr], r6, asr #13
c0102610:	c6c6c6c6 	strbgt	ip, [r6], r6, asr #13
c0102614:	00000000 	andeq	r0, r0, r0
c0102618:	183c0000 	ldmdane	ip!, {}	; <UNPREDICTABLE>
c010261c:	18181818 	ldmdane	r8, {r3, r4, fp, ip}
c0102620:	3c181818 	ldccc	8, cr1, [r8], {24}
c0102624:	00000000 	andeq	r0, r0, r0
c0102628:	0c1e0000 	ldceq	0, cr0, [lr], {-0}
c010262c:	0c0c0c0c 	stceq	12, cr0, [ip], {12}
c0102630:	78cccccc 	stmiavc	ip, {r2, r3, r6, r7, sl, fp, lr, pc}^
c0102634:	00000000 	andeq	r0, r0, r0
c0102638:	66e60000 	strbtvs	r0, [r6], r0
c010263c:	78786c66 	ldmdavc	r8!, {r1, r2, r5, r6, sl, fp, sp, lr}^
c0102640:	e666666c 	strbt	r6, [r6], -ip, ror #12
c0102644:	00000000 	andeq	r0, r0, r0
c0102648:	60f00000 	rscsvs	r0, r0, r0
c010264c:	60606060 	rsbvs	r6, r0, r0, rrx
c0102650:	fe666260 	cdp2	2, 6, cr6, cr6, cr0, {3}
c0102654:	00000000 	andeq	r0, r0, r0
c0102658:	eec60000 	cdp	0, 12, cr0, cr6, cr0, {0}
c010265c:	c6d6fefe 			; <UNDEFINED> instruction: 0xc6d6fefe
c0102660:	c6c6c6c6 	strbgt	ip, [r6], r6, asr #13
c0102664:	00000000 	andeq	r0, r0, r0
c0102668:	e6c60000 	strb	r0, [r6], r0
c010266c:	cedefef6 	mrcgt	14, 6, APSR_nzcv, cr14, cr6, {7}
c0102670:	c6c6c6c6 	strbgt	ip, [r6], r6, asr #13
c0102674:	00000000 	andeq	r0, r0, r0
c0102678:	c67c0000 	ldrbtgt	r0, [ip], -r0
c010267c:	c6c6c6c6 	strbgt	ip, [r6], r6, asr #13
c0102680:	7cc6c6c6 	stclvc	6, cr12, [r6], {198}	; 0xc6
c0102684:	00000000 	andeq	r0, r0, r0
c0102688:	66fc0000 	ldrbtvs	r0, [ip], r0
c010268c:	607c6666 	rsbsvs	r6, ip, r6, ror #12
c0102690:	f0606060 			; <UNDEFINED> instruction: 0xf0606060
c0102694:	00000000 	andeq	r0, r0, r0
c0102698:	c67c0000 	ldrbtgt	r0, [ip], -r0
c010269c:	c6c6c6c6 	strbgt	ip, [r6], r6, asr #13
c01026a0:	7cded6c6 	ldclvc	6, cr13, [lr], {198}	; 0xc6
c01026a4:	00000e0c 	andeq	r0, r0, ip, lsl #28
c01026a8:	66fc0000 	ldrbtvs	r0, [ip], r0
c01026ac:	6c7c6666 	ldclvs	6, cr6, [ip], #-408	; 0xfffffe68
c01026b0:	e6666666 	strbt	r6, [r6], -r6, ror #12
c01026b4:	00000000 	andeq	r0, r0, r0
c01026b8:	c67c0000 	ldrbtgt	r0, [ip], -r0
c01026bc:	0c3860c6 	ldceq	0, cr6, [r8], #-792	; 0xfffffce8
c01026c0:	7cc6c606 	stclvc	6, cr12, [r6], {6}
c01026c4:	00000000 	andeq	r0, r0, r0
c01026c8:	7e7e0000 	cdpvc	0, 7, cr0, cr14, cr0, {0}
c01026cc:	1818185a 	ldmdane	r8, {r1, r3, r4, r6, fp, ip}
c01026d0:	3c181818 	ldccc	8, cr1, [r8], {24}
c01026d4:	00000000 	andeq	r0, r0, r0
c01026d8:	c6c60000 	strbgt	r0, [r6], r0
c01026dc:	c6c6c6c6 	strbgt	ip, [r6], r6, asr #13
c01026e0:	7cc6c6c6 	stclvc	6, cr12, [r6], {198}	; 0xc6
c01026e4:	00000000 	andeq	r0, r0, r0
c01026e8:	c6c60000 	strbgt	r0, [r6], r0
c01026ec:	c6c6c6c6 	strbgt	ip, [r6], r6, asr #13
c01026f0:	10386cc6 	eorsne	r6, r8, r6, asr #25
c01026f4:	00000000 	andeq	r0, r0, r0
c01026f8:	c6c60000 	strbgt	r0, [r6], r0
c01026fc:	d6d6c6c6 	ldrble	ip, [r6], r6, asr #13
c0102700:	6ceefed6 	stclvs	14, cr15, [lr], #856	; 0x358
c0102704:	00000000 	andeq	r0, r0, r0
c0102708:	c6c60000 	strbgt	r0, [r6], r0
c010270c:	38387c6c 	ldmdacc	r8!, {r2, r3, r5, r6, sl, fp, ip, sp, lr}
c0102710:	c6c66c7c 	uxtab16gt	r6, r6, ip, ROR #24
c0102714:	00000000 	andeq	r0, r0, r0
c0102718:	66660000 	strbtvs	r0, [r6], -r0
c010271c:	183c6666 	ldmdane	ip!, {r1, r2, r5, r6, r9, sl, sp, lr}
c0102720:	3c181818 	ldccc	8, cr1, [r8], {24}
c0102724:	00000000 	andeq	r0, r0, r0
c0102728:	c6fe0000 	ldrbtgt	r0, [lr], r0
c010272c:	30180c86 	andscc	r0, r8, r6, lsl #25
c0102730:	fec6c260 	cdp2	2, 12, cr12, cr6, cr0, {3}
c0102734:	00000000 	andeq	r0, r0, r0
c0102738:	303c0000 	eorscc	r0, ip, r0
c010273c:	30303030 	eorscc	r3, r0, r0, lsr r0
c0102740:	3c303030 	ldccc	0, cr3, [r0], #-192	; 0xffffff40
c0102744:	00000000 	andeq	r0, r0, r0
c0102748:	80000000 	andhi	r0, r0, r0
c010274c:	3870e0c0 	ldmdacc	r0!, {r6, r7, sp, lr, pc}^
c0102750:	02060e1c 	andeq	r0, r6, #28, 28	; 0x1c0
c0102754:	00000000 	andeq	r0, r0, r0
c0102758:	0c3c0000 	ldceq	0, cr0, [ip], #-0
c010275c:	0c0c0c0c 	stceq	12, cr0, [ip], {12}
c0102760:	3c0c0c0c 	stccc	12, cr0, [ip], {12}
c0102764:	00000000 	andeq	r0, r0, r0
c0102768:	c66c3810 			; <UNDEFINED> instruction: 0xc66c3810
	...
c0102784:	0000ff00 	andeq	pc, r0, r0, lsl #30
c0102788:	0c183000 	ldceq	0, cr3, [r8], {-0}
	...
c010279c:	7c0c7800 	stcvc	8, cr7, [ip], {-0}
c01027a0:	76cccccc 	strbvc	ip, [ip], ip, asr #25
c01027a4:	00000000 	andeq	r0, r0, r0
c01027a8:	60e00000 	rscvs	r0, r0, r0
c01027ac:	666c7860 	strbtvs	r7, [ip], -r0, ror #16
c01027b0:	7c666666 	stclvc	6, cr6, [r6], #-408	; 0xfffffe68
	...
c01027bc:	c0c67c00 	sbcgt	r7, r6, r0, lsl #24
c01027c0:	7cc6c0c0 	stclvc	0, cr12, [r6], {192}	; 0xc0
c01027c4:	00000000 	andeq	r0, r0, r0
c01027c8:	0c1c0000 	ldceq	0, cr0, [ip], {-0}
c01027cc:	cc6c3c0c 	stclgt	12, cr3, [ip], #-48	; 0xffffffd0
c01027d0:	76cccccc 	strbvc	ip, [ip], ip, asr #25
	...
c01027dc:	fec67c00 	cdp2	12, 12, cr7, cr6, cr0, {0}
c01027e0:	7cc6c0c0 	stclvc	0, cr12, [r6], {192}	; 0xc0
c01027e4:	00000000 	andeq	r0, r0, r0
c01027e8:	361c0000 	ldrcc	r0, [ip], -r0
c01027ec:	30783032 	rsbscc	r3, r8, r2, lsr r0
c01027f0:	78303030 	ldmdavc	r0!, {r4, r5, ip, sp}
	...
c01027fc:	cccc7600 	stclgt	6, cr7, [ip], {0}
c0102800:	7ccccccc 	stclvc	12, cr12, [ip], {204}	; 0xcc
c0102804:	0078cc0c 	rsbseq	ip, r8, ip, lsl #24
c0102808:	60e00000 	rscvs	r0, r0, r0
c010280c:	66766c60 	ldrbtvs	r6, [r6], -r0, ror #24
c0102810:	e6666666 	strbt	r6, [r6], -r6, ror #12
c0102814:	00000000 	andeq	r0, r0, r0
c0102818:	18180000 	ldmdane	r8, {}	; <UNPREDICTABLE>
c010281c:	18183800 	ldmdane	r8, {fp, ip, sp}
c0102820:	3c181818 	ldccc	8, cr1, [r8], {24}
c0102824:	00000000 	andeq	r0, r0, r0
c0102828:	06060000 	streq	r0, [r6], -r0
c010282c:	06060e00 	streq	r0, [r6], -r0, lsl #28
c0102830:	06060606 	streq	r0, [r6], -r6, lsl #12
c0102834:	003c6666 	eorseq	r6, ip, r6, ror #12
c0102838:	60e00000 	rscvs	r0, r0, r0
c010283c:	786c6660 	stmdavc	ip!, {r5, r6, r9, sl, sp, lr}^
c0102840:	e6666c78 			; <UNDEFINED> instruction: 0xe6666c78
c0102844:	00000000 	andeq	r0, r0, r0
c0102848:	18380000 	ldmdane	r8!, {}	; <UNPREDICTABLE>
c010284c:	18181818 	ldmdane	r8, {r3, r4, fp, ip}
c0102850:	3c181818 	ldccc	8, cr1, [r8], {24}
	...
c010285c:	d6feec00 	ldrbtle	lr, [lr], r0, lsl #24
c0102860:	c6d6d6d6 			; <UNDEFINED> instruction: 0xc6d6d6d6
	...
c010286c:	6666dc00 	strbtvs	sp, [r6], -r0, lsl #24
c0102870:	66666666 	strbtvs	r6, [r6], -r6, ror #12
	...
c010287c:	c6c67c00 	strbgt	r7, [r6], r0, lsl #24
c0102880:	7cc6c6c6 	stclvc	6, cr12, [r6], {198}	; 0xc6
	...
c010288c:	6666dc00 	strbtvs	sp, [r6], -r0, lsl #24
c0102890:	7c666666 	stclvc	6, cr6, [r6], #-408	; 0xfffffe68
c0102894:	00f06060 	rscseq	r6, r0, r0, rrx
c0102898:	00000000 	andeq	r0, r0, r0
c010289c:	cccc7600 	stclgt	6, cr7, [ip], {0}
c01028a0:	7ccccccc 	stclvc	12, cr12, [ip], {204}	; 0xcc
c01028a4:	001e0c0c 	andseq	r0, lr, ip, lsl #24
c01028a8:	00000000 	andeq	r0, r0, r0
c01028ac:	6676dc00 	ldrbtvs	sp, [r6], -r0, lsl #24
c01028b0:	f0606060 			; <UNDEFINED> instruction: 0xf0606060
	...
c01028bc:	60c67c00 	sbcvs	r7, r6, r0, lsl #24
c01028c0:	7cc60c38 	stclvc	12, cr0, [r6], {56}	; 0x38
c01028c4:	00000000 	andeq	r0, r0, r0
c01028c8:	30100000 	andscc	r0, r0, r0
c01028cc:	3030fc30 	eorscc	pc, r0, r0, lsr ip	; <UNPREDICTABLE>
c01028d0:	1c363030 	ldcne	0, cr3, [r6], #-192	; 0xffffff40
	...
c01028dc:	cccccc00 	stclgt	12, cr12, [ip], {0}
c01028e0:	76cccccc 	strbvc	ip, [ip], ip, asr #25
	...
c01028ec:	c6c6c600 	strbgt	ip, [r6], r0, lsl #12
c01028f0:	386cc6c6 	stmdacc	ip!, {r1, r2, r6, r7, r9, sl, lr, pc}^
	...
c01028fc:	d6c6c600 	strble	ip, [r6], r0, lsl #12
c0102900:	6cfed6d6 	ldclvs	6, cr13, [lr], #856	; 0x358
	...
c010290c:	386cc600 	stmdacc	ip!, {r9, sl, lr, pc}^
c0102910:	c66c3838 			; <UNDEFINED> instruction: 0xc66c3838
	...
c010291c:	c6c6c600 	strbgt	ip, [r6], r0, lsl #12
c0102920:	7ec6c6c6 	cdpvc	6, 12, cr12, cr6, cr6, {6}
c0102924:	00f80c06 	rscseq	r0, r8, r6, lsl #24
c0102928:	00000000 	andeq	r0, r0, r0
c010292c:	18ccfe00 	stmiane	ip, {r9, sl, fp, ip, sp, lr, pc}^
c0102930:	fec66030 	mcr2	0, 6, r6, cr6, cr0, {1}
c0102934:	00000000 	andeq	r0, r0, r0
c0102938:	180e0000 	stmdane	lr, {}	; <UNPREDICTABLE>
c010293c:	18701818 	ldmdane	r0!, {r3, r4, fp, ip}^
c0102940:	0e181818 	mrceq	8, 0, r1, cr8, cr8, {0}
c0102944:	00000000 	andeq	r0, r0, r0
c0102948:	18180000 	ldmdane	r8, {}	; <UNPREDICTABLE>
c010294c:	18181818 	ldmdane	r8, {r3, r4, fp, ip}
c0102950:	18181818 	ldmdane	r8, {r3, r4, fp, ip}
c0102954:	00000000 	andeq	r0, r0, r0
c0102958:	18700000 	ldmdane	r0!, {}^	; <UNPREDICTABLE>
c010295c:	180e1818 	stmdane	lr, {r3, r4, fp, ip}
c0102960:	70181818 	andsvc	r1, r8, r8, lsl r8
c0102964:	00000000 	andeq	r0, r0, r0
c0102968:	00dc7600 	sbcseq	r7, ip, r0, lsl #12
	...
c010297c:	c66c3810 			; <UNDEFINED> instruction: 0xc66c3810
c0102980:	00fec6c6 	rscseq	ip, lr, r6, asr #13
c0102984:	00000000 	andeq	r0, r0, r0
c0102988:	663c0000 	ldrtvs	r0, [ip], -r0
c010298c:	c0c0c0c2 	sbcgt	ip, r0, r2, asr #1
c0102990:	3c66c2c0 	sfmcc	f4, 3, [r6], #-768	; 0xfffffd00
c0102994:	00007018 	andeq	r7, r0, r8, lsl r0
c0102998:	00cc0000 	sbceq	r0, ip, r0
c010299c:	cccccc00 	stclgt	12, cr12, [ip], {0}
c01029a0:	76cccccc 	strbvc	ip, [ip], ip, asr #25
c01029a4:	00000000 	andeq	r0, r0, r0
c01029a8:	30180c00 	andscc	r0, r8, r0, lsl #24
c01029ac:	fec67c00 	cdp2	12, 12, cr7, cr6, cr0, {0}
c01029b0:	7cc6c0c0 	stclvc	0, cr12, [r6], {192}	; 0xc0
c01029b4:	00000000 	andeq	r0, r0, r0
c01029b8:	6c381000 	ldcvs	0, cr1, [r8], #-0
c01029bc:	7c0c7800 	stcvc	8, cr7, [ip], {-0}
c01029c0:	76cccccc 	strbvc	ip, [ip], ip, asr #25
c01029c4:	00000000 	andeq	r0, r0, r0
c01029c8:	00cc0000 	sbceq	r0, ip, r0
c01029cc:	7c0c7800 	stcvc	8, cr7, [ip], {-0}
c01029d0:	76cccccc 	strbvc	ip, [ip], ip, asr #25
c01029d4:	00000000 	andeq	r0, r0, r0
c01029d8:	18306000 	ldmdane	r0!, {sp, lr}
c01029dc:	7c0c7800 	stcvc	8, cr7, [ip], {-0}
c01029e0:	76cccccc 	strbvc	ip, [ip], ip, asr #25
c01029e4:	00000000 	andeq	r0, r0, r0
c01029e8:	386c3800 	stmdacc	ip!, {fp, ip, sp}^
c01029ec:	7c0c7800 	stcvc	8, cr7, [ip], {-0}
c01029f0:	76cccccc 	strbvc	ip, [ip], ip, asr #25
	...
c01029fc:	c0c67c00 	sbcgt	r7, r6, r0, lsl #24
c0102a00:	7cc6c0c0 	stclvc	0, cr12, [r6], {192}	; 0xc0
c0102a04:	00007018 	andeq	r7, r0, r8, lsl r0
c0102a08:	6c381000 	ldcvs	0, cr1, [r8], #-0
c0102a0c:	fec67c00 	cdp2	12, 12, cr7, cr6, cr0, {0}
c0102a10:	7cc6c0c0 	stclvc	0, cr12, [r6], {192}	; 0xc0
c0102a14:	00000000 	andeq	r0, r0, r0
c0102a18:	00c60000 	sbceq	r0, r6, r0
c0102a1c:	fec67c00 	cdp2	12, 12, cr7, cr6, cr0, {0}
c0102a20:	7cc6c0c0 	stclvc	0, cr12, [r6], {192}	; 0xc0
c0102a24:	00000000 	andeq	r0, r0, r0
c0102a28:	18306000 	ldmdane	r0!, {sp, lr}
c0102a2c:	fec67c00 	cdp2	12, 12, cr7, cr6, cr0, {0}
c0102a30:	7cc6c0c0 	stclvc	0, cr12, [r6], {192}	; 0xc0
c0102a34:	00000000 	andeq	r0, r0, r0
c0102a38:	00660000 	rsbeq	r0, r6, r0
c0102a3c:	18183800 	ldmdane	r8, {fp, ip, sp}
c0102a40:	3c181818 	ldccc	8, cr1, [r8], {24}
c0102a44:	00000000 	andeq	r0, r0, r0
c0102a48:	663c1800 	ldrtvs	r1, [ip], -r0, lsl #16
c0102a4c:	18183800 	ldmdane	r8, {fp, ip, sp}
c0102a50:	3c181818 	ldccc	8, cr1, [r8], {24}
c0102a54:	00000000 	andeq	r0, r0, r0
c0102a58:	18306000 	ldmdane	r0!, {sp, lr}
c0102a5c:	18183800 	ldmdane	r8, {fp, ip, sp}
c0102a60:	3c181818 	ldccc	8, cr1, [r8], {24}
c0102a64:	00000000 	andeq	r0, r0, r0
c0102a68:	1000c600 	andne	ip, r0, r0, lsl #12
c0102a6c:	c6c66c38 			; <UNDEFINED> instruction: 0xc6c66c38
c0102a70:	c6c6c6fe 			; <UNDEFINED> instruction: 0xc6c6c6fe
c0102a74:	00000000 	andeq	r0, r0, r0
c0102a78:	10386c38 	eorsne	r6, r8, r8, lsr ip
c0102a7c:	fec66c38 	mcr2	12, 6, r6, cr6, cr8, {1}
c0102a80:	c6c6c6c6 	strbgt	ip, [r6], r6, asr #13
c0102a84:	00000000 	andeq	r0, r0, r0
c0102a88:	fe00180c 	vcmla.f16	d1, d0, d12[0], #0
c0102a8c:	78686266 	stmdavc	r8!, {r1, r2, r5, r6, r9, sp, lr}^
c0102a90:	fe666268 	cdp2	2, 6, cr6, cr6, cr8, {3}
	...
c0102a9c:	3636ec00 	ldrtcc	lr, [r6], -r0, lsl #24
c0102aa0:	6ed8d87e 	mrcvs	8, 6, sp, cr8, cr14, {3}
c0102aa4:	00000000 	andeq	r0, r0, r0
c0102aa8:	6c3e0000 	ldcvs	0, cr0, [lr], #-0
c0102aac:	ccfecccc 	ldclgt	12, cr12, [lr], #816	; 0x330
c0102ab0:	cecccccc 	cdpgt	12, 12, cr12, cr12, cr12, {6}
c0102ab4:	00000000 	andeq	r0, r0, r0
c0102ab8:	6c381000 	ldcvs	0, cr1, [r8], #-0
c0102abc:	c6c67c00 	strbgt	r7, [r6], r0, lsl #24
c0102ac0:	7cc6c6c6 	stclvc	6, cr12, [r6], {198}	; 0xc6
c0102ac4:	00000000 	andeq	r0, r0, r0
c0102ac8:	00c60000 	sbceq	r0, r6, r0
c0102acc:	c6c67c00 	strbgt	r7, [r6], r0, lsl #24
c0102ad0:	7cc6c6c6 	stclvc	6, cr12, [r6], {198}	; 0xc6
c0102ad4:	00000000 	andeq	r0, r0, r0
c0102ad8:	18306000 	ldmdane	r0!, {sp, lr}
c0102adc:	c6c67c00 	strbgt	r7, [r6], r0, lsl #24
c0102ae0:	7cc6c6c6 	stclvc	6, cr12, [r6], {198}	; 0xc6
c0102ae4:	00000000 	andeq	r0, r0, r0
c0102ae8:	cc783000 	ldclgt	0, cr3, [r8], #-0
c0102aec:	cccccc00 	stclgt	12, cr12, [ip], {0}
c0102af0:	76cccccc 	strbvc	ip, [ip], ip, asr #25
c0102af4:	00000000 	andeq	r0, r0, r0
c0102af8:	18306000 	ldmdane	r0!, {sp, lr}
c0102afc:	cccccc00 	stclgt	12, cr12, [ip], {0}
c0102b00:	76cccccc 	strbvc	ip, [ip], ip, asr #25
c0102b04:	00000000 	andeq	r0, r0, r0
c0102b08:	00c60000 	sbceq	r0, r6, r0
c0102b0c:	c6c6c600 	strbgt	ip, [r6], r0, lsl #12
c0102b10:	7ec6c6c6 	cdpvc	6, 12, cr12, cr6, cr6, {6}
c0102b14:	00780c06 	rsbseq	r0, r8, r6, lsl #24
c0102b18:	7c00c600 	stcvc	6, cr12, [r0], {-0}
c0102b1c:	c6c6c6c6 	strbgt	ip, [r6], r6, asr #13
c0102b20:	7cc6c6c6 	stclvc	6, cr12, [r6], {198}	; 0xc6
c0102b24:	00000000 	andeq	r0, r0, r0
c0102b28:	c600c600 	strgt	ip, [r0], -r0, lsl #12
c0102b2c:	c6c6c6c6 	strbgt	ip, [r6], r6, asr #13
c0102b30:	7cc6c6c6 	stclvc	6, cr12, [r6], {198}	; 0xc6
c0102b34:	00000000 	andeq	r0, r0, r0
c0102b38:	7c181800 	ldcvc	8, cr1, [r8], {-0}
c0102b3c:	c0c0c0c6 	sbcgt	ip, r0, r6, asr #1
c0102b40:	18187cc6 	ldmdane	r8, {r1, r2, r6, r7, sl, fp, ip, sp, lr}
c0102b44:	00000000 	andeq	r0, r0, r0
c0102b48:	646c3800 	strbtvs	r3, [ip], #-2048	; 0xfffff800
c0102b4c:	6060f060 	rsbvs	pc, r0, r0, rrx
c0102b50:	fce66060 	stc2l	0, cr6, [r6], #384	; 0x180
c0102b54:	00000000 	andeq	r0, r0, r0
c0102b58:	66660000 	strbtvs	r0, [r6], -r0
c0102b5c:	187e183c 	ldmdane	lr!, {r2, r3, r4, r5, fp, ip}^
c0102b60:	1818187e 	ldmdane	r8, {r1, r2, r3, r4, r5, r6, fp, ip}
c0102b64:	00000000 	andeq	r0, r0, r0
c0102b68:	ccccf800 	stclgt	8, cr15, [ip], {0}
c0102b6c:	deccc4f8 	mcrle	4, 6, ip, cr12, cr8, {7}
c0102b70:	c6cccccc 	strbgt	ip, [ip], ip, asr #25
c0102b74:	00000000 	andeq	r0, r0, r0
c0102b78:	181b0e00 	ldmdane	fp, {r9, sl, fp}
c0102b7c:	187e1818 	ldmdane	lr!, {r3, r4, fp, ip}^
c0102b80:	70d81818 	sbcsvc	r1, r8, r8, lsl r8
c0102b84:	00000000 	andeq	r0, r0, r0
c0102b88:	60301800 	eorsvs	r1, r0, r0, lsl #16
c0102b8c:	7c0c7800 	stcvc	8, cr7, [ip], {-0}
c0102b90:	76cccccc 	strbvc	ip, [ip], ip, asr #25
c0102b94:	00000000 	andeq	r0, r0, r0
c0102b98:	30180c00 	andscc	r0, r8, r0, lsl #24
c0102b9c:	18183800 	ldmdane	r8, {fp, ip, sp}
c0102ba0:	3c181818 	ldccc	8, cr1, [r8], {24}
c0102ba4:	00000000 	andeq	r0, r0, r0
c0102ba8:	60301800 	eorsvs	r1, r0, r0, lsl #16
c0102bac:	c6c67c00 	strbgt	r7, [r6], r0, lsl #24
c0102bb0:	7cc6c6c6 	stclvc	6, cr12, [r6], {198}	; 0xc6
c0102bb4:	00000000 	andeq	r0, r0, r0
c0102bb8:	60301800 	eorsvs	r1, r0, r0, lsl #16
c0102bbc:	cccccc00 	stclgt	12, cr12, [ip], {0}
c0102bc0:	76cccccc 	strbvc	ip, [ip], ip, asr #25
c0102bc4:	00000000 	andeq	r0, r0, r0
c0102bc8:	dc760000 	ldclle	0, cr0, [r6], #-0
c0102bcc:	6666dc00 	strbtvs	sp, [r6], -r0, lsl #24
c0102bd0:	66666666 	strbtvs	r6, [r6], -r6, ror #12
c0102bd4:	00000000 	andeq	r0, r0, r0
c0102bd8:	c600dc76 			; <UNDEFINED> instruction: 0xc600dc76
c0102bdc:	defef6e6 	cdple	6, 15, cr15, cr14, cr6, {7}
c0102be0:	c6c6c6ce 	strbgt	ip, [r6], lr, asr #13
c0102be4:	00000000 	andeq	r0, r0, r0
c0102be8:	6c3c0000 	ldcvs	0, cr0, [ip], #-0
c0102bec:	7e003e6c 	cdpvc	14, 0, cr3, cr0, cr12, {3}
	...
c0102bf8:	6c380000 	ldcvs	0, cr0, [r8], #-0
c0102bfc:	7c00386c 	stcvc	8, cr3, [r0], {108}	; 0x6c
	...
c0102c08:	30300000 	eorscc	r0, r0, r0
c0102c0c:	60303000 	eorsvs	r3, r0, r0
c0102c10:	7cc6c6c0 	stclvc	6, cr12, [r6], {192}	; 0xc0
	...
c0102c1c:	c0fe0000 	rscsgt	r0, lr, r0
c0102c20:	00c0c0c0 	sbceq	ip, r0, r0, asr #1
	...
c0102c2c:	06fe0000 	ldrbteq	r0, [lr], r0
c0102c30:	00060606 	andeq	r0, r6, r6, lsl #12
c0102c34:	00000000 	andeq	r0, r0, r0
c0102c38:	62e06000 	rscvs	r6, r0, #0
c0102c3c:	30186c66 	andscc	r6, r8, r6, ror #24
c0102c40:	0c86dc60 	stceq	12, cr13, [r6], {96}	; 0x60
c0102c44:	00003e18 	andeq	r3, r0, r8, lsl lr
c0102c48:	62e06000 	rscvs	r6, r0, #0
c0102c4c:	30186c66 	andscc	r6, r8, r6, ror #24
c0102c50:	3f9ace66 	svccc	0x009ace66
c0102c54:	00000606 	andeq	r0, r0, r6, lsl #12
c0102c58:	18180000 	ldmdane	r8, {}	; <UNPREDICTABLE>
c0102c5c:	18181800 	ldmdane	r8, {fp, ip}
c0102c60:	183c3c3c 	ldmdane	ip!, {r2, r3, r4, r5, sl, fp, ip, sp}
	...
c0102c6c:	d86c3600 	stmdale	ip!, {r9, sl, ip, sp}^
c0102c70:	0000366c 	andeq	r3, r0, ip, ror #12
	...
c0102c7c:	366cd800 	strbtcc	sp, [ip], -r0, lsl #16
c0102c80:	0000d86c 	andeq	sp, r0, ip, ror #16
c0102c84:	00000000 	andeq	r0, r0, r0
c0102c88:	44114411 	ldrmi	r4, [r1], #-1041	; 0xfffffbef
c0102c8c:	44114411 	ldrmi	r4, [r1], #-1041	; 0xfffffbef
c0102c90:	44114411 	ldrmi	r4, [r1], #-1041	; 0xfffffbef
c0102c94:	44114411 	ldrmi	r4, [r1], #-1041	; 0xfffffbef
c0102c98:	aa55aa55 	bge	c166d5f4 <__bss_end+0x156a324>
c0102c9c:	aa55aa55 	bge	c166d5f8 <__bss_end+0x156a328>
c0102ca0:	aa55aa55 	bge	c166d5fc <__bss_end+0x156a32c>
c0102ca4:	aa55aa55 	bge	c166d600 <__bss_end+0x156a330>
c0102ca8:	77dd77dd 			; <UNDEFINED> instruction: 0x77dd77dd
c0102cac:	77dd77dd 			; <UNDEFINED> instruction: 0x77dd77dd
c0102cb0:	77dd77dd 			; <UNDEFINED> instruction: 0x77dd77dd
c0102cb4:	77dd77dd 			; <UNDEFINED> instruction: 0x77dd77dd
c0102cb8:	18181818 	ldmdane	r8, {r3, r4, fp, ip}
c0102cbc:	18181818 	ldmdane	r8, {r3, r4, fp, ip}
c0102cc0:	18181818 	ldmdane	r8, {r3, r4, fp, ip}
c0102cc4:	18181818 	ldmdane	r8, {r3, r4, fp, ip}
c0102cc8:	18181818 	ldmdane	r8, {r3, r4, fp, ip}
c0102ccc:	f8181818 			; <UNDEFINED> instruction: 0xf8181818
c0102cd0:	18181818 	ldmdane	r8, {r3, r4, fp, ip}
c0102cd4:	18181818 	ldmdane	r8, {r3, r4, fp, ip}
c0102cd8:	18181818 	ldmdane	r8, {r3, r4, fp, ip}
c0102cdc:	f818f818 			; <UNDEFINED> instruction: 0xf818f818
c0102ce0:	18181818 	ldmdane	r8, {r3, r4, fp, ip}
c0102ce4:	18181818 	ldmdane	r8, {r3, r4, fp, ip}
c0102ce8:	36363636 			; <UNDEFINED> instruction: 0x36363636
c0102cec:	f6363636 			; <UNDEFINED> instruction: 0xf6363636
c0102cf0:	36363636 			; <UNDEFINED> instruction: 0x36363636
c0102cf4:	36363636 			; <UNDEFINED> instruction: 0x36363636
c0102cf8:	00000000 	andeq	r0, r0, r0
c0102cfc:	fe000000 	cdp2	0, 0, cr0, cr0, cr0, {0}
c0102d00:	36363636 			; <UNDEFINED> instruction: 0x36363636
c0102d04:	36363636 			; <UNDEFINED> instruction: 0x36363636
c0102d08:	00000000 	andeq	r0, r0, r0
c0102d0c:	f818f800 			; <UNDEFINED> instruction: 0xf818f800
c0102d10:	18181818 	ldmdane	r8, {r3, r4, fp, ip}
c0102d14:	18181818 	ldmdane	r8, {r3, r4, fp, ip}
c0102d18:	36363636 			; <UNDEFINED> instruction: 0x36363636
c0102d1c:	f606f636 			; <UNDEFINED> instruction: 0xf606f636
c0102d20:	36363636 			; <UNDEFINED> instruction: 0x36363636
c0102d24:	36363636 			; <UNDEFINED> instruction: 0x36363636
c0102d28:	36363636 			; <UNDEFINED> instruction: 0x36363636
c0102d2c:	36363636 			; <UNDEFINED> instruction: 0x36363636
c0102d30:	36363636 			; <UNDEFINED> instruction: 0x36363636
c0102d34:	36363636 			; <UNDEFINED> instruction: 0x36363636
c0102d38:	00000000 	andeq	r0, r0, r0
c0102d3c:	f606fe00 			; <UNDEFINED> instruction: 0xf606fe00
c0102d40:	36363636 			; <UNDEFINED> instruction: 0x36363636
c0102d44:	36363636 			; <UNDEFINED> instruction: 0x36363636
c0102d48:	36363636 			; <UNDEFINED> instruction: 0x36363636
c0102d4c:	fe06f636 	mcr2	6, 0, pc, cr6, cr6, {1}	; <UNPREDICTABLE>
	...
c0102d58:	36363636 			; <UNDEFINED> instruction: 0x36363636
c0102d5c:	fe363636 	mrc2	6, 1, r3, cr6, cr6, {1}
	...
c0102d68:	18181818 	ldmdane	r8, {r3, r4, fp, ip}
c0102d6c:	f818f818 			; <UNDEFINED> instruction: 0xf818f818
	...
c0102d7c:	f8000000 			; <UNDEFINED> instruction: 0xf8000000
c0102d80:	18181818 	ldmdane	r8, {r3, r4, fp, ip}
c0102d84:	18181818 	ldmdane	r8, {r3, r4, fp, ip}
c0102d88:	18181818 	ldmdane	r8, {r3, r4, fp, ip}
c0102d8c:	1f181818 	svcne	0x00181818
	...
c0102d98:	18181818 	ldmdane	r8, {r3, r4, fp, ip}
c0102d9c:	ff181818 			; <UNDEFINED> instruction: 0xff181818
	...
c0102dac:	ff000000 			; <UNDEFINED> instruction: 0xff000000
c0102db0:	18181818 	ldmdane	r8, {r3, r4, fp, ip}
c0102db4:	18181818 	ldmdane	r8, {r3, r4, fp, ip}
c0102db8:	18181818 	ldmdane	r8, {r3, r4, fp, ip}
c0102dbc:	1f181818 	svcne	0x00181818
c0102dc0:	18181818 	ldmdane	r8, {r3, r4, fp, ip}
c0102dc4:	18181818 	ldmdane	r8, {r3, r4, fp, ip}
c0102dc8:	00000000 	andeq	r0, r0, r0
c0102dcc:	ff000000 			; <UNDEFINED> instruction: 0xff000000
	...
c0102dd8:	18181818 	ldmdane	r8, {r3, r4, fp, ip}
c0102ddc:	ff181818 			; <UNDEFINED> instruction: 0xff181818
c0102de0:	18181818 	ldmdane	r8, {r3, r4, fp, ip}
c0102de4:	18181818 	ldmdane	r8, {r3, r4, fp, ip}
c0102de8:	18181818 	ldmdane	r8, {r3, r4, fp, ip}
c0102dec:	1f181f18 	svcne	0x00181f18
c0102df0:	18181818 	ldmdane	r8, {r3, r4, fp, ip}
c0102df4:	18181818 	ldmdane	r8, {r3, r4, fp, ip}
c0102df8:	36363636 			; <UNDEFINED> instruction: 0x36363636
c0102dfc:	37363636 			; <UNDEFINED> instruction: 0x37363636
c0102e00:	36363636 			; <UNDEFINED> instruction: 0x36363636
c0102e04:	36363636 			; <UNDEFINED> instruction: 0x36363636
c0102e08:	36363636 			; <UNDEFINED> instruction: 0x36363636
c0102e0c:	3f303736 	svccc	0x00303736
	...
c0102e1c:	37303f00 	ldrcc	r3, [r0, -r0, lsl #30]!
c0102e20:	36363636 			; <UNDEFINED> instruction: 0x36363636
c0102e24:	36363636 			; <UNDEFINED> instruction: 0x36363636
c0102e28:	36363636 			; <UNDEFINED> instruction: 0x36363636
c0102e2c:	ff00f736 			; <UNDEFINED> instruction: 0xff00f736
	...
c0102e3c:	f700ff00 			; <UNDEFINED> instruction: 0xf700ff00
c0102e40:	36363636 			; <UNDEFINED> instruction: 0x36363636
c0102e44:	36363636 			; <UNDEFINED> instruction: 0x36363636
c0102e48:	36363636 			; <UNDEFINED> instruction: 0x36363636
c0102e4c:	37303736 			; <UNDEFINED> instruction: 0x37303736
c0102e50:	36363636 			; <UNDEFINED> instruction: 0x36363636
c0102e54:	36363636 			; <UNDEFINED> instruction: 0x36363636
c0102e58:	00000000 	andeq	r0, r0, r0
c0102e5c:	ff00ff00 			; <UNDEFINED> instruction: 0xff00ff00
	...
c0102e68:	36363636 			; <UNDEFINED> instruction: 0x36363636
c0102e6c:	f700f736 			; <UNDEFINED> instruction: 0xf700f736
c0102e70:	36363636 			; <UNDEFINED> instruction: 0x36363636
c0102e74:	36363636 			; <UNDEFINED> instruction: 0x36363636
c0102e78:	18181818 	ldmdane	r8, {r3, r4, fp, ip}
c0102e7c:	ff00ff18 			; <UNDEFINED> instruction: 0xff00ff18
	...
c0102e88:	36363636 			; <UNDEFINED> instruction: 0x36363636
c0102e8c:	ff363636 			; <UNDEFINED> instruction: 0xff363636
	...
c0102e9c:	ff00ff00 			; <UNDEFINED> instruction: 0xff00ff00
c0102ea0:	18181818 	ldmdane	r8, {r3, r4, fp, ip}
c0102ea4:	18181818 	ldmdane	r8, {r3, r4, fp, ip}
c0102ea8:	00000000 	andeq	r0, r0, r0
c0102eac:	ff000000 			; <UNDEFINED> instruction: 0xff000000
c0102eb0:	36363636 			; <UNDEFINED> instruction: 0x36363636
c0102eb4:	36363636 			; <UNDEFINED> instruction: 0x36363636
c0102eb8:	36363636 			; <UNDEFINED> instruction: 0x36363636
c0102ebc:	3f363636 	svccc	0x00363636
	...
c0102ec8:	18181818 	ldmdane	r8, {r3, r4, fp, ip}
c0102ecc:	1f181f18 	svcne	0x00181f18
	...
c0102edc:	1f181f00 	svcne	0x00181f00
c0102ee0:	18181818 	ldmdane	r8, {r3, r4, fp, ip}
c0102ee4:	18181818 	ldmdane	r8, {r3, r4, fp, ip}
c0102ee8:	00000000 	andeq	r0, r0, r0
c0102eec:	3f000000 	svccc	0x00000000
c0102ef0:	36363636 			; <UNDEFINED> instruction: 0x36363636
c0102ef4:	36363636 			; <UNDEFINED> instruction: 0x36363636
c0102ef8:	36363636 			; <UNDEFINED> instruction: 0x36363636
c0102efc:	ff363636 			; <UNDEFINED> instruction: 0xff363636
c0102f00:	36363636 			; <UNDEFINED> instruction: 0x36363636
c0102f04:	36363636 			; <UNDEFINED> instruction: 0x36363636
c0102f08:	18181818 	ldmdane	r8, {r3, r4, fp, ip}
c0102f0c:	ff18ff18 			; <UNDEFINED> instruction: 0xff18ff18
c0102f10:	18181818 	ldmdane	r8, {r3, r4, fp, ip}
c0102f14:	18181818 	ldmdane	r8, {r3, r4, fp, ip}
c0102f18:	18181818 	ldmdane	r8, {r3, r4, fp, ip}
c0102f1c:	f8181818 			; <UNDEFINED> instruction: 0xf8181818
	...
c0102f2c:	1f000000 	svcne	0x00000000
c0102f30:	18181818 	ldmdane	r8, {r3, r4, fp, ip}
c0102f34:	18181818 	ldmdane	r8, {r3, r4, fp, ip}
c0102f38:	ffffffff 			; <UNDEFINED> instruction: 0xffffffff
c0102f3c:	ffffffff 			; <UNDEFINED> instruction: 0xffffffff
c0102f40:	ffffffff 			; <UNDEFINED> instruction: 0xffffffff
c0102f44:	ffffffff 			; <UNDEFINED> instruction: 0xffffffff
c0102f48:	00000000 	andeq	r0, r0, r0
c0102f4c:	ff000000 			; <UNDEFINED> instruction: 0xff000000
c0102f50:	ffffffff 			; <UNDEFINED> instruction: 0xffffffff
c0102f54:	ffffffff 			; <UNDEFINED> instruction: 0xffffffff
c0102f58:	f0f0f0f0 			; <UNDEFINED> instruction: 0xf0f0f0f0
c0102f5c:	f0f0f0f0 			; <UNDEFINED> instruction: 0xf0f0f0f0
c0102f60:	f0f0f0f0 			; <UNDEFINED> instruction: 0xf0f0f0f0
c0102f64:	f0f0f0f0 			; <UNDEFINED> instruction: 0xf0f0f0f0
c0102f68:	0f0f0f0f 	svceq	0x000f0f0f
c0102f6c:	0f0f0f0f 	svceq	0x000f0f0f
c0102f70:	0f0f0f0f 	svceq	0x000f0f0f
c0102f74:	0f0f0f0f 	svceq	0x000f0f0f
c0102f78:	ffffffff 			; <UNDEFINED> instruction: 0xffffffff
c0102f7c:	00ffffff 	ldrshteq	pc, [pc], #255	; <UNPREDICTABLE>
	...
c0102f8c:	d8dc7600 	ldmle	ip, {r9, sl, ip, sp, lr}^
c0102f90:	76dcd8d8 			; <UNDEFINED> instruction: 0x76dcd8d8
c0102f94:	00000000 	andeq	r0, r0, r0
c0102f98:	cc780000 	ldclgt	0, cr0, [r8], #-0
c0102f9c:	ccd8cccc 	ldclgt	12, cr12, [r8], {204}	; 0xcc
c0102fa0:	ccc6c6c6 	stclgt	6, cr12, [r6], {198}	; 0xc6
c0102fa4:	00000000 	andeq	r0, r0, r0
c0102fa8:	c6fe0000 	ldrbtgt	r0, [lr], r0
c0102fac:	c0c0c0c6 	sbcgt	ip, r0, r6, asr #1
c0102fb0:	c0c0c0c0 	sbcgt	ip, r0, r0, asr #1
	...
c0102fbc:	6c6cfe00 	stclvs	14, cr15, [ip], #-0
c0102fc0:	6c6c6c6c 	stclvs	12, cr6, [ip], #-432	; 0xfffffe50
c0102fc4:	00000000 	andeq	r0, r0, r0
c0102fc8:	c6fe0000 	ldrbtgt	r0, [lr], r0
c0102fcc:	18183060 	ldmdane	r8, {r5, r6, ip, sp}
c0102fd0:	fec66030 	mcr2	0, 6, r6, cr6, cr0, {1}
	...
c0102fdc:	d8d87e00 	ldmle	r8, {r9, sl, fp, ip, sp, lr}^
c0102fe0:	70d8d8d8 	ldrsbvc	sp, [r8], #136	; 0x88
	...
c0102fec:	66666600 	strbtvs	r6, [r6], -r0, lsl #12
c0102ff0:	7c666666 	stclvc	6, cr6, [r6], #-408	; 0xfffffe68
c0102ff4:	00c06060 	sbceq	r6, r0, r0, rrx
c0102ff8:	00000000 	andeq	r0, r0, r0
c0102ffc:	1818dc76 	ldmdane	r8, {r1, r2, r4, r5, r6, sl, fp, ip, lr, pc}
c0103000:	18181818 	ldmdane	r8, {r3, r4, fp, ip}
c0103004:	00000000 	andeq	r0, r0, r0
c0103008:	187e0000 	ldmdane	lr!, {}^	; <UNPREDICTABLE>
c010300c:	6666663c 			; <UNDEFINED> instruction: 0x6666663c
c0103010:	7e183c66 	cdpvc	12, 1, cr3, cr8, cr6, {3}
c0103014:	00000000 	andeq	r0, r0, r0
c0103018:	6c380000 	ldcvs	0, cr0, [r8], #-0
c010301c:	c6fec6c6 	ldrbtgt	ip, [lr], r6, asr #13
c0103020:	386cc6c6 	stmdacc	ip!, {r1, r2, r6, r7, r9, sl, lr, pc}^
c0103024:	00000000 	andeq	r0, r0, r0
c0103028:	6c380000 	ldcvs	0, cr0, [r8], #-0
c010302c:	6cc6c6c6 	stclvs	6, cr12, [r6], {198}	; 0xc6
c0103030:	ee6c6c6c 	cdp	12, 6, cr6, cr12, cr12, {3}
c0103034:	00000000 	andeq	r0, r0, r0
c0103038:	301e0000 	andscc	r0, lr, r0
c010303c:	663e0c18 			; <UNDEFINED> instruction: 0x663e0c18
c0103040:	3c666666 	stclcc	6, cr6, [r6], #-408	; 0xfffffe68
	...
c010304c:	dbdb7e00 	blle	bf7e2854 <_start-0x91d7ac>
c0103050:	00007edb 	ldrdeq	r7, [r0], -fp
c0103054:	00000000 	andeq	r0, r0, r0
c0103058:	03000000 	movweq	r0, #0
c010305c:	dbdb7e06 	blle	bf7e287c <_start-0x91d784>
c0103060:	c0607ef3 	strdgt	r7, [r0], #-227	; 0xffffff1d	; <UNPREDICTABLE>
c0103064:	00000000 	andeq	r0, r0, r0
c0103068:	301c0000 	andscc	r0, ip, r0
c010306c:	607c6060 	rsbsvs	r6, ip, r0, rrx
c0103070:	1c306060 	ldcne	0, cr6, [r0], #-384	; 0xfffffe80
c0103074:	00000000 	andeq	r0, r0, r0
c0103078:	7c000000 	stcvc	0, cr0, [r0], {-0}
c010307c:	c6c6c6c6 	strbgt	ip, [r6], r6, asr #13
c0103080:	c6c6c6c6 	strbgt	ip, [r6], r6, asr #13
	...
c010308c:	fe0000fe 	mcr2	0, 0, r0, cr0, cr14, {7}
c0103090:	00fe0000 	rscseq	r0, lr, r0
	...
c010309c:	187e1818 	ldmdane	lr!, {r3, r4, fp, ip}^
c01030a0:	7e000018 	mcrvc	0, 0, r0, cr0, cr8, {0}
c01030a4:	00000000 	andeq	r0, r0, r0
c01030a8:	30000000 	andcc	r0, r0, r0
c01030ac:	0c060c18 	stceq	12, cr0, [r6], {24}
c01030b0:	7e003018 	mcrvc	0, 0, r3, cr0, cr8, {0}
c01030b4:	00000000 	andeq	r0, r0, r0
c01030b8:	0c000000 	stceq	0, cr0, [r0], {-0}
c01030bc:	30603018 	rsbcc	r3, r0, r8, lsl r0
c01030c0:	7e000c18 	mcrvc	12, 0, r0, cr0, cr8, {0}
c01030c4:	00000000 	andeq	r0, r0, r0
c01030c8:	1b0e0000 	blne	c04830d0 <__bss_end+0x37fe00>
c01030cc:	1818181b 	ldmdane	r8, {r0, r1, r3, r4, fp, ip}
c01030d0:	18181818 	ldmdane	r8, {r3, r4, fp, ip}
c01030d4:	18181818 	ldmdane	r8, {r3, r4, fp, ip}
c01030d8:	18181818 	ldmdane	r8, {r3, r4, fp, ip}
c01030dc:	18181818 	ldmdane	r8, {r3, r4, fp, ip}
c01030e0:	d8d8d818 	ldmle	r8, {r3, r4, fp, ip, lr, pc}^
c01030e4:	00000070 	andeq	r0, r0, r0, ror r0
c01030e8:	00000000 	andeq	r0, r0, r0
c01030ec:	7e001800 	cdpvc	8, 0, cr1, cr0, cr0, {0}
c01030f0:	00001800 	andeq	r1, r0, r0, lsl #16
	...
c01030fc:	00dc7600 	sbcseq	r7, ip, r0, lsl #12
c0103100:	0000dc76 	andeq	sp, r0, r6, ror ip
c0103104:	00000000 	andeq	r0, r0, r0
c0103108:	6c6c3800 	stclvs	8, cr3, [ip], #-0
c010310c:	00000038 	andeq	r0, r0, r8, lsr r0
	...
c010311c:	18000000 	stmdane	r0, {}	; <UNPREDICTABLE>
c0103120:	00000018 	andeq	r0, r0, r8, lsl r0
	...
c010312c:	18000000 	stmdane	r0, {}	; <UNPREDICTABLE>
	...
c0103138:	0c0c0f00 	stceq	15, cr0, [ip], {-0}
c010313c:	ec0c0c0c 	stc	12, cr0, [ip], {12}
c0103140:	1c3c6c6c 	ldcne	12, cr6, [ip], #-432	; 0xfffffe50
c0103144:	00000000 	andeq	r0, r0, r0
c0103148:	36366c00 	ldrtcc	r6, [r6], -r0, lsl #24
c010314c:	00363636 	eorseq	r3, r6, r6, lsr r6
	...
c0103158:	0c663c00 	stcleq	12, cr3, [r6], #-0
c010315c:	007e3218 	rsbseq	r3, lr, r8, lsl r2
	...
c010316c:	7e7e7e7e 	mrcvc	14, 3, r7, cr14, cr14, {3}
c0103170:	007e7e7e 	rsbseq	r7, lr, lr, ror lr
	...

c0103188 <.LC0>:
c0103188:	336d7453 	cmncc	sp, #1392508928	; 0x53000000
c010318c:	31706d32 	cmncc	r0, r2, lsr sp
c0103190:	00003735 	andeq	r3, r0, r5, lsr r7

c0103194 <.LC1>:
c0103194:	5f64636c 	svcpl	0x0064636c
c0103198:	00302e37 	eorseq	r2, r0, r7, lsr lr
c010319c:	5f64636c 	svcpl	0x0064636c
c01031a0:	00302e37 	eorseq	r2, r0, r7, lsr lr
c01031a4:	336d7453 	cmncc	sp, #1392508928	; 0x53000000
c01031a8:	31706d32 	cmncc	r0, r2, lsr sp
c01031ac:	Address 0x00000000c01031ac is out of bounds.


Disassembly of section .data:

c01031b0 <lcd_7_0_params>:
c01031b0:	c010319c 	mulsgt	r0, ip, r1
c01031b4:	00000001 	andeq	r0, r0, r1
c01031b8:	00000001 	andeq	r0, r0, r1
	...
c01031c4:	00000003 	andeq	r0, r0, r3
c01031c8:	00000014 	andeq	r0, r0, r4, lsl r0
c01031cc:	0000000c 	andeq	r0, r0, ip
c01031d0:	00000014 	andeq	r0, r0, r4, lsl r0
c01031d4:	0000008c 	andeq	r0, r0, ip, lsl #1
c01031d8:	000000a0 	andeq	r0, r0, r0, lsr #1
c01031dc:	00000033 	andeq	r0, r0, r3, lsr r0
c01031e0:	00000400 	andeq	r0, r0, r0, lsl #8
c01031e4:	00000258 	andeq	r0, r0, r8, asr r2
c01031e8:	00000020 	andeq	r0, r0, r0, lsr #32
c01031ec:	df000000 	svcle	0x00000000

c01031f0 <Stm32mp157_lcd_controller>:
c01031f0:	c01031a4 	andsgt	r3, r0, r4, lsr #3
c01031f4:	c0101bb8 			; <UNDEFINED> instruction: 0xc0101bb8
c01031f8:	c010207c 	andsgt	r2, r0, ip, ror r0
c01031fc:	c01020f0 	ldrshgt	r2, [r0], -r0

Disassembly of section .bss:

c0103200 <__bss_start>:
c0103200:	00000000 	andeq	r0, r0, r0

c0103204 <xres>:
c0103204:	00000000 	andeq	r0, r0, r0

c0103208 <yres>:
c0103208:	00000000 	andeq	r0, r0, r0

c010320c <bpp>:
c010320c:	00000000 	andeq	r0, r0, r0

c0103210 <fb_base>:
c0103210:	00000000 	andeq	r0, r0, r0

c0103214 <xres>:
c0103214:	00000000 	andeq	r0, r0, r0

c0103218 <yres>:
c0103218:	00000000 	andeq	r0, r0, r0

c010321c <bpp>:
c010321c:	00000000 	andeq	r0, r0, r0

c0103220 <p_array_lcd_controller>:
	...

c0103248 <g_p_lcd_controller_selected>:
c0103248:	00000000 	andeq	r0, r0, r0

c010324c <p_array_lcd>:
	...

c0103260 <g_p_lcd_selected>:
c0103260:	00000000 	andeq	r0, r0, r0

c0103264 <RCC_PLL4FRACR>:
c0103264:	00000000 	andeq	r0, r0, r0

c0103268 <RCC_RCK4SELR>:
c0103268:	00000000 	andeq	r0, r0, r0

c010326c <RCC_PLL4CFGR1>:
c010326c:	00000000 	andeq	r0, r0, r0

c0103270 <RCC_PLL4CFGR2>:
c0103270:	00000000 	andeq	r0, r0, r0

c0103274 <RCC_PLL4CR>:
c0103274:	00000000 	andeq	r0, r0, r0

c0103278 <RCC_MP_AHB4ENSETR>:
c0103278:	00000000 	andeq	r0, r0, r0

c010327c <RCC_MP_APB4ENSETR>:
c010327c:	00000000 	andeq	r0, r0, r0

c0103280 <GPIOD_AFRH>:
c0103280:	00000000 	andeq	r0, r0, r0

c0103284 <GPIOD_MODER>:
c0103284:	00000000 	andeq	r0, r0, r0

c0103288 <GPIOE_AFRL>:
c0103288:	00000000 	andeq	r0, r0, r0

c010328c <GPIOE_AFRH>:
c010328c:	00000000 	andeq	r0, r0, r0

c0103290 <GPIOE_MODER>:
c0103290:	00000000 	andeq	r0, r0, r0

c0103294 <GPIOE_ODR>:
c0103294:	00000000 	andeq	r0, r0, r0

c0103298 <GPIOG_AFRH>:
c0103298:	00000000 	andeq	r0, r0, r0

c010329c <GPIOG_AFRL>:
c010329c:	00000000 	andeq	r0, r0, r0

c01032a0 <GPIOG_MODER>:
c01032a0:	00000000 	andeq	r0, r0, r0

c01032a4 <GPIOH_AFRL>:
c01032a4:	00000000 	andeq	r0, r0, r0

c01032a8 <GPIOH_AFRH>:
c01032a8:	00000000 	andeq	r0, r0, r0

c01032ac <GPIOH_MODER>:
c01032ac:	00000000 	andeq	r0, r0, r0

c01032b0 <GPIOI_AFRL>:
c01032b0:	00000000 	andeq	r0, r0, r0

c01032b4 <GPIOI_AFRH>:
c01032b4:	00000000 	andeq	r0, r0, r0

c01032b8 <GPIOI_MODER>:
c01032b8:	00000000 	andeq	r0, r0, r0

c01032bc <GPIOD_OSPEEDR>:
c01032bc:	00000000 	andeq	r0, r0, r0

c01032c0 <GPIOE_OSPEEDR>:
c01032c0:	00000000 	andeq	r0, r0, r0

c01032c4 <GPIOG_OSPEEDR>:
c01032c4:	00000000 	andeq	r0, r0, r0

c01032c8 <GPIOH_OSPEEDR>:
c01032c8:	00000000 	andeq	r0, r0, r0

c01032cc <GPIOI_OSPEEDR>:
c01032cc:	00000000 	andeq	r0, r0, r0

Disassembly of section .ARM.attributes:

00000000 <.ARM.attributes>:
   0:	00003441 	andeq	r3, r0, r1, asr #8
   4:	61656100 	cmnvs	r5, r0, lsl #2
   8:	01006962 	tsteq	r0, r2, ror #18
   c:	0000002a 	andeq	r0, r0, sl, lsr #32
  10:	45563705 	ldrbmi	r3, [r6, #-1797]	; 0xfffff8fb
  14:	070a0600 	streq	r0, [sl, -r0, lsl #12]
  18:	09010841 	stmdbeq	r1, {r0, r6, fp}
  1c:	12060a02 	andne	r0, r6, #8192	; 0x2000
  20:	15011404 	strne	r1, [r1, #-1028]	; 0xfffffbfc
  24:	18031701 	stmdane	r3, {r0, r8, r9, sl, ip}
  28:	1c021a01 			; <UNDEFINED> instruction: 0x1c021a01
  2c:	2a012201 	bcs	48838 <_start-0xc00b77c8>
  30:	44022c01 	strmi	r2, [r2], #-3073	; 0xfffff3ff
  34:	Address 0x0000000000000034 is out of bounds.


Disassembly of section .comment:

00000000 <.comment>:
   0:	3a434347 	bcc	10d0d24 <_start-0xbf02f2dc>
   4:	75422820 	strbvc	r2, [r2, #-2080]	; 0xfffff7e0
   8:	72646c69 	rsbvc	r6, r4, #26880	; 0x6900
   c:	20746f6f 	rsbscs	r6, r4, pc, ror #30
  10:	30323032 	eorscc	r3, r2, r2, lsr r0
  14:	2d32302e 	ldccs	0, cr3, [r2, #-184]!	; 0xffffff48
  18:	31353667 	teqcc	r5, r7, ror #12
  1c:	31356635 	teqcc	r5, r5, lsr r6
  20:	7269642d 	rsbvc	r6, r9, #754974720	; 0x2d000000
  24:	20297974 	eorcs	r7, r9, r4, ror r9
  28:	2e342e38 	mrccs	14, 1, r2, cr4, cr8, {1}
  2c:	Address 0x000000000000002c is out of bounds.


Disassembly of section .debug_line:

00000000 <.debug_line>:
   0:	00000043 	andeq	r0, r0, r3, asr #32
   4:	001e0003 	andseq	r0, lr, r3
   8:	01020000 	mrseq	r0, (UNDEF: 2)
   c:	000d0efb 	strdeq	r0, [sp], -fp
  10:	01010101 	tsteq	r1, r1, lsl #2
  14:	01000000 	mrseq	r0, (UNDEF: 0)
  18:	00010000 	andeq	r0, r1, r0
  1c:	72617473 	rsbvc	r7, r1, #1929379840	; 0x73000000
  20:	00532e74 	subseq	r2, r3, r4, ror lr
  24:	00000000 	andeq	r0, r0, r0
  28:	00020500 	andeq	r0, r2, r0, lsl #10
  2c:	18c01000 	stmiane	r0, {ip}^
  30:	32313030 	eorscc	r3, r1, #48	; 0x30
  34:	2f302f2f 	svccs	0x00302f2f
  38:	03302f2f 	teqeq	r0, #47, 30	; 0xbc
  3c:	0b032e6c 	bleq	cb9f4 <_start-0xc003460c>
  40:	02022f2e 	andeq	r2, r2, #46, 30	; 0xb8
  44:	b7010100 	strlt	r0, [r1, -r0, lsl #2]
  48:	03000002 	movweq	r0, #2
  4c:	00001d00 	andeq	r1, r0, r0, lsl #26
  50:	fb010200 	blx	4085a <_start-0xc00bf7a6>
  54:	01000d0e 	tsteq	r0, lr, lsl #26
  58:	00010101 	andeq	r0, r1, r1, lsl #2
  5c:	00010000 	andeq	r0, r1, r0
  60:	6d000100 	stfvss	f0, [r0, #-0]
  64:	2e6e6961 	vnmulcs.f16	s13, s28, s3	; <UNPREDICTABLE>
  68:	00000063 	andeq	r0, r0, r3, rrx
  6c:	01050000 	mrseq	r0, (UNDEF: 5)
  70:	3c020500 	cfstr32cc	mvfx0, [r2], {-0}
  74:	18c01000 	stmiane	r0, {ip}^
  78:	316e0205 	cmncc	lr, r5, lsl #4
  7c:	05a10a05 	streq	r0, [r1, #2565]!	; 0xa05
  80:	07052e05 	streq	r2, [r5, -r5, lsl #28]
  84:	2e050550 	cfrshl32cs	mvfx5, mvfx0, r0
  88:	052f0a05 	streq	r0, [pc, #-2565]!	; fffff68b <__bss_end+0x3fefc3bb>
  8c:	0b054a03 	bleq	1528a0 <_start-0xbffad760>
  90:	4a04052f 	bmi	101554 <_start-0xbfffeaac>
  94:	02000705 	andeq	r0, r0, #1310720	; 0x140000
  98:	052f0304 	streq	r0, [pc, #-772]!	; fffffd9c <__bss_end+0x3fefcacc>
  9c:	0402000a 	streq	r0, [r2], #-10
  a0:	1b056603 	blne	1598b4 <_start-0xbffa674c>
  a4:	03040200 	movweq	r0, #16896	; 0x4200
  a8:	00120549 	andseq	r0, r2, r9, asr #10
  ac:	66010402 	strvs	r0, [r1], -r2, lsl #8
  b0:	02000405 	andeq	r0, r0, #83886080	; 0x5000000
  b4:	052e0104 	streq	r0, [lr, #-260]!	; 0xfffffefc
  b8:	0402001a 	streq	r0, [r2], #-26	; 0xffffffe6
  bc:	11056502 	tstne	r5, r2, lsl #10
  c0:	01040200 	mrseq	r0, R12_usr
  c4:	00030566 	andeq	r0, r3, r6, ror #10
  c8:	2e010402 	cdpcs	4, 0, cr0, cr1, cr2, {0}
  cc:	056b0705 	strbeq	r0, [fp, #-1797]!	; 0xfffff8fb
  d0:	0a052e05 	beq	14b8ec <_start-0xbffb4714>
  d4:	4a03052f 	bmi	c1598 <_start-0xc003ea68>
  d8:	052f0b05 	streq	r0, [pc, #-2821]!	; fffff5db <__bss_end+0x3fefc30b>
  dc:	07054a04 	streq	r4, [r5, -r4, lsl #20]
  e0:	03040200 	movweq	r0, #16896	; 0x4200
  e4:	000a052f 	andeq	r0, sl, pc, lsr #10
  e8:	66030402 	strvs	r0, [r3], -r2, lsl #8
  ec:	02001b05 	andeq	r1, r0, #5120	; 0x1400
  f0:	05490304 	strbeq	r0, [r9, #-772]	; 0xfffffcfc
  f4:	04020012 	streq	r0, [r2], #-18	; 0xffffffee
  f8:	04056601 	streq	r6, [r5], #-1537	; 0xfffff9ff
  fc:	01040200 	mrseq	r0, R12_usr
 100:	001a052e 	andseq	r0, sl, lr, lsr #10
 104:	65020402 	strvs	r0, [r2, #-1026]	; 0xfffffbfe
 108:	02001105 	andeq	r1, r0, #1073741825	; 0x40000001
 10c:	05660104 	strbeq	r0, [r6, #-260]!	; 0xfffffefc
 110:	04020003 	streq	r0, [r2], #-3
 114:	07052e01 	streq	r2, [r5, -r1, lsl #28]
 118:	2e05056b 	cfsh32cs	mvfx0, mvfx5, #59
 11c:	052f0a05 	streq	r0, [pc, #-2565]!	; fffff71f <__bss_end+0x3fefc44f>
 120:	0b054a03 	bleq	152934 <_start-0xbffad6cc>
 124:	4a04052f 	bmi	1015e8 <_start-0xbfffea18>
 128:	02000705 	andeq	r0, r0, #1310720	; 0x140000
 12c:	052f0304 	streq	r0, [pc, #-772]!	; fffffe30 <__bss_end+0x3fefcb60>
 130:	0402000a 	streq	r0, [r2], #-10
 134:	1b056603 	blne	159948 <_start-0xbffa66b8>
 138:	03040200 	movweq	r0, #16896	; 0x4200
 13c:	00120549 	andseq	r0, r2, r9, asr #10
 140:	66010402 	strvs	r0, [r1], -r2, lsl #8
 144:	02000405 	andeq	r0, r0, #83886080	; 0x5000000
 148:	052e0104 	streq	r0, [lr, #-260]!	; 0xfffffefc
 14c:	0402001a 	streq	r0, [r2], #-26	; 0xffffffe6
 150:	11056502 	tstne	r5, r2, lsl #10
 154:	01040200 	mrseq	r0, R12_usr
 158:	00030566 	andeq	r0, r3, r6, ror #10
 15c:	2e010402 	cdpcs	4, 0, cr0, cr1, cr2, {0}
 160:	056b0705 	strbeq	r0, [fp, #-1797]!	; 0xfffff8fb
 164:	0a052e05 	beq	14b980 <_start-0xbffb4680>
 168:	4a03052f 	bmi	c162c <_start-0xc003e9d4>
 16c:	052f0b05 	streq	r0, [pc, #-2821]!	; fffff66f <__bss_end+0x3fefc39f>
 170:	07054a04 	streq	r4, [r5, -r4, lsl #20]
 174:	03040200 	movweq	r0, #16896	; 0x4200
 178:	000a052f 	andeq	r0, sl, pc, lsr #10
 17c:	66030402 	strvs	r0, [r3], -r2, lsl #8
 180:	02001b05 	andeq	r1, r0, #5120	; 0x1400
 184:	05490304 	strbeq	r0, [r9, #-772]	; 0xfffffcfc
 188:	04020012 	streq	r0, [r2], #-18	; 0xffffffee
 18c:	04056601 	streq	r6, [r5], #-1537	; 0xfffff9ff
 190:	01040200 	mrseq	r0, R12_usr
 194:	001a052e 	andseq	r0, sl, lr, lsr #10
 198:	65020402 	strvs	r0, [r2, #-1026]	; 0xfffffbfe
 19c:	02001105 	andeq	r1, r0, #1073741825	; 0x40000001
 1a0:	05660104 	strbeq	r0, [r6, #-260]!	; 0xfffffefc
 1a4:	04020003 	streq	r0, [r2], #-3
 1a8:	0f052e01 	svceq	0x00052e01
 1ac:	2e0a0586 	cfsh32cs	mvfx0, mvfx10, #-58
 1b0:	05500805 	ldrbeq	r0, [r0, #-2053]	; 0xfffff7fb
 1b4:	0a052e06 	beq	14b9d4 <_start-0xbffb462c>
 1b8:	4a03052f 	bmi	c167c <_start-0xc003e984>
 1bc:	052f0b05 	streq	r0, [pc, #-2821]!	; fffff6bf <__bss_end+0x3fefc3ef>
 1c0:	08054a04 	stmdaeq	r5, {r2, r9, fp, lr}
 1c4:	03040200 	movweq	r0, #16896	; 0x4200
 1c8:	000b052f 	andeq	r0, fp, pc, lsr #10
 1cc:	66030402 	strvs	r0, [r3], -r2, lsl #8
 1d0:	02001b05 	andeq	r1, r0, #5120	; 0x1400
 1d4:	05490304 	strbeq	r0, [r9, #-772]	; 0xfffffcfc
 1d8:	04020012 	streq	r0, [r2], #-18	; 0xffffffee
 1dc:	04056601 	streq	r6, [r5], #-1537	; 0xfffff9ff
 1e0:	01040200 	mrseq	r0, R12_usr
 1e4:	001a052e 	andseq	r0, sl, lr, lsr #10
 1e8:	65020402 	strvs	r0, [r2, #-1026]	; 0xfffffbfe
 1ec:	02001105 	andeq	r1, r0, #1073741825	; 0x40000001
 1f0:	05660104 	strbeq	r0, [r6, #-260]!	; 0xfffffefc
 1f4:	04020003 	streq	r0, [r2], #-3
 1f8:	08052e01 	stmdaeq	r5, {r0, r9, sl, fp, sp}
 1fc:	2e06056b 	cfsh32cs	mvfx0, mvfx6, #59
 200:	052f0a05 	streq	r0, [pc, #-2565]!	; fffff803 <__bss_end+0x3fefc533>
 204:	0b054a03 	bleq	152a18 <_start-0xbffad5e8>
 208:	4a04052f 	bmi	1016cc <_start-0xbfffe934>
 20c:	02000805 	andeq	r0, r0, #327680	; 0x50000
 210:	052f0304 	streq	r0, [pc, #-772]!	; ffffff14 <__bss_end+0x3fefcc44>
 214:	0402000b 	streq	r0, [r2], #-11
 218:	1b056603 	blne	159a2c <_start-0xbffa65d4>
 21c:	03040200 	movweq	r0, #16896	; 0x4200
 220:	00120549 	andseq	r0, r2, r9, asr #10
 224:	66010402 	strvs	r0, [r1], -r2, lsl #8
 228:	02000405 	andeq	r0, r0, #83886080	; 0x5000000
 22c:	052e0104 	streq	r0, [lr, #-260]!	; 0xfffffefc
 230:	0402001a 	streq	r0, [r2], #-26	; 0xffffffe6
 234:	11056502 	tstne	r5, r2, lsl #10
 238:	01040200 	mrseq	r0, R12_usr
 23c:	00030566 	andeq	r0, r3, r6, ror #10
 240:	2e010402 	cdpcs	4, 0, cr0, cr1, cr2, {0}
 244:	056b0805 	strbeq	r0, [fp, #-2053]!	; 0xfffff7fb
 248:	0a052e06 	beq	14ba68 <_start-0xbffb4598>
 24c:	4a03052f 	bmi	c1710 <_start-0xc003e8f0>
 250:	052f0b05 	streq	r0, [pc, #-2821]!	; fffff753 <__bss_end+0x3fefc483>
 254:	08054a04 	stmdaeq	r5, {r2, r9, fp, lr}
 258:	03040200 	movweq	r0, #16896	; 0x4200
 25c:	000b052f 	andeq	r0, fp, pc, lsr #10
 260:	66030402 	strvs	r0, [r3], -r2, lsl #8
 264:	02001b05 	andeq	r1, r0, #5120	; 0x1400
 268:	05490304 	strbeq	r0, [r9, #-772]	; 0xfffffcfc
 26c:	04020012 	streq	r0, [r2], #-18	; 0xffffffee
 270:	04056601 	streq	r6, [r5], #-1537	; 0xfffff9ff
 274:	01040200 	mrseq	r0, R12_usr
 278:	001a052e 	andseq	r0, sl, lr, lsr #10
 27c:	65020402 	strvs	r0, [r2, #-1026]	; 0xfffffbfe
 280:	02001105 	andeq	r1, r0, #1073741825	; 0x40000001
 284:	05660104 	strbeq	r0, [r6, #-260]!	; 0xfffffefc
 288:	04020003 	streq	r0, [r2], #-3
 28c:	08052e01 	stmdaeq	r5, {r0, r9, sl, fp, sp}
 290:	2e06056b 	cfsh32cs	mvfx0, mvfx6, #59
 294:	052f0a05 	streq	r0, [pc, #-2565]!	; fffff897 <__bss_end+0x3fefc5c7>
 298:	0b054a03 	bleq	152aac <_start-0xbffad554>
 29c:	4a04052f 	bmi	101760 <_start-0xbfffe8a0>
 2a0:	02000805 	andeq	r0, r0, #327680	; 0x50000
 2a4:	052f0304 	streq	r0, [pc, #-772]!	; ffffffa8 <__bss_end+0x3fefccd8>
 2a8:	0402000b 	streq	r0, [r2], #-11
 2ac:	1b056603 	blne	159ac0 <_start-0xbffa6540>
 2b0:	03040200 	movweq	r0, #16896	; 0x4200
 2b4:	00120549 	andseq	r0, r2, r9, asr #10
 2b8:	66010402 	strvs	r0, [r1], -r2, lsl #8
 2bc:	02000405 	andeq	r0, r0, #83886080	; 0x5000000
 2c0:	052e0104 	streq	r0, [lr, #-260]!	; 0xfffffefc
 2c4:	0402001a 	streq	r0, [r2], #-26	; 0xffffffe6
 2c8:	11056502 	tstne	r5, r2, lsl #10
 2cc:	01040200 	mrseq	r0, R12_usr
 2d0:	00030566 	andeq	r0, r3, r6, ror #10
 2d4:	2e010402 	cdpcs	4, 0, cr0, cr1, cr2, {0}
 2d8:	306d0205 	rsbcc	r0, sp, r5, lsl #4
 2dc:	0867f368 	stmdaeq	r7!, {r3, r5, r6, r8, r9, ip, sp, lr, pc}^
 2e0:	75086775 	strvc	r6, [r8, #-1909]	; 0xfffff88b
 2e4:	673d0867 	ldrvs	r0, [sp, -r7, ror #16]!
 2e8:	08675908 	stmdaeq	r7!, {r3, r8, fp, ip, lr}^
 2ec:	26026959 			; <UNDEFINED> instruction: 0x26026959
 2f0:	01053116 	tsteq	r5, r6, lsl r1
 2f4:	02056bbb 	andeq	r6, r5, #191488	; 0x2ec00
 2f8:	0105314c 	tsteq	r5, ip, asr #2
 2fc:	0004024c 	andeq	r0, r4, ip, asr #4
 300:	00280101 	eoreq	r0, r8, r1, lsl #2
 304:	00030000 	andeq	r0, r3, r0
 308:	00000022 	andeq	r0, r0, r2, lsr #32
 30c:	0efb0102 	cdpeq	1, 15, cr0, cr11, cr2, {0}
 310:	0101000d 	tsteq	r1, sp
 314:	00000101 	andeq	r0, r0, r1, lsl #2
 318:	00000100 	andeq	r0, r0, r0, lsl #2
 31c:	6f660001 	svcvs	0x00660001
 320:	385f746e 	ldmdacc	pc, {r1, r2, r3, r5, r6, sl, ip, sp, lr}^	; <UNPREDICTABLE>
 324:	2e363178 	mrccs	1, 1, r3, cr6, cr8, {3}
 328:	00000063 	andeq	r0, r0, r3, rrx
 32c:	00d20000 	sbcseq	r0, r2, r0
 330:	00030000 	andeq	r0, r3, r0
 334:	0000001d 	andeq	r0, r0, sp, lsl r0
 338:	0efb0102 	cdpeq	1, 15, cr0, cr11, cr2, {0}
 33c:	0101000d 	tsteq	r1, sp
 340:	00000101 	andeq	r0, r0, r1, lsl #2
 344:	00000100 	andeq	r0, r0, r0, lsl #2
 348:	6f660001 	svcvs	0x00660001
 34c:	632e746e 			; <UNDEFINED> instruction: 0x632e746e
 350:	00000000 	andeq	r0, r0, r0
 354:	00010500 	andeq	r0, r1, r0, lsl #10
 358:	05c40205 	strbeq	r0, [r4, #517]	; 0x205
 35c:	1403c010 	strne	ip, [r3], #-16
 360:	4b020501 	blmi	8176c <_start-0xc007e894>
 364:	21080105 	tstcs	r8, r5, lsl #2
 368:	054a0d03 	strbeq	r0, [sl, #-3331]	; 0xfffff2fd
 36c:	1705f62f 	strne	pc, [r5, -pc, lsr #12]
 370:	8809054a 	stmdahi	r9, {r1, r3, r6, r8, sl}
 374:	054a0205 	strbeq	r0, [sl, #-517]	; 0xfffffdfb
 378:	0805300f 	stmdaeq	r5, {r0, r1, r2, r3, ip, sp}
 37c:	4b070566 	blmi	1c191c <_start-0xbff3e6e4>
 380:	054b0a05 	strbeq	r0, [fp, #-2565]	; 0xfffff5fb
 384:	08054a03 	stmdaeq	r5, {r0, r1, r9, fp, lr}
 388:	82070531 	andhi	r0, r7, #205520896	; 0xc400000
 38c:	054b0505 	strbeq	r0, [fp, #-1285]	; 0xfffffafb
 390:	04020007 	streq	r0, [r2], #-7
 394:	19058302 	stmdbne	r5, {r1, r8, r9, pc}
 398:	02040200 	andeq	r0, r4, #0, 4
 39c:	00110561 	andseq	r0, r1, r1, ror #10
 3a0:	66010402 	strvs	r0, [r1], -r2, lsl #8
 3a4:	02000305 	andeq	r0, r0, #335544320	; 0x14000000
 3a8:	054a0104 	strbeq	r0, [sl, #-260]	; 0xfffffefc
 3ac:	04020019 	streq	r0, [r2], #-25	; 0xffffffe7
 3b0:	10056202 	andne	r6, r5, r2, lsl #4
 3b4:	01040200 	mrseq	r0, R12_usr
 3b8:	00020566 	andeq	r0, r2, r6, ror #10
 3bc:	4a010402 	bmi	413cc <_start-0xc00bec34>
 3c0:	0c030105 	stfeqs	f0, [r3], {5}
 3c4:	660e0366 	strvs	r0, [lr], -r6, ror #6
 3c8:	05d70605 	ldrbeq	r0, [r7, #1541]	; 0x605
 3cc:	0a054c08 	beq	1533f4 <_start-0xbffacc0c>
 3d0:	82060530 	andhi	r0, r6, #48, 10	; 0xc000000
 3d4:	830f054b 	movwhi	r0, #62795	; 0xf54b
 3d8:	05820b05 	streq	r0, [r2, #2821]	; 0xb05
 3dc:	1b054b06 	blne	152ffc <_start-0xbffad004>
 3e0:	6604056a 	strvs	r0, [r4], -sl, ror #10
 3e4:	059f0605 	ldreq	r0, [pc, #1541]	; 9f1 <_start-0xc00ff60f>
 3e8:	0705670a 	streq	r6, [r5, -sl, lsl #14]
 3ec:	054b6866 	strbeq	r6, [fp, #-2150]	; 0xfffff79a
 3f0:	0c056904 			; <UNDEFINED> instruction: 0x0c056904
 3f4:	05666f03 	strbeq	r6, [r6, #-3843]!	; 0xfffff0fd
 3f8:	01058208 	tsteq	r5, r8, lsl #4
 3fc:	024a1303 	subeq	r1, sl, #201326592	; 0xc000000
 400:	01010006 	tsteq	r1, r6
 404:	00000202 	andeq	r0, r0, r2, lsl #4
 408:	00210003 	eoreq	r0, r1, r3
 40c:	01020000 	mrseq	r0, (UNDEF: 2)
 410:	000d0efb 	strdeq	r0, [sp], -fp
 414:	01010101 	tsteq	r1, r1, lsl #2
 418:	01000000 	mrseq	r0, (UNDEF: 0)
 41c:	00010000 	andeq	r0, r1, r0
 420:	6d6f6567 	cfstr64vs	mvdx6, [pc, #-412]!	; 28c <_start-0xc00ffd74>
 424:	79727465 	ldmdbvc	r2!, {r0, r2, r5, r6, sl, ip, sp, lr}^
 428:	0000632e 	andeq	r6, r0, lr, lsr #6
 42c:	05000000 	streq	r0, [r0, #-0]
 430:	02050002 	andeq	r0, r5, #2
 434:	c01007e0 	andsgt	r0, r0, r0, ror #15
 438:	05011d03 	streq	r1, [r1, #-3331]	; 0xfffff2fd
 43c:	054bd805 	strbeq	sp, [fp, #-2053]	; 0xfffff7fb
 440:	04054b08 	streq	r4, [r5], #-2824	; 0xfffff4f8
 444:	08210830 	stmdaeq	r1!, {r4, r5, fp}
 448:	08210821 	stmdaeq	r1!, {r0, r5, fp}
 44c:	08210822 	stmdaeq	r1!, {r1, r5, fp}
 450:	05210821 	streq	r0, [r1, #-2081]!	; 0xfffff7df
 454:	05220805 	streq	r0, [r2, #-2053]!	; 0xfffff7fb
 458:	1505670d 	strne	r6, [r5, #-1805]	; 0xfffff8f3
 45c:	66110566 	ldrvs	r0, [r1], -r6, ror #10
 460:	052e1d05 	streq	r1, [lr, #-3333]!	; 0xfffff2fb
 464:	06056608 	streq	r6, [r5], -r8, lsl #12
 468:	0567684b 	strbeq	r6, [r7, #-2123]!	; 0xfffff7b5
 46c:	666f0310 			; <UNDEFINED> instruction: 0x666f0310
 470:	059e1905 	ldreq	r1, [lr, #2309]	; 0x905
 474:	02056608 	andeq	r6, r5, #8, 12	; 0x800000
 478:	034a1403 	movteq	r1, #41987	; 0xa403
 47c:	0505660f 	streq	r6, [r5, #-1551]	; 0xfffff9f1
 480:	058383d8 	streq	r8, [r3, #984]	; 0x3d8
 484:	07056806 	streq	r6, [r5, -r6, lsl #16]
 488:	840d0568 	strhi	r0, [sp], #-1384	; 0xfffffa98
 48c:	05ba0705 	ldreq	r0, [sl, #1797]!	; 0x705
 490:	0705670b 	streq	r6, [r5, -fp, lsl #14]
 494:	9f090530 	svcls	0x00090530
 498:	02001105 	andeq	r1, r0, #1073741825	; 0x40000001
 49c:	05660104 	strbeq	r0, [r6, #-260]!	; 0xfffffefc
 4a0:	04020016 	streq	r0, [r2], #-22	; 0xffffffea
 4a4:	09056601 	stmdbeq	r5, {r0, r9, sl, sp, lr}
 4a8:	67080583 	strvs	r0, [r8, -r3, lsl #11]
 4ac:	057d0b05 	ldrbeq	r0, [sp, #-2821]!	; 0xfffff4fb
 4b0:	00e60302 	rsceq	r0, r6, r2, lsl #6
 4b4:	030d0582 	movweq	r0, #54658	; 0xd582
 4b8:	052e7fa4 	streq	r7, [lr, #-4004]!	; 0xfffff05c
 4bc:	0b05ba07 	bleq	16ece0 <_start-0xbff91320>
 4c0:	30070567 	andcc	r0, r7, r7, ror #10
 4c4:	059f0905 	ldreq	r0, [pc, #2309]	; dd1 <_start-0xc00ff22f>
 4c8:	04020011 	streq	r0, [r2], #-17	; 0xffffffef
 4cc:	16056601 	strne	r6, [r5], -r1, lsl #12
 4d0:	01040200 	mrseq	r0, R12_usr
 4d4:	83090566 	movwhi	r0, #38246	; 0x9566
 4d8:	05670805 	strbeq	r0, [r7, #-2053]!	; 0xfffff7fb
 4dc:	02057d0b 	andeq	r7, r5, #704	; 0x2c0
 4e0:	8200db03 	andhi	sp, r0, #3072	; 0xc00
 4e4:	b0030705 	andlt	r0, r3, r5, lsl #14
 4e8:	05672e7f 	strbeq	r2, [r7, #-3711]!	; 0xfffff181
 4ec:	0705840d 	streq	r8, [r5, -sp, lsl #8]
 4f0:	670b05ba 			; <UNDEFINED> instruction: 0x670b05ba
 4f4:	05300705 	ldreq	r0, [r0, #-1797]!	; 0xfffff8fb
 4f8:	11059f09 	tstne	r5, r9, lsl #30
 4fc:	01040200 	mrseq	r0, R12_usr
 500:	00160566 	andseq	r0, r6, r6, ror #10
 504:	66010402 	strvs	r0, [r1], -r2, lsl #8
 508:	05830905 	streq	r0, [r3, #2309]	; 0x905
 50c:	0b056708 	bleq	15a134 <_start-0xbffa5ecc>
 510:	0302057d 	movweq	r0, #9597	; 0x257d
 514:	058200cc 	streq	r0, [r2, #204]	; 0xcc
 518:	7fbe030d 	svcvc	0x00be030d
 51c:	ba07052e 	blt	1c19dc <_start-0xbff3e624>
 520:	05670b05 	strbeq	r0, [r7, #-2821]!	; 0xfffff4fb
 524:	09053007 	stmdbeq	r5, {r0, r1, r2, ip, sp}
 528:	0011059f 	mulseq	r1, pc, r5	; <UNPREDICTABLE>
 52c:	66010402 	strvs	r0, [r1], -r2, lsl #8
 530:	02001605 	andeq	r1, r0, #5242880	; 0x500000
 534:	05660104 	strbeq	r0, [r6, #-260]!	; 0xfffffefc
 538:	08058309 	stmdaeq	r5, {r0, r3, r8, r9, pc}
 53c:	7d0b0567 	cfstr32vc	mvfx0, [fp, #-412]	; 0xfffffe64
 540:	c1030205 	tstgt	r3, r5, lsl #4
 544:	06058200 	streq	r8, [r5], -r0, lsl #4
 548:	672e4b03 	strvs	r4, [lr, -r3, lsl #22]!
 54c:	05680705 	strbeq	r0, [r8, #-1797]!	; 0xfffff8fb
 550:	0705840d 	streq	r8, [r5, -sp, lsl #8]
 554:	670b05ba 			; <UNDEFINED> instruction: 0x670b05ba
 558:	05300705 	ldreq	r0, [r0, #-1797]!	; 0xfffff8fb
 55c:	11059f09 	tstne	r5, r9, lsl #30
 560:	01040200 	mrseq	r0, R12_usr
 564:	00160566 	andseq	r0, r6, r6, ror #10
 568:	66010402 	strvs	r0, [r1], -r2, lsl #8
 56c:	05830905 	streq	r0, [r3, #2309]	; 0x905
 570:	0b056708 	bleq	15a198 <_start-0xbffa5e68>
 574:	0302057d 	movweq	r0, #9597	; 0x257d
 578:	0d05822f 	sfmeq	f0, 1, [r5, #-188]	; 0xffffff44
 57c:	052e5b03 	streq	r5, [lr, #-2819]!	; 0xfffff4fd
 580:	0b05ba07 	bleq	16eda4 <_start-0xbff9125c>
 584:	30070567 	andcc	r0, r7, r7, ror #10
 588:	059f0905 	ldreq	r0, [pc, #2309]	; e95 <_start-0xc00ff16b>
 58c:	04020011 	streq	r0, [r2], #-17	; 0xffffffef
 590:	16056601 	strne	r6, [r5], -r1, lsl #12
 594:	01040200 	mrseq	r0, R12_usr
 598:	83090566 	movwhi	r0, #38246	; 0x9566
 59c:	05670805 	strbeq	r0, [r7, #-2053]!	; 0xfffff7fb
 5a0:	02057d0b 	andeq	r7, r5, #704	; 0x2c0
 5a4:	05822403 	streq	r2, [r2, #1027]	; 0x403
 5a8:	2e670307 	cdpcs	3, 6, cr0, cr7, cr7, {0}
 5ac:	840d0567 	strhi	r0, [sp], #-1383	; 0xfffffa99
 5b0:	05ba0705 	ldreq	r0, [sl, #1797]!	; 0x705
 5b4:	0705670b 	streq	r6, [r5, -fp, lsl #14]
 5b8:	9f090530 	svcls	0x00090530
 5bc:	02001105 	andeq	r1, r0, #1073741825	; 0x40000001
 5c0:	05660104 	strbeq	r0, [r6, #-260]!	; 0xfffffefc
 5c4:	04020016 	streq	r0, [r2], #-22	; 0xffffffea
 5c8:	09056601 	stmdbeq	r5, {r0, r9, sl, sp, lr}
 5cc:	67080583 	strvs	r0, [r8, -r3, lsl #11]
 5d0:	057d0b05 	ldrbeq	r0, [sp, #-2821]!	; 0xfffff4fb
 5d4:	82150302 	andshi	r0, r5, #134217728	; 0x8000000
 5d8:	75030d05 	strvc	r0, [r3, #-3333]	; 0xfffff2fb
 5dc:	ba07052e 	blt	1c1a9c <_start-0xbff3e564>
 5e0:	05670b05 	strbeq	r0, [r7, #-2821]!	; 0xfffff4fb
 5e4:	09053007 	stmdbeq	r5, {r0, r1, r2, ip, sp}
 5e8:	0011059f 	mulseq	r1, pc, r5	; <UNPREDICTABLE>
 5ec:	66010402 	strvs	r0, [r1], -r2, lsl #8
 5f0:	02001605 	andeq	r1, r0, #5242880	; 0x500000
 5f4:	05660104 	strbeq	r0, [r6, #-260]!	; 0xfffffefc
 5f8:	08058309 	stmdaeq	r5, {r0, r3, r8, r9, pc}
 5fc:	7d0b0567 	cfstr32vc	mvfx0, [fp, #-412]	; 0xfffffe64
 600:	0a030205 	beq	c0e1c <_start-0xc003f1e4>
 604:	00060282 	andeq	r0, r6, r2, lsl #5
 608:	00a60101 	adceq	r0, r6, r1, lsl #2
 60c:	00030000 	andeq	r0, r3, r0
 610:	00000024 	andeq	r0, r0, r4, lsr #32
 614:	0efb0102 	cdpeq	1, 15, cr0, cr11, cr2, {0}
 618:	0101000d 	tsteq	r1, sp
 61c:	00000101 	andeq	r0, r0, r1, lsl #2
 620:	00000100 	andeq	r0, r0, r0, lsl #2
 624:	72660001 	rsbvc	r0, r6, #1
 628:	62656d61 	rsbvs	r6, r5, #6208	; 0x1840
 62c:	65666675 	strbvs	r6, [r6, #-1653]!	; 0xfffff98b
 630:	00632e72 	rsbeq	r2, r3, r2, ror lr
 634:	00000000 	andeq	r0, r0, r0
 638:	05000105 	streq	r0, [r0, #-261]	; 0xfffffefb
 63c:	100f3002 	andne	r3, pc, r2
 640:	011503c0 	tsteq	r5, r0, asr #7
 644:	054b0205 	strbeq	r0, [fp, #-517]	; 0xfffffdfb
 648:	4e210801 	cdpmi	8, 2, cr0, cr1, cr1, {0}
 64c:	05830f05 	streq	r0, [r3, #3845]	; 0xf05
 650:	0f054a06 	svceq	0x00054a06
 654:	4a06054b 	bmi	181b88 <_start-0xbff7e478>
 658:	054b0e05 	strbeq	r0, [fp, #-3589]	; 0xfffff1fb
 65c:	04052e06 	streq	r2, [r5], #-3590	; 0xfffff1fa
 660:	0567674d 	strbeq	r6, [r7, #-1869]!	; 0xfffff8b3
 664:	1205680c 	andne	r6, r5, #12, 16	; 0xc0000
 668:	2e16054a 	cfmac32cs	mvfx0, mvfx6, mvfx10
 66c:	054a1205 	strbeq	r1, [sl, #-517]	; 0xfffffdfb
 670:	0105661b 	tsteq	r5, fp, lsl r6
 674:	8212039f 	andshi	r0, r2, #2080374786	; 0x7c000002
 678:	05be2c05 	ldreq	r2, [lr, #3077]!	; 0xc05
 67c:	3705d632 	smladxcc	r5, r2, r6, sp
 680:	662405ba 			; <UNDEFINED> instruction: 0x662405ba
 684:	05823f05 	streq	r3, [r2, #3845]	; 0xf05
 688:	0f059e45 	svceq	0x00059e45
 68c:	4c02059e 	cfstr32mi	mvfx0, [r2], {158}	; 0x9e
 690:	0b030105 	bleq	c0aac <_start-0xc003f554>
 694:	030705d6 	movweq	r0, #30166	; 0x75d6
 698:	0a052e78 	beq	14c080 <_start-0xbffb3f80>
 69c:	8208054b 	andhi	r0, r8, #314572800	; 0x12c00000
 6a0:	054b0405 	strbeq	r0, [fp, #-1029]	; 0xfffffbfb
 6a4:	09053008 	stmdbeq	r5, {r3, ip, sp}
 6a8:	6704054b 	strvs	r0, [r4, -fp, asr #10]
 6ac:	02300105 	eorseq	r0, r0, #1073741825	; 0x40000001
 6b0:	01010006 	tsteq	r1, r6
 6b4:	00000159 	andeq	r0, r0, r9, asr r1
 6b8:	005c0003 	subseq	r0, ip, r3
 6bc:	01020000 	mrseq	r0, (UNDEF: 2)
 6c0:	000d0efb 	strdeq	r0, [sp], -fp
 6c4:	01010101 	tsteq	r1, r1, lsl #2
 6c8:	01000000 	mrseq	r0, (UNDEF: 0)
 6cc:	00010000 	andeq	r0, r1, r0
 6d0:	5f64636c 	svcpl	0x0064636c
 6d4:	746e6f63 	strbtvc	r6, [lr], #-3939	; 0xfffff09d
 6d8:	6c6c6f72 	stclvs	15, cr6, [ip], #-456	; 0xfffffe38
 6dc:	6d5f7265 	lfmvs	f7, 2, [pc, #-404]	; 550 <_start-0xc00ffab0>
 6e0:	67616e61 	strbvs	r6, [r1, -r1, ror #28]!
 6e4:	632e7265 			; <UNDEFINED> instruction: 0x632e7265
 6e8:	00000000 	andeq	r0, r0, r0
 6ec:	5f64636c 	svcpl	0x0064636c
 6f0:	616e616d 	cmnvs	lr, sp, ror #2
 6f4:	2e726567 	cdpcs	5, 7, cr6, cr2, cr7, {3}
 6f8:	00000068 	andeq	r0, r0, r8, rrx
 6fc:	64636c00 	strbtvs	r6, [r3], #-3072	; 0xfffff400
 700:	6e6f635f 	mcrvs	3, 3, r6, cr15, cr15, {2}
 704:	6c6f7274 	sfmvs	f7, 2, [pc], #-464	; 53c <_start-0xc00ffac4>
 708:	5f72656c 	svcpl	0x0072656c
 70c:	616e616d 	cmnvs	lr, sp, ror #2
 710:	2e726567 	cdpcs	5, 7, cr6, cr2, cr7, {3}
 714:	00000068 	andeq	r0, r0, r8, rrx
 718:	01050000 	mrseq	r0, (UNDEF: 5)
 71c:	08020500 	stmdaeq	r2, {r8, sl}
 720:	03c01011 	biceq	r1, r0, #17
 724:	10050114 	andne	r0, r5, r4, lsl r1
 728:	4a1905a2 	bmi	641db8 <_start-0xbfabe248>
 72c:	05661605 	strbeq	r1, [r6, #-1541]!	; 0xfffff9fb
 730:	0e052e14 	mcreq	14, 0, r2, cr5, cr4, {0}
 734:	2e06054a 	cfsh32cs	mvfx0, mvfx6, #42
 738:	02002905 	andeq	r2, r0, #81920	; 0x14000
 73c:	054a0104 	strbeq	r0, [sl, #-260]	; 0xfffffefc
 740:	04020026 	streq	r0, [r2], #-38	; 0xffffffda
 744:	22056601 	andcs	r6, r5, #1048576	; 0x100000
 748:	01040200 	mrseq	r0, R12_usr
 74c:	4a06052e 	bmi	181c0c <_start-0xbff7e3f4>
 750:	05320905 	ldreq	r0, [r2, #-2309]!	; 0xfffff6fb
 754:	0d032f01 	stceq	15, cr2, [r3, #-4]
 758:	84090582 	strhi	r0, [r9], #-1410	; 0xfffffa7e
 75c:	054a0205 	strbeq	r0, [sl, #-517]	; 0xfffffdfb
 760:	0605301e 			; <UNDEFINED> instruction: 0x0605301e
 764:	4c1e0582 	cfldr32mi	mvfx0, [lr], {130}	; 0x82
 768:	059f0b05 	ldreq	r0, [pc, #2821]	; 1275 <_start-0xc00fed8b>
 76c:	04020027 	streq	r0, [r2], #-39	; 0xffffffd9
 770:	02054502 	andeq	r4, r5, #8388608	; 0x800000
 774:	01040200 	mrseq	r0, R12_usr
 778:	6e090566 	cfsh32vs	mvfx0, mvfx9, #54
 77c:	032f0105 			; <UNDEFINED> instruction: 0x032f0105
 780:	0905820d 	stmdbeq	r5, {r0, r2, r3, r9, pc}
 784:	4a020584 	bmi	81d9c <_start-0xc007e264>
 788:	05301d05 	ldreq	r1, [r0, #-3333]!	; 0xfffff2fb
 78c:	42058206 	andmi	r8, r5, #1610612736	; 0x60000000
 790:	01040200 	mrseq	r0, R12_usr
 794:	0045054a 	subeq	r0, r5, sl, asr #10
 798:	82010402 	andhi	r0, r1, #33554432	; 0x2000000
 79c:	02002505 	andeq	r2, r0, #20971520	; 0x1400000
 7a0:	052e0104 	streq	r0, [lr, #-260]!	; 0xfffffefc
 7a4:	04020021 	streq	r0, [r2], #-33	; 0xffffffdf
 7a8:	38058201 	stmdacc	r5, {r0, r9, pc}
 7ac:	8220054c 	eorhi	r0, r0, #76, 10	; 0x13000000
 7b0:	05670b05 	strbeq	r0, [r7, #-2821]!	; 0xfffff4fb
 7b4:	04020027 	streq	r0, [r2], #-39	; 0xffffffd9
 7b8:	02054502 	andeq	r4, r5, #8388608	; 0x800000
 7bc:	01040200 	mrseq	r0, R12_usr
 7c0:	6e090566 	cfsh32vs	mvfx0, mvfx9, #54
 7c4:	032f0105 			; <UNDEFINED> instruction: 0x032f0105
 7c8:	0605660d 	streq	r6, [r5], -sp, lsl #12
 7cc:	66050583 	strvs	r0, [r5], -r3, lsl #11
 7d0:	054c1e05 	strbeq	r1, [ip, #-3589]	; 0xfffff1fb
 7d4:	0a058203 	beq	160fe8 <_start-0xbff9f018>
 7d8:	4c09054b 	cfstr32mi	mvfx0, [r9], {75}	; 0x4b
 7dc:	032f0105 			; <UNDEFINED> instruction: 0x032f0105
 7e0:	0605660d 	streq	r6, [r5], -sp, lsl #12
 7e4:	6605054b 	strvs	r0, [r5], -fp, asr #10
 7e8:	054c1e05 	strbeq	r1, [ip, #-3589]	; 0xfffff1fb
 7ec:	01058203 	tsteq	r5, r3, lsl #4
 7f0:	4a0d0330 	bmi	3414b8 <_start-0xbfdbeb48>
 7f4:	054b0605 	strbeq	r0, [fp, #-1541]	; 0xfffff9fb
 7f8:	1e056605 	cfmadd32ne	mvax0, mvfx6, mvfx5, mvfx5
 7fc:	8203054c 	andhi	r0, r3, #76, 10	; 0x13000000
 800:	03300105 	teqeq	r0, #1073741825	; 0x40000001
 804:	02054a0d 	andeq	r4, r5, #53248	; 0xd000
 808:	2f01054b 	svccs	0x0001054b
 80c:	01000402 	tsteq	r0, r2, lsl #8
 810:	00010c01 	andeq	r0, r1, r1, lsl #24
 814:	35000300 	strcc	r0, [r0, #-768]	; 0xfffffd00
 818:	02000000 	andeq	r0, r0, #0
 81c:	0d0efb01 	vstreq	d15, [lr, #-4]
 820:	01010100 	mrseq	r0, (UNDEF: 17)
 824:	00000001 	andeq	r0, r0, r1
 828:	01000001 	tsteq	r0, r1
 82c:	64636c00 	strbtvs	r6, [r3], #-3072	; 0xfffff400
 830:	6e616d5f 	mcrvs	13, 3, r6, cr1, cr15, {2}
 834:	72656761 	rsbvc	r6, r5, #25427968	; 0x1840000
 838:	0000632e 	andeq	r6, r0, lr, lsr #6
 83c:	636c0000 	cmnvs	ip, #0
 840:	616d5f64 	cmnvs	sp, r4, ror #30
 844:	6567616e 	strbvs	r6, [r7, #-366]!	; 0xfffffe92
 848:	00682e72 	rsbeq	r2, r8, r2, ror lr
 84c:	00000000 	andeq	r0, r0, r0
 850:	05000105 	streq	r0, [r0, #-261]	; 0xfffffefb
 854:	10137802 	andsne	r7, r3, r2, lsl #16
 858:	011403c0 	tsteq	r4, r0, asr #7
 85c:	05830805 	streq	r0, [r3, #2053]	; 0x805
 860:	0402000a 	streq	r0, [r2], #-10
 864:	08052e01 	stmdaeq	r5, {r0, r9, sl, fp, sp}
 868:	01040200 	mrseq	r0, R12_usr
 86c:	4b010566 	blmi	41e0c <_start-0xc00be1f4>
 870:	05820e03 	streq	r0, [r2, #3587]	; 0xe03
 874:	02058409 	andeq	r8, r5, #150994944	; 0x9000000
 878:	3013054a 	andscc	r0, r3, sl, asr #10
 87c:	05820605 	streq	r0, [r2, #1541]	; 0x605
 880:	0b054c13 	bleq	1538d4 <_start-0xbffac72c>
 884:	001c059f 	mulseq	ip, pc, r5	; <UNPREDICTABLE>
 888:	45020402 	strmi	r0, [r2, #-1026]	; 0xfffffbfe
 88c:	02000205 	andeq	r0, r0, #1342177280	; 0x50000000
 890:	05660104 	strbeq	r0, [r6, #-260]!	; 0xfffffefc
 894:	01056e09 	tsteq	r5, r9, lsl #28
 898:	0905852f 	stmdbeq	r5, {r0, r1, r2, r3, r5, r8, sl, pc}
 89c:	4a020584 	bmi	81eb4 <_start-0xc007e14c>
 8a0:	05301205 	ldreq	r1, [r0, #-517]!	; 0xfffffdfb
 8a4:	2c058206 	sfmcs	f0, 1, [r5], {6}
 8a8:	01040200 	mrseq	r0, R12_usr
 8ac:	002f054a 	eoreq	r0, pc, sl, asr #10
 8b0:	82010402 	andhi	r0, r1, #33554432	; 0x2000000
 8b4:	02001a05 	andeq	r1, r0, #20480	; 0x5000
 8b8:	052e0104 	streq	r0, [lr, #-260]!	; 0xfffffefc
 8bc:	04020016 	streq	r0, [r2], #-22	; 0xffffffea
 8c0:	22058201 	andcs	r8, r5, #268435456	; 0x10000000
 8c4:	8215054c 	andshi	r0, r5, #76, 10	; 0x13000000
 8c8:	05670b05 	strbeq	r0, [r7, #-2821]!	; 0xfffff4fb
 8cc:	0402001c 	streq	r0, [r2], #-28	; 0xffffffe4
 8d0:	02054502 	andeq	r4, r5, #8388608	; 0x800000
 8d4:	01040200 	mrseq	r0, R12_usr
 8d8:	6e090566 	cfsh32vs	mvfx0, mvfx9, #54
 8dc:	032f0105 			; <UNDEFINED> instruction: 0x032f0105
 8e0:	1d05660d 	stcne	6, cr6, [r5, #-52]	; 0xffffffcc
 8e4:	820b05d7 	andhi	r0, fp, #901775360	; 0x35c00000
 8e8:	054b1a05 	strbeq	r1, [fp, #-2565]	; 0xfffff5fb
 8ec:	1a058208 	bne	161114 <_start-0xbff9eeec>
 8f0:	8208054b 	andhi	r0, r8, #314572800	; 0x12c00000
 8f4:	054b1905 	strbeq	r1, [fp, #-2309]	; 0xfffff6fb
 8f8:	01058207 	tsteq	r5, r7, lsl #4
 8fc:	820e034b 	andhi	r0, lr, #738197505	; 0x2c000001
 900:	054b0205 	strbeq	r0, [fp, #-517]	; 0xfffffdfb
 904:	0d032f01 	stceq	15, cr2, [r3, #-4]
 908:	4b02054a 	blmi	81e38 <_start-0xc007e1c8>
 90c:	032f0105 			; <UNDEFINED> instruction: 0x032f0105
 910:	02054a0d 	andeq	r4, r5, #53248	; 0xd000
 914:	6931314c 	ldmdbvs	r1!, {r2, r3, r6, r8, ip, sp}
 918:	9f010568 	svcls	0x00010568
 91c:	01000402 	tsteq	r0, r2, lsl #8
 920:	00004e01 	andeq	r4, r0, r1, lsl #28
 924:	31000300 	mrscc	r0, LR_irq
 928:	02000000 	andeq	r0, r0, #0
 92c:	0d0efb01 	vstreq	d15, [lr, #-4]
 930:	01010100 	mrseq	r0, (UNDEF: 17)
 934:	00000001 	andeq	r0, r0, r1
 938:	01000001 	tsteq	r0, r1
 93c:	64636c00 	strbtvs	r6, [r3], #-3072	; 0xfffff400
 940:	305f375f 	subscc	r3, pc, pc, asr r7	; <UNPREDICTABLE>
 944:	0000632e 	andeq	r6, r0, lr, lsr #6
 948:	636c0000 	cmnvs	ip, #0
 94c:	616d5f64 	cmnvs	sp, r4, ror #30
 950:	6567616e 	strbvs	r6, [r7, #-366]!	; 0xfffffe92
 954:	00682e72 	rsbeq	r2, r8, r2, ror lr
 958:	00000000 	andeq	r0, r0, r0
 95c:	05000105 	streq	r0, [r0, #-261]	; 0xfffffefb
 960:	1015d002 	andsne	sp, r5, r2
 964:	012b03c0 	smlawteq	fp, r0, r3, r0
 968:	054b0205 	strbeq	r0, [fp, #-517]	; 0xfffffdfb
 96c:	04026701 	streq	r6, [r2], #-1793	; 0xfffff8ff
 970:	35010100 	strcc	r0, [r1, #-256]	; 0xffffff00
 974:	03000003 	movweq	r0, #3
 978:	00006800 	andeq	r6, r0, r0, lsl #16
 97c:	fb010200 	blx	41186 <_start-0xc00bee7a>
 980:	01000d0e 	tsteq	r0, lr, lsl #26
 984:	00010101 	andeq	r0, r1, r1, lsl #2
 988:	00010000 	andeq	r0, r1, r0
 98c:	53000100 	movwpl	r0, #256	; 0x100
 990:	32336d74 	eorscc	r6, r3, #116, 26	; 0x1d00
 994:	3531706d 	ldrcc	r7, [r1, #-109]!	; 0xffffff93
 998:	6f635f37 	svcvs	0x00635f37
 99c:	00632e6e 	rsbeq	r2, r3, lr, ror #28
 9a0:	53000000 	movwpl	r0, #0
 9a4:	32336d74 	eorscc	r6, r3, #116, 26	; 0x1d00
 9a8:	3531706d 	ldrcc	r7, [r1, #-109]!	; 0xffffff93
 9ac:	6f735f37 	svcvs	0x00735f37
 9b0:	00682e63 	rsbeq	r2, r8, r3, ror #28
 9b4:	6c000000 	stcvs	0, cr0, [r0], {-0}
 9b8:	6d5f6463 	cfldrdvs	mvd6, [pc, #-396]	; 834 <_start-0xc00ff7cc>
 9bc:	67616e61 	strbvs	r6, [r1, -r1, ror #28]!
 9c0:	682e7265 	stmdavs	lr!, {r0, r2, r5, r6, r9, ip, sp, lr}
 9c4:	00000000 	andeq	r0, r0, r0
 9c8:	5f64636c 	svcpl	0x0064636c
 9cc:	746e6f63 	strbtvc	r6, [lr], #-3939	; 0xfffff09d
 9d0:	6c6c6f72 	stclvs	15, cr6, [ip], #-456	; 0xfffffe38
 9d4:	6d5f7265 	lfmvs	f7, 2, [pc, #-404]	; 848 <_start-0xc00ff7b8>
 9d8:	67616e61 	strbvs	r6, [r1, -r1, ror #28]!
 9dc:	682e7265 	stmdavs	lr!, {r0, r2, r5, r6, r9, ip, sp, lr}
 9e0:	00000000 	andeq	r0, r0, r0
 9e4:	00010500 	andeq	r0, r1, r0, lsl #10
 9e8:	15ec0205 	strbne	r0, [ip, #517]!	; 0x205
 9ec:	2103c010 	tstcs	r3, r0, lsl r0
 9f0:	4b170501 	blmi	5c1dfc <_start-0xbfb3e204>
 9f4:	9f9f9f9f 	svcls	0x009f9f9f
 9f8:	0310059f 	tsteq	r0, #666894336	; 0x27c00000
 9fc:	21089e0c 	tstcs	r8, ip, lsl #28
 a00:	22081105 	andcs	r1, r8, #1073741825	; 0x40000001
 a04:	21082108 	tstcs	r8, r8, lsl #2
 a08:	21083e08 	tstcs	r8, r8, lsl #28
 a0c:	22080e05 	andcs	r0, r8, #5, 28	; 0x50
 a10:	21080705 	tstcs	r8, r5, lsl #14
 a14:	02000a05 	andeq	r0, r0, #20480	; 0x5000
 a18:	052e0104 	streq	r0, [lr, #-260]!	; 0xfffffefc
 a1c:	04020016 	streq	r0, [r2], #-22	; 0xffffffea
 a20:	07058201 	streq	r8, [r5, -r1, lsl #4]
 a24:	01040200 	mrseq	r0, R12_usr
 a28:	4b0e052e 	blmi	381ee8 <_start-0xbfd7e118>
 a2c:	22081505 	andcs	r1, r8, #20971520	; 0x1400000
 a30:	01052108 	tsteq	r5, r8, lsl #2
 a34:	05842108 	streq	r2, [r4, #264]	; 0x108
 a38:	12054b10 	andne	r4, r5, #16, 22	; 0x4000
 a3c:	9f11059f 	svcls	0x0011059f
 a40:	05a01005 	streq	r1, [r0, #5]!
 a44:	059f9f12 	ldreq	r9, [pc, #3858]	; 195e <_start-0xc00fe6a2>
 a48:	11059f13 	tstne	r5, r3, lsl pc
 a4c:	a010059f 	mulsge	r0, pc, r5	; <UNPREDICTABLE>
 a50:	9f9f1205 	svcls	0x009f1205
 a54:	059f1105 	ldreq	r1, [pc, #261]	; b61 <_start-0xc00ff49f>
 a58:	1205a010 	andne	sl, r5, #16
 a5c:	11059f9f 			; <UNDEFINED> instruction: 0x11059f9f
 a60:	a010059f 	mulsge	r0, pc, r5	; <UNPREDICTABLE>
 a64:	9f9f1205 	svcls	0x009f1205
 a68:	059f1105 	ldreq	r1, [pc, #261]	; b75 <_start-0xc00ff48b>
 a6c:	1205a102 	andne	sl, r5, #-2147483648	; 0x80000000
 a70:	4b020566 	blmi	82010 <_start-0xc007dff0>
 a74:	05661205 	strbeq	r1, [r6, #-517]!	; 0xfffffdfb
 a78:	12054b02 	andne	r4, r5, #2048	; 0x800
 a7c:	4b020566 	blmi	8201c <_start-0xc007dfe4>
 a80:	05661205 	strbeq	r1, [r6, #-517]!	; 0xfffffdfb
 a84:	12054b02 	andne	r4, r5, #2048	; 0x800
 a88:	4c020566 	cfstr32mi	mvfx0, [r2], {102}	; 0x66
 a8c:	05661005 	strbeq	r1, [r6, #-5]!
 a90:	10054b02 	andne	r4, r5, r2, lsl #22
 a94:	4c020566 	cfstr32mi	mvfx0, [r2], {102}	; 0x66
 a98:	05661005 	strbeq	r1, [r6, #-5]!
 a9c:	10056702 	andne	r6, r5, r2, lsl #14
 aa0:	67020566 	strvs	r0, [r2, -r6, ror #10]
 aa4:	05661005 	strbeq	r1, [r6, #-5]!
 aa8:	10054c02 	andne	r4, r5, r2, lsl #24
 aac:	67020566 	strvs	r0, [r2, -r6, ror #10]
 ab0:	05661005 	strbeq	r1, [r6, #-5]!
 ab4:	10056702 	andne	r6, r5, r2, lsl #14
 ab8:	4c020566 	cfstr32mi	mvfx0, [r2], {102}	; 0x66
 abc:	05661005 	strbeq	r1, [r6, #-5]!
 ac0:	10056702 	andne	r6, r5, r2, lsl #14
 ac4:	67020566 	strvs	r0, [r2, -r6, ror #10]
 ac8:	05661005 	strbeq	r1, [r6, #-5]!
 acc:	10054c02 	andne	r4, r5, r2, lsl #24
 ad0:	67020566 	strvs	r0, [r2, -r6, ror #10]
 ad4:	05661005 	strbeq	r1, [r6, #-5]!
 ad8:	10054b02 	andne	r4, r5, r2, lsl #22
 adc:	680f0566 	stmdavs	pc, {r1, r2, r5, r6, r8, sl}	; <UNPREDICTABLE>
 ae0:	01052108 	tsteq	r5, r8, lsl #2
 ae4:	05842108 	streq	r2, [r4, #264]	; 0x108
 ae8:	05308502 	ldreq	r8, [r0, #-1282]!	; 0xfffffafe
 aec:	4c05312f 	stfmis	f3, [r5], {47}	; 0x2f
 af0:	4a51054a 	bmi	1442020 <_start-0xbecbdfe0>
 af4:	052e3505 	streq	r3, [lr, #-1285]!	; 0xfffffafb
 af8:	13052e07 	movwne	r2, #24071	; 0x5e07
 afc:	3107054a 	tstcc	r7, sl, asr #10
 b00:	4c4a1305 	mcrrmi	3, 0, r1, sl, cr5
 b04:	05662b05 	strbeq	r2, [r6, #-2821]!	; 0xfffff4fb
 b08:	30054a46 	andcc	r4, r5, r6, asr #20
 b0c:	2e50054a 	cdpcs	5, 5, cr0, cr0, cr10, {2}
 b10:	844a1305 	strbhi	r1, [sl], #-773	; 0xfffffcfb
 b14:	05662b05 	strbeq	r2, [r6, #-2821]!	; 0xfffff4fb
 b18:	30054a46 	andcc	r4, r5, r6, asr #20
 b1c:	2e4b054a 	cdpcs	5, 4, cr0, cr11, cr10, {2}
 b20:	052e5005 	streq	r5, [lr, #-5]!
 b24:	07054a13 	smladeq	r5, r3, sl, r4
 b28:	4a130585 	bmi	4c2144 <_start-0xbfc3debc>
 b2c:	662b054c 	strtvs	r0, [fp], -ip, asr #10
 b30:	054a4605 	strbeq	r4, [sl, #-1541]	; 0xfffff9fb
 b34:	57054a30 	smladxpl	r5, r0, sl, r4
 b38:	4a4b052e 	bmi	12c1ff8 <_start-0xbee3e008>
 b3c:	052e6305 	streq	r6, [lr, #-773]!	; 0xfffffcfb
 b40:	05844a13 	streq	r4, [r4, #2579]	; 0xa13
 b44:	4605662b 	strmi	r6, [r5], -fp, lsr #12
 b48:	4a30054a 	bmi	c02078 <_start-0xbf4fdf88>
 b4c:	052e5705 	streq	r5, [lr, #-1797]!	; 0xfffff8fb
 b50:	5e054a4b 	vmlspl.f32	s8, s10, s22
 b54:	2e63052e 	cdpcs	5, 6, cr0, cr3, cr14, {1}
 b58:	054a1305 	strbeq	r1, [sl, #-773]	; 0xfffffcfb
 b5c:	13058507 	movwne	r8, #21767	; 0x5507
 b60:	2b054c4a 	blcs	153c90 <_start-0xbffac370>
 b64:	4a460566 	bmi	1182104 <_start-0xbef7defc>
 b68:	054a3005 	strbeq	r3, [sl, #-5]
 b6c:	4b052e57 	blmi	14c4d0 <_start-0xbffb3b30>
 b70:	2e74054a 	cdpcs	5, 7, cr0, cr4, cr10, {2}
 b74:	054a5e05 	strbeq	r5, [sl, #-3589]	; 0xfffff1fb
 b78:	13052e7e 	movwne	r2, #24190	; 0x5e7e
 b7c:	2b05844a 	blcs	161cac <_start-0xbff9e354>
 b80:	4a460566 	bmi	1182120 <_start-0xbef7dee0>
 b84:	054a3005 	strbeq	r3, [sl, #-5]
 b88:	4b052e57 	blmi	14c4ec <_start-0xbffb3b14>
 b8c:	2e74054a 	cdpcs	5, 7, cr0, cr4, cr10, {2}
 b90:	054a5e05 	strbeq	r5, [sl, #-3589]	; 0xfffff1fb
 b94:	7e052e79 	mcrvc	14, 0, r2, cr5, cr9, {3}
 b98:	4a13052e 	bmi	4c2058 <_start-0xbfc3dfa8>
 b9c:	d8851205 	stmle	r5, {r0, r2, r9, ip}
 ba0:	05662905 	strbeq	r2, [r6, #-2309]!	; 0xfffff6fb
 ba4:	12054a30 	andne	r4, r5, #48, 20	; 0x30000
 ba8:	2905844a 	stmdbcs	r5, {r1, r3, r6, sl, pc}
 bac:	4a300566 	bmi	c0214c <_start-0xbf4fdeb4>
 bb0:	844a1205 	strbhi	r1, [sl], #-517	; 0xfffffdfb
 bb4:	05662905 	strbeq	r2, [r6, #-2309]!	; 0xfffff6fb
 bb8:	12054a30 	andne	r4, r5, #48, 20	; 0x30000
 bbc:	2905844a 	stmdbcs	r5, {r1, r3, r6, sl, pc}
 bc0:	4a300566 	bmi	c02160 <_start-0xbf4fdea0>
 bc4:	054a1205 	strbeq	r1, [sl, #-517]	; 0xfffffdfb
 bc8:	2e058516 	mcrcs	5, 0, r8, cr5, cr6, {0}
 bcc:	4a490566 	bmi	124216c <_start-0xbeebde94>
 bd0:	054a3305 	strbeq	r3, [sl, #-773]	; 0xfffffcfb
 bd4:	4e052e5a 	mcrmi	14, 0, r2, cr5, cr10, {2}
 bd8:	2e61054a 	cdpcs	5, 6, cr0, cr1, cr10, {2}
 bdc:	052e6605 	streq	r6, [lr, #-1541]!	; 0xfffff9fb
 be0:	052e0183 	streq	r0, [lr, #-387]!	; 0xfffffe7d
 be4:	054a019e 	strbeq	r0, [sl, #-414]	; 0xfffffe62
 be8:	054a0188 	strbeq	r0, [sl, #-392]	; 0xfffffe78
 bec:	16052e6c 	strne	r2, [r5], -ip, ror #28
 bf0:	2e05844a 	cdpcs	4, 0, cr8, cr5, cr10, {2}
 bf4:	4a490566 	bmi	1242194 <_start-0xbeebde6c>
 bf8:	054a3305 	strbeq	r3, [sl, #-773]	; 0xfffffcfb
 bfc:	4e052e5a 	mcrmi	14, 0, r2, cr5, cr10, {2}
 c00:	2e61054a 	cdpcs	5, 6, cr0, cr1, cr10, {2}
 c04:	052e6605 	streq	r6, [lr, #-1541]!	; 0xfffff9fb
 c08:	052e0183 	streq	r0, [lr, #-387]!	; 0xfffffe7d
 c0c:	054a019e 	strbeq	r0, [sl, #-414]	; 0xfffffe62
 c10:	054a0188 	strbeq	r0, [sl, #-392]	; 0xfffffe78
 c14:	16052e6c 	strne	r2, [r5], -ip, ror #28
 c18:	8423054a 	strthi	r0, [r3], #-1354	; 0xfffffab6
 c1c:	054a3705 	strbeq	r3, [sl, #-1797]	; 0xfffff8fb
 c20:	2a054a3c 	bcs	153518 <_start-0xbffacae8>
 c24:	2e41052e 	cdpcs	5, 4, cr0, cr1, cr14, {1}
 c28:	052e5305 	streq	r5, [lr, #-773]!	; 0xfffffcfb
 c2c:	6c054a67 			; <UNDEFINED> instruction: 0x6c054a67
 c30:	2e5a054a 	cdpcs	5, 5, cr0, cr10, cr10, {2}
 c34:	052e7105 	streq	r7, [lr, #-261]!	; 0xfffffefb
 c38:	07052e46 	streq	r2, [r5, -r6, asr #28]
 c3c:	4a16052e 	bmi	5820fc <_start-0xbfb7df04>
 c40:	05302305 	ldreq	r2, [r0, #-773]!	; 0xfffffcfb
 c44:	17054a07 	strne	r4, [r5, -r7, lsl #20]
 c48:	3107054a 	tstcc	r7, sl, asr #10
 c4c:	054a1505 	strbeq	r1, [sl, #-1285]	; 0xfffffafb
 c50:	4a0a0307 	bmi	281874 <_start-0xbfe7e78c>
 c54:	054a1505 	strbeq	r1, [sl, #-1285]	; 0xfffffafb
 c58:	06054d17 			; <UNDEFINED> instruction: 0x06054d17
 c5c:	a10d054a 	tstge	sp, sl, asr #10
 c60:	054a0405 	strbeq	r0, [sl, #-1029]	; 0xfffffbfb
 c64:	0405300d 	streq	r3, [r5], #-13
 c68:	300d054a 	andcc	r0, sp, sl, asr #10
 c6c:	054a0405 	strbeq	r0, [sl, #-1029]	; 0xfffffbfb
 c70:	17053108 	strne	r3, [r5, -r8, lsl #2]
 c74:	4b16054a 	blmi	5821a4 <_start-0xbfb7de5c>
 c78:	05f40805 	ldrbeq	r0, [r4, #2053]!	; 0x805
 c7c:	17054a23 	strne	r4, [r5, -r3, lsr #20]
 c80:	3014054a 	andscc	r0, r4, sl, asr #10
 c84:	68d80105 	ldmvs	r8, {r0, r2, r8}^
 c88:	d84b1305 	stmdale	fp, {r0, r2, r8, r9, ip}^
 c8c:	05d80d05 	ldrbeq	r0, [r8, #3333]	; 0xd05
 c90:	84210801 	strthi	r0, [r1], #-2049	; 0xfffff7ff
 c94:	054b1205 	strbeq	r1, [fp, #-517]	; 0xfffffdfb
 c98:	0105d80d 	tsteq	r5, sp, lsl #16
 c9c:	14032108 	strne	r2, [r3], #-264	; 0xfffffef8
 ca0:	4b020582 	blmi	822b0 <_start-0xc007dd50>
 ca4:	02670105 	rsbeq	r0, r7, #1073741825	; 0x40000001
 ca8:	01010004 	tsteq	r1, r4

Disassembly of section .debug_info:

00000000 <.debug_info>:
       0:	00000022 	andeq	r0, r0, r2, lsr #32
       4:	00000002 	andeq	r0, r0, r2
       8:	01040000 	mrseq	r0, (UNDEF: 4)
       c:	00000000 	andeq	r0, r0, r0
      10:	c0100000 	andsgt	r0, r0, r0
      14:	c010003c 	andsgt	r0, r0, ip, lsr r0
      18:	00000000 	andeq	r0, r0, r0
      1c:	00000008 	andeq	r0, r0, r8
      20:	0000002f 	andeq	r0, r0, pc, lsr #32
      24:	00e88001 	rsceq	r8, r8, r1
      28:	00040000 	andeq	r0, r4, r0
      2c:	00000014 	andeq	r0, r0, r4, lsl r0
      30:	00550104 	subseq	r0, r5, r4, lsl #2
      34:	3b0c0000 	blcc	30003c <_start-0xbfdfffc4>
      38:	08000000 	stmdaeq	r0, {}	; <UNPREDICTABLE>
      3c:	3c000000 	stccc	0, cr0, [r0], {-0}
      40:	88c01000 	stmiahi	r0, {ip}^
      44:	47000005 	strmi	r0, [r0, -r5]
      48:	02000000 	andeq	r0, r0, #0
      4c:	00e10704 	rsceq	r0, r1, r4, lsl #14
      50:	04030000 	streq	r0, [r3], #-0
      54:	746e6905 	strbtvc	r6, [lr], #-2309	; 0xfffff6fb
      58:	08010200 	stmdaeq	r1, {r9}
      5c:	00000108 	andeq	r0, r0, r8, lsl #2
      60:	00004204 	andeq	r4, r0, r4, lsl #4
      64:	05700100 	ldrbeq	r0, [r0, #-256]!	; 0xffffff00
      68:	0000002c 	andeq	r0, r0, ip, lsr #32
      6c:	c01005a8 	andsgt	r0, r0, r8, lsr #11
      70:	0000001c 	andeq	r0, r0, ip, lsl r0
      74:	4c059c01 	stcmi	12, cr9, [r5], {1}
      78:	01000000 	mrseq	r0, (UNDEF: 0)
      7c:	003c0606 	eorseq	r0, ip, r6, lsl #12
      80:	056cc010 	strbeq	ip, [ip, #-16]!
      84:	9c010000 	stcls	0, cr0, [r1], {-0}
      88:	000000d8 	ldrdeq	r0, [r0], -r8
      8c:	0000d306 	andeq	sp, r0, r6, lsl #6
      90:	0f080100 	svceq	0x00080100
      94:	00000025 	andeq	r0, r0, r5, lsr #32
      98:	06649102 	strbteq	r9, [r4], -r2, lsl #2
      9c:	00000047 	andeq	r0, r0, r7, asr #32
      a0:	2c060901 			; <UNDEFINED> instruction: 0x2c060901
      a4:	02000000 	andeq	r0, r0, #0
      a8:	ee066091 	mcr	0, 0, r6, cr6, cr1, {4}
      ac:	01000000 	mrseq	r0, (UNDEF: 0)
      b0:	002c0c09 	eoreq	r0, ip, r9, lsl #24
      b4:	91020000 	mrsls	r0, (UNDEF: 2)
      b8:	7062075c 	rsbvc	r0, r2, ip, asr r7
      bc:	09010070 	stmdbeq	r1, {r4, r5, r6}
      c0:	00002c12 	andeq	r2, r0, r2, lsl ip
      c4:	58910200 	ldmpl	r1, {r9}
      c8:	01007807 	tsteq	r0, r7, lsl #16
      cc:	002c060a 	eoreq	r0, ip, sl, lsl #12
      d0:	91020000 	mrsls	r0, (UNDEF: 2)
      d4:	00790774 	rsbseq	r0, r9, r4, ror r7
      d8:	2c090a01 			; <UNDEFINED> instruction: 0x2c090a01
      dc:	02000000 	andeq	r0, r0, #0
      e0:	70077091 	mulvc	r7, r1, r0
      e4:	120b0100 	andne	r0, fp, #0, 2
      e8:	000000d8 	ldrdeq	r0, [r0], -r8
      ec:	076c9102 	strbeq	r9, [ip, -r2, lsl #2]!
      f0:	01003270 	tsteq	r0, r0, ror r2
      f4:	00e5100c 	rsceq	r1, r5, ip
      f8:	91020000 	mrsls	r0, (UNDEF: 2)
      fc:	04080068 	streq	r0, [r8], #-104	; 0xffffff98
     100:	000000de 	ldrdeq	r0, [r0], -lr
     104:	db070202 	blle	1c0914 <_start-0xbff3f6ec>
     108:	08000000 	stmdaeq	r0, {}	; <UNPREDICTABLE>
     10c:	00002504 	andeq	r2, r0, r4, lsl #10
     110:	00550000 	subseq	r0, r5, r0
     114:	00040000 	andeq	r0, r4, r0
     118:	000000a1 	andeq	r0, r0, r1, lsr #1
     11c:	00550104 	subseq	r0, r5, r4, lsl #2
     120:	f30c0000 	vhadd.u8	d0, d12, d0
     124:	08000000 	stmdaeq	r0, {}	; <UNPREDICTABLE>
     128:	02000000 	andeq	r0, r0, #0
     12c:	02000003 	andeq	r0, r0, #3
     130:	00000041 	andeq	r0, r0, r1, asr #32
     134:	0000002e 	andeq	r0, r0, lr, lsr #32
     138:	00003303 	andeq	r3, r0, r3, lsl #6
     13c:	000fff00 	andeq	pc, pc, r0, lsl #30
     140:	00001d04 	andeq	r1, r0, r4, lsl #26
     144:	07040500 	streq	r0, [r4, -r0, lsl #10]
     148:	000000e1 	andeq	r0, r0, r1, ror #1
     14c:	ff080105 			; <UNDEFINED> instruction: 0xff080105
     150:	04000000 	streq	r0, [r0], #-0
     154:	0000003a 	andeq	r0, r0, sl, lsr r0
     158:	00010d06 	andeq	r0, r1, r6, lsl #26
     15c:	150a0100 	strne	r0, [sl, #-256]	; 0xffffff00
     160:	0000002e 	andeq	r0, r0, lr, lsr #32
     164:	21880305 	orrcs	r0, r8, r5, lsl #6
     168:	bf00c010 	svclt	0x0000c010
     16c:	04000001 	streq	r0, [r0], #-1
     170:	0000e800 	andeq	lr, r0, r0, lsl #16
     174:	55010400 	strpl	r0, [r1, #-1024]	; 0xfffffc00
     178:	0c000000 	stceq	0, cr0, [r0], {-0}
     17c:	0000011b 	andeq	r0, r0, fp, lsl r1
     180:	00000008 	andeq	r0, r0, r8
     184:	c01005c4 	andsgt	r0, r0, r4, asr #11
     188:	0000021c 	andeq	r0, r0, ip, lsl r2
     18c:	0000032e 	andeq	r0, r0, lr, lsr #6
     190:	e1070402 	tst	r7, r2, lsl #8
     194:	03000000 	movweq	r0, #0
     198:	6e690504 	cdpvs	5, 6, cr0, cr9, cr4, {0}
     19c:	04040074 	streq	r0, [r4], #-116	; 0xffffff8c
     1a0:	00000039 	andeq	r0, r0, r9, lsr r0
     1a4:	08080102 	stmdaeq	r8, {r1, r8}
     1a8:	05000001 	streq	r0, [r0, #-1]
     1ac:	00000057 	andeq	r0, r0, r7, asr r0
     1b0:	0000004b 	andeq	r0, r0, fp, asr #32
     1b4:	40070006 	andmi	r0, r7, r6
     1b8:	02000000 	andeq	r0, r0, #0
     1bc:	00ff0801 	rscseq	r0, pc, r1, lsl #16
     1c0:	50070000 	andpl	r0, r7, r0
     1c4:	08000000 	stmdaeq	r0, {}	; <UNPREDICTABLE>
     1c8:	0000010d 	andeq	r0, r0, sp, lsl #2
     1cc:	4b1c0401 	blmi	7011d8 <_start-0xbf9fee28>
     1d0:	09000000 	stmdbeq	r0, {}	; <UNPREDICTABLE>
     1d4:	000000d3 	ldrdeq	r0, [r0], -r3
     1d8:	25150601 	ldrcs	r0, [r5, #-1537]	; 0xfffff9ff
     1dc:	05000000 	streq	r0, [r0, #-0]
     1e0:	10320003 	eorsne	r0, r2, r3
     1e4:	004709c0 	subeq	r0, r7, r0, asr #19
     1e8:	07010000 	streq	r0, [r1, -r0]
     1ec:	00002c0c 	andeq	r2, r0, ip, lsl #24
     1f0:	04030500 	streq	r0, [r3], #-1280	; 0xfffffb00
     1f4:	09c01032 	stmibeq	r0, {r1, r4, r5, ip}^
     1f8:	000000ee 	andeq	r0, r0, lr, ror #1
     1fc:	2c120701 	ldccs	7, cr0, [r2], {1}
     200:	05000000 	streq	r0, [r0, #-0]
     204:	10320803 	eorsne	r0, r2, r3, lsl #16
     208:	70620ac0 	rsbvc	r0, r2, r0, asr #21
     20c:	07010070 	smlsdxeq	r1, r0, r0, r0
     210:	00002c18 	andeq	r2, r0, r8, lsl ip
     214:	0c030500 	cfstr32eq	mvfx0, [r3], {-0}
     218:	0bc01032 	bleq	ff0042e8 <__bss_end+0x3ef01018>
     21c:	0000014a 	andeq	r0, r0, sl, asr #2
     220:	e4064701 	str	r4, [r6], #-1793	; 0xfffff8ff
     224:	fcc01006 	stc2l	0, cr1, [r0], {6}
     228:	01000000 	mrseq	r0, (UNDEF: 0)
     22c:	0001169c 	muleq	r1, ip, r6
     230:	00780c00 	rsbseq	r0, r8, r0, lsl #24
     234:	2c1a4701 	ldccs	7, cr4, [sl], {1}
     238:	02000000 	andeq	r0, r0, #0
     23c:	790c6c91 	stmdbvc	ip, {r0, r4, r7, sl, fp, sp, lr}
     240:	21470100 	mrscs	r0, (UNDEF: 87)
     244:	0000002c 	andeq	r0, r0, ip, lsr #32
     248:	0c689102 	stfeqp	f1, [r8], #-8
     24c:	00727473 	rsbseq	r7, r2, r3, ror r4
     250:	332a4701 			; <UNDEFINED> instruction: 0x332a4701
     254:	02000000 	andeq	r0, r0, #0
     258:	3a0d6491 	bcc	3594a4 <_start-0xbfda6b5c>
     25c:	01000001 	tsteq	r0, r1
     260:	00253c47 	eoreq	r3, r5, r7, asr #24
     264:	91020000 	mrsls	r0, (UNDEF: 2)
     268:	00690a60 	rsbeq	r0, r9, r0, ror #20
     26c:	2c064901 			; <UNDEFINED> instruction: 0x2c064901
     270:	02000000 	andeq	r0, r0, #0
     274:	6a0e7491 	bvs	39d4c0 <_start-0xbfd62b40>
     278:	0d490100 	stfeqe	f0, [r9, #-0]
     27c:	0000002c 	andeq	r0, r0, ip, lsr #32
     280:	01220b00 			; <UNDEFINED> instruction: 0x01220b00
     284:	23010000 	movwcs	r0, #4096	; 0x1000
     288:	1005f806 	andne	pc, r5, r6, lsl #16
     28c:	0000ecc0 	andeq	lr, r0, r0, asr #25
     290:	aa9c0100 	bge	fe700698 <__bss_end+0x3e5fd3c8>
     294:	0c000001 	stceq	0, cr0, [r0], {1}
     298:	23010078 	movwcs	r0, #4216	; 0x1078
     29c:	00002c18 	andeq	r2, r0, r8, lsl ip
     2a0:	5c910200 	lfmpl	f0, 4, [r1], {0}
     2a4:	0100790c 	tsteq	r0, ip, lsl #18
     2a8:	002c1f23 	eoreq	r1, ip, r3, lsr #30
     2ac:	91020000 	mrsls	r0, (UNDEF: 2)
     2b0:	00630c58 	rsbeq	r0, r3, r8, asr ip
     2b4:	39272301 	stmdbcc	r7!, {r0, r8, r9, sp}
     2b8:	02000000 	andeq	r0, r0, #0
     2bc:	3a0d5791 	bcc	356108 <_start-0xbfda9ef8>
     2c0:	01000001 	tsteq	r0, r1
     2c4:	00253723 	eoreq	r3, r5, r3, lsr #14
     2c8:	91020000 	mrsls	r0, (UNDEF: 2)
     2cc:	00690a50 	rsbeq	r0, r9, r0, asr sl
     2d0:	2c062501 	cfstr32cs	mvfx2, [r6], {1}
     2d4:	02000000 	andeq	r0, r0, #0
     2d8:	6a0a7491 	bvs	29d524 <_start-0xbfe62adc>
     2dc:	09250100 	stmdbeq	r5!, {r8}
     2e0:	0000002c 	andeq	r0, r0, ip, lsr #32
     2e4:	09709102 	ldmdbeq	r0!, {r1, r8, ip, pc}^
     2e8:	00000130 	andeq	r0, r0, r0, lsr r1
     2ec:	aa172801 	bge	5ca2f8 <_start-0xbfb35d08>
     2f0:	02000001 	andeq	r0, r0, #1
     2f4:	35096c91 	strcc	r6, [r9, #-3217]	; 0xfffff36f
     2f8:	01000001 	tsteq	r0, r1
     2fc:	0050102a 	subseq	r1, r0, sl, lsr #32
     300:	91020000 	mrsls	r0, (UNDEF: 2)
     304:	69620a67 	stmdbvs	r2!, {r0, r1, r2, r5, r6, r9, fp}^
     308:	2b010074 	blcs	404e0 <_start-0xc00bfb20>
     30c:	00002c06 	andeq	r2, r0, r6, lsl #24
     310:	68910200 	ldmvs	r1, {r9}
     314:	57040400 	strpl	r0, [r4, -r0, lsl #8]
     318:	0f000000 	svceq	0x00000000
     31c:	00000140 	andeq	r0, r0, r0, asr #2
     320:	c4061401 	strgt	r1, [r6], #-1025	; 0xfffffbff
     324:	34c01005 	strbcc	r1, [r0], #5
     328:	01000000 	mrseq	r0, (UNDEF: 0)
     32c:	0122009c 			; <UNDEFINED> instruction: 0x0122009c
     330:	00040000 	andeq	r0, r4, r0
     334:	000001cc 	andeq	r0, r0, ip, asr #3
     338:	00550104 	subseq	r0, r5, r4, lsl #2
     33c:	5a0c0000 	bpl	300344 <_start-0xbfdffcbc>
     340:	08000001 	stmdaeq	r0, {r0}
     344:	e0000000 	and	r0, r0, r0
     348:	50c01007 	sbcpl	r1, r0, r7
     34c:	04000007 	streq	r0, [r0], #-7
     350:	02000004 	andeq	r0, r0, #4
     354:	00000171 	andeq	r0, r0, r1, ror r1
     358:	c4074401 	strgt	r4, [r7], #-1025	; 0xfffffbff
     35c:	6cc01009 	stclvs	0, cr1, [r0], {9}
     360:	01000005 	tsteq	r0, r5
     364:	0000ac9c 	muleq	r0, ip, ip
     368:	31780300 	cmncc	r8, r0, lsl #6
     36c:	15440100 	strbne	r0, [r4, #-256]	; 0xffffff00
     370:	000000ac 	andeq	r0, r0, ip, lsr #1
     374:	03649102 	cmneq	r4, #-2147483648	; 0x80000000
     378:	01003179 	tsteq	r0, r9, ror r1
     37c:	00ac1c44 	adceq	r1, ip, r4, asr #24
     380:	91020000 	mrsls	r0, (UNDEF: 2)
     384:	32780360 	rsbscc	r0, r8, #96, 6	; 0x80000001
     388:	23440100 	movtcs	r0, #16640	; 0x4100
     38c:	000000ac 	andeq	r0, r0, ip, lsr #1
     390:	035c9102 	cmpeq	ip, #-2147483648	; 0x80000000
     394:	01003279 	tsteq	r0, r9, ror r2
     398:	00ac2a44 	adceq	r2, ip, r4, asr #20
     39c:	91020000 	mrsls	r0, (UNDEF: 2)
     3a0:	013a0458 	teqeq	sl, r8, asr r4
     3a4:	44010000 	strmi	r0, [r1], #-0
     3a8:	0000ac31 	andeq	sl, r0, r1, lsr ip
     3ac:	00910200 	addseq	r0, r1, r0, lsl #4
     3b0:	00786405 	rsbseq	r6, r8, r5, lsl #8
     3b4:	ac074601 	stcge	6, cr4, [r7], {1}
     3b8:	02000000 	andeq	r0, r0, #0
     3bc:	64057091 	strvs	r7, [r5], #-145	; 0xffffff6f
     3c0:	46010079 			; <UNDEFINED> instruction: 0x46010079
     3c4:	0000ac0a 	andeq	sl, r0, sl, lsl #24
     3c8:	6c910200 	lfmvs	f0, 4, [r1], {0}
     3cc:	01006505 	tsteq	r0, r5, lsl #10
     3d0:	00ac0d46 	adceq	r0, ip, r6, asr #26
     3d4:	91020000 	mrsls	r0, (UNDEF: 2)
     3d8:	04060074 	streq	r0, [r6], #-116	; 0xffffff8c
     3dc:	746e6905 	strbtvc	r6, [lr], #-2309	; 0xfffff6fb
     3e0:	01650700 	cmneq	r5, r0, lsl #14
     3e4:	1d010000 	stcne	0, cr0, [r1, #-0]
     3e8:	1007e007 	andne	lr, r7, r7
     3ec:	0001e4c0 	andeq	lr, r1, r0, asr #9
     3f0:	039c0100 	orrseq	r0, ip, #0, 2
     3f4:	1d010078 	stcne	0, cr0, [r1, #-480]	; 0xfffffe20
     3f8:	0000ac17 	andeq	sl, r0, r7, lsl ip
     3fc:	64910200 	ldrvs	r0, [r1], #512	; 0x200
     400:	01007903 	tsteq	r0, r3, lsl #18
     404:	00ac1e1d 	adceq	r1, ip, sp, lsl lr
     408:	91020000 	mrsls	r0, (UNDEF: 2)
     40c:	00720360 	rsbseq	r0, r2, r0, ror #6
     410:	ac251d01 	stcge	13, cr1, [r5], #-4
     414:	02000000 	andeq	r0, r0, #0
     418:	3a045c91 	bcc	117664 <_start-0xbffe899c>
     41c:	01000001 	tsteq	r0, r1
     420:	00ac2c1d 	adceq	r2, ip, sp, lsl ip
     424:	91020000 	mrsls	r0, (UNDEF: 2)
     428:	00610558 	rsbeq	r0, r1, r8, asr r5
     42c:	ac071f01 	stcge	15, cr1, [r7], {1}
     430:	02000000 	andeq	r0, r0, #0
     434:	62057491 	andvs	r7, r5, #-1862270976	; 0x91000000
     438:	0a1f0100 	beq	7c0840 <_start-0xbf93f7c0>
     43c:	000000ac 	andeq	r0, r0, ip, lsr #1
     440:	05709102 	ldrbeq	r9, [r0, #-258]!	; 0xfffffefe
     444:	006d756e 	rsbeq	r7, sp, lr, ror #10
     448:	ac0d1f01 	stcge	15, cr1, [sp], {1}
     44c:	02000000 	andeq	r0, r0, #0
     450:	00006c91 	muleq	r0, r1, ip
     454:	00000161 	andeq	r0, r0, r1, ror #2
     458:	02540004 	subseq	r0, r4, #4
     45c:	01040000 	mrseq	r0, (UNDEF: 4)
     460:	00000055 	andeq	r0, r0, r5, asr r0
     464:	0001b90c 	andeq	fp, r1, ip, lsl #18
     468:	00000800 	andeq	r0, r0, r0, lsl #16
     46c:	100f3000 	andne	r3, pc, r0
     470:	0001d8c0 	andeq	sp, r1, r0, asr #17
     474:	00060a00 	andeq	r0, r6, r0, lsl #20
     478:	07040200 	streq	r0, [r4, -r0, lsl #4]
     47c:	000000e1 	andeq	r0, r0, r1, ror #1
     480:	69050403 	stmdbvs	r5, {r0, r1, sl}
     484:	0200746e 	andeq	r7, r0, #1845493760	; 0x6e000000
     488:	01080801 	tsteq	r8, r1, lsl #16
     48c:	d3040000 	movwle	r0, #16384	; 0x4000
     490:	01000000 	mrseq	r0, (UNDEF: 0)
     494:	00251508 	eoreq	r1, r5, r8, lsl #10
     498:	03050000 	movweq	r0, #20480	; 0x5000
     49c:	c0103210 	andsgt	r3, r0, r0, lsl r2
     4a0:	00004704 	andeq	r4, r0, r4, lsl #14
     4a4:	0c090100 	stfeqs	f0, [r9], {-0}
     4a8:	0000002c 	andeq	r0, r0, ip, lsr #32
     4ac:	32140305 	andscc	r0, r4, #335544320	; 0x14000000
     4b0:	ee04c010 	mcr	0, 0, ip, cr4, cr0, {0}
     4b4:	01000000 	mrseq	r0, (UNDEF: 0)
     4b8:	002c1209 	eoreq	r1, ip, r9, lsl #4
     4bc:	03050000 	movweq	r0, #20480	; 0x5000
     4c0:	c0103218 	andsgt	r3, r0, r8, lsl r2
     4c4:	70706205 	rsbsvc	r6, r0, r5, lsl #4
     4c8:	18090100 	stmdane	r9, {r8}
     4cc:	0000002c 	andeq	r0, r0, ip, lsr #32
     4d0:	321c0305 	andscc	r0, ip, #335544320	; 0x14000000
     4d4:	9a06c010 	bls	1b051c <_start-0xbff4fae4>
     4d8:	01000001 	tsteq	r0, r1
     4dc:	10080638 	andne	r0, r8, r8, lsr r6
     4e0:	0100c010 	tsteq	r0, r0, lsl r0
     4e4:	9c010000 	stcls	0, cr0, [r1], {-0}
     4e8:	000000ee 	andeq	r0, r0, lr, ror #1
     4ec:	01007807 	tsteq	r0, r7, lsl #16
     4f0:	002c1738 	eoreq	r1, ip, r8, lsr r7
     4f4:	91020000 	mrsls	r0, (UNDEF: 2)
     4f8:	00790764 	rsbseq	r0, r9, r4, ror #14
     4fc:	2c1e3801 	ldccs	8, cr3, [lr], {1}
     500:	02000000 	andeq	r0, r0, #0
     504:	3a086091 	bcc	218750 <_start-0xbfee78b0>
     508:	01000001 	tsteq	r0, r1
     50c:	00252e38 	eoreq	r2, r5, r8, lsr lr
     510:	91020000 	mrsls	r0, (UNDEF: 2)
     514:	7770055c 			; <UNDEFINED> instruction: 0x7770055c
     518:	123a0100 	eorsne	r0, sl, #0, 2
     51c:	000000ee 	andeq	r0, r0, lr, ror #1
     520:	05709102 	ldrbeq	r9, [r0, #-258]!	; 0xfffffefe
     524:	00776470 	rsbseq	r6, r7, r0, ror r4
     528:	fb123b01 	blx	48f136 <_start-0xbfc70eca>
     52c:	02000000 	andeq	r0, r0, #0
     530:	7b046c91 	blvc	11b77c <_start-0xbffe4884>
     534:	01000001 	tsteq	r0, r1
     538:	00250f3d 	eoreq	r0, r5, sp, lsr pc
     53c:	91020000 	mrsls	r0, (UNDEF: 2)
     540:	04090074 	streq	r0, [r9], #-116	; 0xffffff8c
     544:	000000f4 	strdeq	r0, [r0], -r4
     548:	db070202 	blle	1c0d58 <_start-0xbff3f2a8>
     54c:	09000000 	stmdbeq	r0, {}	; <UNPREDICTABLE>
     550:	00002504 	andeq	r2, r0, r4, lsl #10
     554:	01860a00 	orreq	r0, r6, r0, lsl #20
     558:	1b010000 	blne	40560 <_start-0xc00bfaa0>
     55c:	0000f410 	andeq	pc, r0, r0, lsl r4	; <UNPREDICTABLE>
     560:	100f6400 	andne	r6, pc, r0, lsl #8
     564:	0000a4c0 	andeq	sl, r0, r0, asr #9
     568:	529c0100 	addspl	r0, ip, #0, 2
     56c:	07000001 	streq	r0, [r0, -r1]
     570:	00626772 	rsbeq	r6, r2, r2, ror r7
     574:	25311b01 	ldrcs	r1, [r1, #-2817]!	; 0xfffff4ff
     578:	02000000 	andeq	r0, r0, #0
     57c:	72056491 	andvc	r6, r5, #-1862270976	; 0x91000000
     580:	061d0100 	ldreq	r0, [sp], -r0, lsl #2
     584:	0000002c 	andeq	r0, r0, ip, lsr #32
     588:	05749102 	ldrbeq	r9, [r4, #-258]!	; 0xfffffefe
     58c:	1e010067 	cdpne	0, 0, cr0, cr1, cr7, {3}
     590:	00002c06 	andeq	r2, r0, r6, lsl #24
     594:	70910200 	addsvc	r0, r1, r0, lsl #4
     598:	01006205 	tsteq	r0, r5, lsl #4
     59c:	002c061f 	eoreq	r0, ip, pc, lsl r6
     5a0:	91020000 	mrsls	r0, (UNDEF: 2)
     5a4:	a70b006c 	strge	r0, [fp, -ip, rrx]
     5a8:	01000001 	tsteq	r0, r1
     5ac:	0f300615 	svceq	0x00300615
     5b0:	0034c010 	eorseq	ip, r4, r0, lsl r0
     5b4:	9c010000 	stcls	0, cr0, [r1], {-0}
     5b8:	00033f00 	andeq	r3, r3, r0, lsl #30
     5bc:	1f000400 	svcne	0x00000400
     5c0:	04000003 	streq	r0, [r0], #-3
     5c4:	00005501 	andeq	r5, r0, r1, lsl #10
     5c8:	02140c00 	andseq	r0, r4, #0, 24
     5cc:	00080000 	andeq	r0, r8, r0
     5d0:	11080000 	mrsne	r0, (UNDEF: 8)
     5d4:	0270c010 	rsbseq	ip, r0, #16
     5d8:	06b40000 	ldrteq	r0, [r4], r0
     5dc:	04020000 	streq	r0, [r2], #-0
     5e0:	0000e107 	andeq	lr, r0, r7, lsl #2
     5e4:	01f50300 	mvnseq	r0, r0, lsl #6
     5e8:	02100000 	andseq	r0, r0, #0
     5ec:	006d100c 	rsbeq	r1, sp, ip
     5f0:	64040000 	strvs	r0, [r4], #-0
     5f4:	0d020065 	stceq	0, cr0, [r2, #-404]	; 0xfffffe6c
     5f8:	00006d06 	andeq	r6, r0, r6, lsl #26
     5fc:	67050000 	strvs	r0, [r5, -r0]
     600:	02000002 	andeq	r0, r0, #2
     604:	006d060e 	rsbeq	r0, sp, lr, lsl #12
     608:	05040000 	streq	r0, [r4, #-0]
     60c:	00000249 	andeq	r0, r0, r9, asr #4
     610:	6d060f02 	stcvs	15, cr0, [r6, #-8]
     614:	08000000 	stmdaeq	r0, {}	; <UNPREDICTABLE>
     618:	0002ad05 	andeq	sl, r2, r5, lsl #26
     61c:	06100200 	ldreq	r0, [r0], -r0, lsl #4
     620:	0000006d 	andeq	r0, r0, sp, rrx
     624:	0406000c 	streq	r0, [r6], #-12
     628:	746e6905 	strbtvc	r6, [lr], #-2309	; 0xfffff6fb
     62c:	01f50700 	mvnseq	r0, r0, lsl #14
     630:	11020000 	mrsne	r0, (UNDEF: 2)
     634:	00002c02 	andeq	r2, r0, r2, lsl #24
     638:	02c10300 	sbceq	r0, r1, #0, 6
     63c:	021c0000 	andseq	r0, ip, #0
     640:	00e91013 	rsceq	r1, r9, r3, lsl r0
     644:	74040000 	strvc	r0, [r4], #-0
     648:	02007076 	andeq	r7, r0, #118	; 0x76
     64c:	006d0615 	rsbeq	r0, sp, r5, lsl r6
     650:	04000000 	streq	r0, [r0], #-0
     654:	00627674 	rsbeq	r7, r2, r4, ror r6
     658:	6d061602 	stcvs	6, cr1, [r6, #-8]
     65c:	04000000 	streq	r0, [r0], #-0
     660:	66767404 	ldrbtvs	r7, [r6], -r4, lsl #8
     664:	06170200 	ldreq	r0, [r7], -r0, lsl #4
     668:	0000006d 	andeq	r0, r0, sp, rrx
     66c:	68740408 	ldmdavs	r4!, {r3, sl}^
     670:	1a020070 	bne	80838 <_start-0xc007f7c8>
     674:	00006d06 	andeq	r6, r0, r6, lsl #26
     678:	74040c00 	strvc	r0, [r4], #-3072	; 0xfffff400
     67c:	02006268 	andeq	r6, r0, #104, 4	; 0x80000006
     680:	006d061b 	rsbeq	r0, sp, fp, lsl r6
     684:	04100000 	ldreq	r0, [r0], #-0
     688:	00666874 	rsbeq	r6, r6, r4, ror r8
     68c:	6d061c02 	stcvs	12, cr1, [r6, #-8]
     690:	14000000 	strne	r0, [r0], #-0
     694:	00026705 	andeq	r6, r2, r5, lsl #14
     698:	061e0200 	ldreq	r0, [lr], -r0, lsl #4
     69c:	0000006d 	andeq	r0, r0, sp, rrx
     6a0:	c1070018 	tstgt	r7, r8, lsl r0
     6a4:	02000002 	andeq	r0, r0, #2
     6a8:	0080021f 	addeq	r0, r0, pc, lsl r2
     6ac:	6e030000 	cdpvs	0, 0, cr0, cr3, cr0, {0}
     6b0:	40000002 	andmi	r0, r0, r2
     6b4:	5e102202 	cdppl	2, 1, cr2, cr0, cr2, {0}
     6b8:	05000001 	streq	r0, [r0, #-1]
     6bc:	000002b3 			; <UNDEFINED> instruction: 0x000002b3
     6c0:	5e082402 	cdppl	4, 0, cr2, cr8, cr2, {0}
     6c4:	00000001 	andeq	r0, r0, r1
     6c8:	0002b805 	andeq	fp, r2, r5, lsl #16
     6cc:	10270200 	eorne	r0, r7, r0, lsl #4
     6d0:	00000074 	andeq	r0, r0, r4, ror r0
     6d4:	02030504 	andeq	r0, r3, #4, 10	; 0x1000000
     6d8:	2a020000 	bcs	806e0 <_start-0xc007f920>
     6dc:	0000e910 	andeq	lr, r0, r0, lsl r9
     6e0:	47051400 	strmi	r1, [r5, -r0, lsl #8]
     6e4:	02000000 	andeq	r0, r0, #0
     6e8:	006d062d 	rsbeq	r0, sp, sp, lsr #12
     6ec:	05300000 	ldreq	r0, [r0, #-0]!
     6f0:	000000ee 	andeq	r0, r0, lr, ror #1
     6f4:	6d062e02 	stcvs	14, cr2, [r6, #-8]
     6f8:	34000000 	strcc	r0, [r0], #-0
     6fc:	70706204 	rsbsvc	r6, r0, r4, lsl #4
     700:	062f0200 	strteq	r0, [pc], -r0, lsl #4
     704:	0000006d 	andeq	r0, r0, sp, rrx
     708:	00d30538 	sbcseq	r0, r3, r8, lsr r5
     70c:	32020000 	andcc	r0, r2, #0
     710:	0000250f 	andeq	r2, r0, pc, lsl #10
     714:	08003c00 	stmdaeq	r0, {sl, fp, ip, sp}
     718:	00016404 	andeq	r6, r1, r4, lsl #8
     71c:	08010200 	stmdaeq	r1, {r9}
     720:	00000108 	andeq	r0, r0, r8, lsl #2
     724:	00016409 	andeq	r6, r1, r9, lsl #8
     728:	026c0700 	rsbeq	r0, ip, #0, 14
     72c:	34020000 	strcc	r0, [r2], #-0
     730:	00017c0f 	andeq	r7, r1, pc, lsl #24
     734:	f5040800 			; <UNDEFINED> instruction: 0xf5040800
     738:	03000000 	movweq	r0, #0
     73c:	000003ae 	andeq	r0, r0, lr, lsr #7
     740:	10070310 	andne	r0, r7, r0, lsl r3
     744:	000001c4 	andeq	r0, r0, r4, asr #3
     748:	0002b305 	andeq	fp, r2, r5, lsl #6
     74c:	08080300 	stmdaeq	r8, {r8, r9}
     750:	0000015e 	andeq	r0, r0, lr, asr r1
     754:	02ed0500 	rsceq	r0, sp, #0, 10
     758:	09030000 	stmdbeq	r3, {}	; <UNPREDICTABLE>
     75c:	0001cf09 	andeq	ip, r1, r9, lsl #30
     760:	0e050400 	cfcpyseq	mvf0, mvf5
     764:	03000003 	movweq	r0, #3
     768:	01d6080a 	bicseq	r0, r6, sl, lsl #16
     76c:	05080000 	streq	r0, [r8, #-0]
     770:	000002f6 	strdeq	r0, [r0], -r6
     774:	d6080b03 	strle	r0, [r8], -r3, lsl #22
     778:	0c000001 	stceq	0, cr0, [r0], {1}
     77c:	01cf0a00 	biceq	r0, pc, r0, lsl #20
     780:	700b0000 	andvc	r0, fp, r0
     784:	00000001 	andeq	r0, r0, r1
     788:	01c40408 	biceq	r0, r4, r8, lsl #8
     78c:	080c0000 	stmdaeq	ip, {}	; <UNPREDICTABLE>
     790:	0001d504 	andeq	sp, r1, r4, lsl #10
     794:	01c70700 	biceq	r0, r7, r0, lsl #14
     798:	0c030000 	stceq	0, cr0, [r3], {-0}
     79c:	0001e813 	andeq	lr, r1, r3, lsl r8
     7a0:	82040800 	andhi	r0, r4, #0, 16
     7a4:	0d000001 	stceq	0, cr0, [r0, #-4]
     7a8:	000001dc 	ldrdeq	r0, [r0], -ip
     7ac:	000001fe 	strdeq	r0, [r0], -lr
     7b0:	0000250e 	andeq	r2, r0, lr, lsl #10
     7b4:	0f000900 	svceq	0x00000900
     7b8:	00000279 	andeq	r0, r0, r9, ror r2
     7bc:	ee190701 	cdp	7, 1, cr0, cr9, cr1, {0}
     7c0:	05000001 	streq	r0, [r0, #-1]
     7c4:	10322003 	eorsne	r2, r2, r3
     7c8:	022d0fc0 	eoreq	r0, sp, #192, 30	; 0x300
     7cc:	08010000 	stmdaeq	r1, {}	; <UNPREDICTABLE>
     7d0:	0001dc19 	andeq	sp, r1, r9, lsl ip
     7d4:	48030500 	stmdami	r3, {r8, sl}
     7d8:	10c01032 	sbcne	r1, r0, r2, lsr r0
     7dc:	000001d8 	ldrdeq	r0, [r0], -r8
     7e0:	64069201 	strvs	r9, [r6], #-513	; 0xfffffdff
     7e4:	14c01013 	strbne	r1, [r0], #19
     7e8:	01000000 	mrseq	r0, (UNDEF: 0)
     7ec:	06ce109c 			; <UNDEFINED> instruction: 0x06ce109c
     7f0:	80010000 	andhi	r0, r1, r0
     7f4:	10132c06 	andsne	r2, r3, r6, lsl #24
     7f8:	000038c0 	andeq	r3, r0, r0, asr #17
     7fc:	109c0100 	addsne	r0, ip, r0, lsl #2
     800:	00000543 	andeq	r0, r0, r3, asr #10
     804:	f4066e01 			; <UNDEFINED> instruction: 0xf4066e01
     808:	38c01012 	stmiacc	r0, {r1, r4, ip}^
     80c:	01000000 	mrseq	r0, (UNDEF: 0)
     810:	04f7119c 	ldrbteq	r1, [r7], #412	; 0x19c
     814:	5a010000 	bpl	4081c <_start-0xc00bf7e4>
     818:	00006d05 	andeq	r6, r0, r5, lsl #26
     81c:	1012a000 	andsne	sl, r2, r0
     820:	000054c0 	andeq	r5, r0, r0, asr #9
     824:	829c0100 	addshi	r0, ip, #0, 2
     828:	12000002 	andne	r0, r0, #2
     82c:	000001ea 	andeq	r0, r0, sl, ror #3
     830:	70265a01 	eorvc	r5, r6, r1, lsl #20
     834:	02000001 	andeq	r0, r0, #1
     838:	11007491 			; <UNDEFINED> instruction: 0x11007491
     83c:	00000297 	muleq	r0, r7, r2
     840:	6d054201 	sfmvs	f4, 4, [r5, #-4]
     844:	f4000000 	vst4.8	{d0-d3}, [r0], r0
     848:	acc01011 	stclge	0, cr1, [r0], {17}
     84c:	01000000 	mrseq	r0, (UNDEF: 0)
     850:	0002b99c 	muleq	r2, ip, r9
     854:	02b31200 	adcseq	r1, r3, #0, 4
     858:	42010000 	andmi	r0, r1, #0
     85c:	00015e21 	andeq	r5, r1, r1, lsr #28
     860:	6c910200 	lfmvs	f0, 4, [r1], {0}
     864:	01006913 	tsteq	r0, r3, lsl r9
     868:	006d0644 	rsbeq	r0, sp, r4, asr #12
     86c:	91020000 	mrsls	r0, (UNDEF: 2)
     870:	4f140074 	svcmi	0x00140074
     874:	01000002 	tsteq	r0, r2
     878:	006d052a 	rsbeq	r0, sp, sl, lsr #10
     87c:	11780000 	cmnne	r8, r0
     880:	007cc010 	rsbseq	ip, ip, r0, lsl r0
     884:	9c010000 	stcls	0, cr0, [r1], {-0}
     888:	000002f0 	strdeq	r0, [r0], -r0	; <UNPREDICTABLE>
     88c:	00020c12 	andeq	r0, r2, r2, lsl ip
     890:	2e2a0100 	sufcse	f0, f2, f0
     894:	000001dc 	ldrdeq	r0, [r0], -ip
     898:	136c9102 	cmnne	ip, #-2147483648	; 0x80000000
     89c:	2c010069 	stccs	0, cr0, [r1], {105}	; 0x69
     8a0:	00006d06 	andeq	r6, r0, r6, lsl #26
     8a4:	74910200 	ldrvc	r0, [r1], #512	; 0x200
     8a8:	02901400 	addseq	r1, r0, #0, 8
     8ac:	14010000 	strne	r0, [r1], #-0
     8b0:	00006d05 	andeq	r6, r0, r5, lsl #26
     8b4:	10110800 	andsne	r0, r1, r0, lsl #16
     8b8:	000070c0 	andeq	r7, r0, r0, asr #1
     8bc:	359c0100 	ldrcc	r0, [ip, #256]	; 0x100
     8c0:	15000003 	strne	r0, [r0, #-3]
     8c4:	01007363 	tsteq	r0, r3, ror #6
     8c8:	03351914 	teqeq	r5, #20, 18	; 0x50000
     8cc:	91020000 	mrsls	r0, (UNDEF: 2)
     8d0:	74631574 	strbtvc	r1, [r3], #-1396	; 0xfffffa8c
     8d4:	29140100 	ldmdbcs	r4, {r8}
     8d8:	00000335 	andeq	r0, r0, r5, lsr r3
     8dc:	0f709102 	svceq	0x00709102
     8e0:	000002cf 	andeq	r0, r0, pc, asr #5
     8e4:	3b171601 	blcc	5c60f0 <_start-0xbfb39f10>
     8e8:	01000003 	tsteq	r0, r3
     8ec:	04080054 	streq	r0, [r8], #-84	; 0xffffffac
     8f0:	0000016b 	andeq	r0, r0, fp, ror #2
     8f4:	01060102 	tsteq	r6, r2, lsl #2
     8f8:	00000001 	andeq	r0, r0, r1
     8fc:	000002d6 	ldrdeq	r0, [r0], -r6
     900:	045e0004 	ldrbeq	r0, [lr], #-4
     904:	01040000 	mrseq	r0, (UNDEF: 4)
     908:	00000055 	andeq	r0, r0, r5, asr r0
     90c:	0002d50c 	andeq	sp, r2, ip, lsl #10
     910:	00000800 	andeq	r0, r0, r0, lsl #16
     914:	10137800 	andsne	r7, r3, r0, lsl #16
     918:	000258c0 	andeq	r5, r2, r0, asr #17
     91c:	00081100 	andeq	r1, r8, r0, lsl #2
     920:	07040200 	streq	r0, [r4, -r0, lsl #4]
     924:	000000e1 	andeq	r0, r0, r1, ror #1
     928:	0001f503 	andeq	pc, r1, r3, lsl #10
     92c:	0c021000 	stceq	0, cr1, [r2], {-0}
     930:	00006d10 	andeq	r6, r0, r0, lsl sp
     934:	65640400 	strbvs	r0, [r4, #-1024]!	; 0xfffffc00
     938:	060d0200 	streq	r0, [sp], -r0, lsl #4
     93c:	0000006d 	andeq	r0, r0, sp, rrx
     940:	02670500 	rsbeq	r0, r7, #0, 10
     944:	0e020000 	cdpeq	0, 0, cr0, cr2, cr0, {0}
     948:	00006d06 	andeq	r6, r0, r6, lsl #26
     94c:	49050400 	stmdbmi	r5, {sl}
     950:	02000002 	andeq	r0, r0, #2
     954:	006d060f 	rsbeq	r0, sp, pc, lsl #12
     958:	05080000 	streq	r0, [r8, #-0]
     95c:	000002ad 	andeq	r0, r0, sp, lsr #5
     960:	6d061002 	stcvs	0, cr1, [r6, #-8]
     964:	0c000000 	stceq	0, cr0, [r0], {-0}
     968:	05040600 	streq	r0, [r4, #-1536]	; 0xfffffa00
     96c:	00746e69 	rsbseq	r6, r4, r9, ror #28
     970:	00006d07 	andeq	r6, r0, r7, lsl #26
     974:	01f50800 	mvnseq	r0, r0, lsl #16
     978:	11020000 	mrsne	r0, (UNDEF: 2)
     97c:	00002c02 	andeq	r2, r0, r2, lsl #24
     980:	02c10300 	sbceq	r0, r1, #0, 6
     984:	021c0000 	andseq	r0, ip, #0
     988:	00ee1013 	rsceq	r1, lr, r3, lsl r0
     98c:	74040000 	strvc	r0, [r4], #-0
     990:	02007076 	andeq	r7, r0, #118	; 0x76
     994:	006d0615 	rsbeq	r0, sp, r5, lsl r6
     998:	04000000 	streq	r0, [r0], #-0
     99c:	00627674 	rsbeq	r7, r2, r4, ror r6
     9a0:	6d061602 	stcvs	6, cr1, [r6, #-8]
     9a4:	04000000 	streq	r0, [r0], #-0
     9a8:	66767404 	ldrbtvs	r7, [r6], -r4, lsl #8
     9ac:	06170200 	ldreq	r0, [r7], -r0, lsl #4
     9b0:	0000006d 	andeq	r0, r0, sp, rrx
     9b4:	68740408 	ldmdavs	r4!, {r3, sl}^
     9b8:	1a020070 	bne	80b80 <_start-0xc007f480>
     9bc:	00006d06 	andeq	r6, r0, r6, lsl #26
     9c0:	74040c00 	strvc	r0, [r4], #-3072	; 0xfffff400
     9c4:	02006268 	andeq	r6, r0, #104, 4	; 0x80000006
     9c8:	006d061b 	rsbeq	r0, sp, fp, lsl r6
     9cc:	04100000 	ldreq	r0, [r0], #-0
     9d0:	00666874 	rsbeq	r6, r6, r4, ror r8
     9d4:	6d061c02 	stcvs	12, cr1, [r6, #-8]
     9d8:	14000000 	strne	r0, [r0], #-0
     9dc:	00026705 	andeq	r6, r2, r5, lsl #14
     9e0:	061e0200 	ldreq	r0, [lr], -r0, lsl #4
     9e4:	0000006d 	andeq	r0, r0, sp, rrx
     9e8:	c1080018 	tstgt	r8, r8, lsl r0
     9ec:	02000002 	andeq	r0, r0, #2
     9f0:	0085021f 	addeq	r0, r5, pc, lsl r2
     9f4:	6e030000 	cdpvs	0, 0, cr0, cr3, cr0, {0}
     9f8:	40000002 	andmi	r0, r0, r2
     9fc:	63102202 	tstvs	r0, #536870912	; 0x20000000
     a00:	05000001 	streq	r0, [r0, #-1]
     a04:	000002b3 			; <UNDEFINED> instruction: 0x000002b3
     a08:	63082402 	movwvs	r2, #33794	; 0x8402
     a0c:	00000001 	andeq	r0, r0, r1
     a10:	0002b805 	andeq	fp, r2, r5, lsl #16
     a14:	10270200 	eorne	r0, r7, r0, lsl #4
     a18:	00000079 	andeq	r0, r0, r9, ror r0
     a1c:	02030504 	andeq	r0, r3, #4, 10	; 0x1000000
     a20:	2a020000 	bcs	80a28 <_start-0xc007f5d8>
     a24:	0000ee10 	andeq	lr, r0, r0, lsl lr
     a28:	47051400 	strmi	r1, [r5, -r0, lsl #8]
     a2c:	02000000 	andeq	r0, r0, #0
     a30:	006d062d 	rsbeq	r0, sp, sp, lsr #12
     a34:	05300000 	ldreq	r0, [r0, #-0]!
     a38:	000000ee 	andeq	r0, r0, lr, ror #1
     a3c:	6d062e02 	stcvs	14, cr2, [r6, #-8]
     a40:	34000000 	strcc	r0, [r0], #-0
     a44:	70706204 	rsbsvc	r6, r0, r4, lsl #4
     a48:	062f0200 	strteq	r0, [pc], -r0, lsl #4
     a4c:	0000006d 	andeq	r0, r0, sp, rrx
     a50:	00d30538 	sbcseq	r0, r3, r8, lsr r5
     a54:	32020000 	andcc	r0, r2, #0
     a58:	0000250f 	andeq	r2, r0, pc, lsl #10
     a5c:	09003c00 	stmdbeq	r0, {sl, fp, ip, sp}
     a60:	00016904 	andeq	r6, r1, r4, lsl #18
     a64:	08010200 	stmdaeq	r1, {r9}
     a68:	00000108 	andeq	r0, r0, r8, lsl #2
     a6c:	00026c08 	andeq	r6, r2, r8, lsl #24
     a70:	0f340200 	svceq	0x00340200
     a74:	0000017c 	andeq	r0, r0, ip, ror r1
     a78:	00fa0409 	rscseq	r0, sl, r9, lsl #8
     a7c:	700a0000 	andvc	r0, sl, r0
     a80:	92000001 	andls	r0, r0, #1
     a84:	0b000001 	bleq	a90 <_start-0xc00ff570>
     a88:	00000025 	andeq	r0, r0, r5, lsr #32
     a8c:	fe0c0004 	cdp2	0, 0, cr0, cr12, cr4, {0}
     a90:	01000002 	tsteq	r0, r2
     a94:	01821507 	orreq	r1, r2, r7, lsl #10
     a98:	03050000 	movweq	r0, #20480	; 0x5000
     a9c:	c010324c 	andsgt	r3, r0, ip, asr #4
     aa0:	0003200c 	andeq	r2, r3, ip
     aa4:	15080100 	strne	r0, [r8, #-256]	; 0xffffff00
     aa8:	00000170 	andeq	r0, r0, r0, ror r1
     aac:	32600305 	rsbcc	r0, r0, #335544320	; 0x14000000
     ab0:	e90dc010 	stmdb	sp, {r4, lr, pc}
     ab4:	01000002 	tsteq	r0, r2
     ab8:	158c067b 	strne	r0, [ip, #1659]	; 0x67b
     abc:	0044c010 	subeq	ip, r4, r0, lsl r0
     ac0:	9c010000 	stcls	0, cr0, [r1], {-0}
     ac4:	0002f20d 	andeq	pc, r2, sp, lsl #4
     ac8:	066c0100 	strbteq	r0, [ip], -r0, lsl #2
     acc:	c0101578 	andsgt	r1, r0, r8, ror r5
     ad0:	00000014 	andeq	r0, r0, r4, lsl r0
     ad4:	0a0d9c01 	beq	367ae0 <_start-0xbfd98520>
     ad8:	01000003 	tsteq	r0, r3
     adc:	1564065d 	strbne	r0, [r4, #-1629]!	; 0xfffff9a3
     ae0:	0014c010 	andseq	ip, r4, r0, lsl r0
     ae4:	9c010000 	stcls	0, cr0, [r1], {-0}
     ae8:	0001aa0e 	andeq	sl, r1, lr, lsl #20
     aec:	064a0100 	strbeq	r0, [sl], -r0, lsl #2
     af0:	c01014d8 			; <UNDEFINED> instruction: 0xc01014d8
     af4:	0000008c 	andeq	r0, r0, ip, lsl #1
     af8:	023f9c01 	eorseq	r9, pc, #256	; 0x100
     afc:	d30f0000 	movwle	r0, #61440	; 0xf000
     b00:	01000000 	mrseq	r0, (UNDEF: 0)
     b04:	023f234a 	eorseq	r2, pc, #671088641	; 0x28000001
     b08:	91020000 	mrsls	r0, (UNDEF: 2)
     b0c:	00470f74 	subeq	r0, r7, r4, ror pc
     b10:	4a010000 	bmi	40b18 <_start-0xc00bf4e8>
     b14:	00024531 	andeq	r4, r2, r1, lsr r5
     b18:	70910200 	addsvc	r0, r1, r0, lsl #4
     b1c:	0000ee0f 	andeq	lr, r0, pc, lsl #28
     b20:	3c4a0100 	stfcce	f0, [sl], {-0}
     b24:	00000245 	andeq	r0, r0, r5, asr #4
     b28:	106c9102 	rsbne	r9, ip, r2, lsl #2
     b2c:	00707062 	rsbseq	r7, r0, r2, rrx
     b30:	45474a01 	strbmi	r4, [r7, #-2561]	; 0xfffff5ff
     b34:	02000002 	andeq	r0, r0, #2
     b38:	09006891 	stmdbeq	r0, {r0, r4, r7, fp, sp, lr}
     b3c:	00002504 	andeq	r2, r0, r4, lsl #10
     b40:	6d040900 	vstrvs.16	s0, [r4, #-0]	; <UNPREDICTABLE>
     b44:	11000000 	mrsne	r0, (UNDEF: 0)
     b48:	00000315 	andeq	r0, r0, r5, lsl r3
     b4c:	6d053201 	sfmvs	f3, 4, [r5, #-4]
     b50:	2c000000 	stccs	0, cr0, [r0], {-0}
     b54:	acc01014 	stclge	0, cr1, [r0], {20}
     b58:	01000000 	mrseq	r0, (UNDEF: 0)
     b5c:	0002829c 	muleq	r2, ip, r2
     b60:	02b30f00 	adcseq	r0, r3, #0, 30
     b64:	32010000 	andcc	r0, r1, #0
     b68:	00016316 	andeq	r6, r1, r6, lsl r3
     b6c:	6c910200 	lfmvs	f0, 4, [r1], {0}
     b70:	01006912 	tsteq	r0, r2, lsl r9
     b74:	006d0634 	rsbeq	r0, sp, r4, lsr r6
     b78:	91020000 	mrsls	r0, (UNDEF: 2)
     b7c:	36130074 			; <UNDEFINED> instruction: 0x36130074
     b80:	01000003 	tsteq	r0, r3
     b84:	006d0524 	rsbeq	r0, sp, r4, lsr #10
     b88:	13b00000 	movsne	r0, #0
     b8c:	007cc010 	rsbseq	ip, ip, r0, lsl r0
     b90:	9c010000 	stcls	0, cr0, [r1], {-0}
     b94:	000002b9 			; <UNDEFINED> instruction: 0x000002b9
     b98:	0003310f 	andeq	r3, r3, pc, lsl #2
     b9c:	1f240100 	svcne	0x00240100
     ba0:	00000170 	andeq	r0, r0, r0, ror r1
     ba4:	126c9102 	rsbne	r9, ip, #-2147483648	; 0x80000000
     ba8:	26010069 	strcs	r0, [r1], -r9, rrx
     bac:	00006d06 	andeq	r6, r0, r6, lsl #26
     bb0:	74910200 	ldrvc	r0, [r1], #512	; 0x200
     bb4:	02e31400 	rsceq	r1, r3, #0, 8
     bb8:	14010000 	strne	r0, [r1], #-0
     bbc:	10137806 	andsne	r7, r3, r6, lsl #16
     bc0:	000038c0 	andeq	r3, r0, r0, asr #17
     bc4:	109c0100 	addsne	r0, ip, r0, lsl #2
     bc8:	14010064 	strne	r0, [r1], #-100	; 0xffffff9c
     bcc:	00007419 	andeq	r7, r0, r9, lsl r4
     bd0:	74910200 	ldrvc	r0, [r1], #512	; 0x200
     bd4:	01b30000 			; <UNDEFINED> instruction: 0x01b30000
     bd8:	00040000 	andeq	r0, r4, r0
     bdc:	000005bc 			; <UNDEFINED> instruction: 0x000005bc
     be0:	00550104 	subseq	r0, r5, r4, lsl #2
     be4:	6c0c0000 	stcvs	0, cr0, [ip], {-0}
     be8:	08000003 	stmdaeq	r0, {r0, r1}
     bec:	d0000000 	andle	r0, r0, r0
     bf0:	1cc01015 	stclne	0, cr1, [r0], {21}
     bf4:	21000000 	mrscs	r0, (UNDEF: 0)
     bf8:	02000009 	andeq	r0, r0, #9
     bfc:	00400407 	subeq	r0, r0, r7, lsl #8
     c00:	04020000 	streq	r0, [r2], #-0
     c04:	00004006 	andeq	r4, r0, r6
     c08:	03650300 	cmneq	r5, #0, 6
     c0c:	03000000 	movweq	r0, #0
     c10:	0000034f 	andeq	r0, r0, pc, asr #6
     c14:	04040001 	streq	r0, [r4], #-1
     c18:	0000e107 	andeq	lr, r0, r7, lsl #2
     c1c:	01f50500 	mvnseq	r0, r0, lsl #10
     c20:	02100000 	andseq	r0, r0, #0
     c24:	0088100c 	addeq	r1, r8, ip
     c28:	64060000 	strvs	r0, [r6], #-0
     c2c:	0d020065 	stceq	0, cr0, [r2, #-404]	; 0xfffffe6c
     c30:	00008806 	andeq	r8, r0, r6, lsl #16
     c34:	67070000 	strvs	r0, [r7, -r0]
     c38:	02000002 	andeq	r0, r0, #2
     c3c:	0088060e 	addeq	r0, r8, lr, lsl #12
     c40:	07040000 	streq	r0, [r4, -r0]
     c44:	00000249 	andeq	r0, r0, r9, asr #4
     c48:	88060f02 	stmdahi	r6, {r1, r8, r9, sl, fp}
     c4c:	08000000 	stmdaeq	r0, {}	; <UNPREDICTABLE>
     c50:	0002ad07 	andeq	sl, r2, r7, lsl #26
     c54:	06100200 	ldreq	r0, [r0], -r0, lsl #4
     c58:	00000088 	andeq	r0, r0, r8, lsl #1
     c5c:	0408000c 	streq	r0, [r8], #-12
     c60:	746e6905 	strbtvc	r6, [lr], #-2309	; 0xfffff6fb
     c64:	01f50900 	mvnseq	r0, r0, lsl #18
     c68:	11020000 	mrsne	r0, (UNDEF: 2)
     c6c:	00004702 	andeq	r4, r0, r2, lsl #14
     c70:	02c10500 	sbceq	r0, r1, #0, 10
     c74:	021c0000 	andseq	r0, ip, #0
     c78:	01041013 	tsteq	r4, r3, lsl r0
     c7c:	74060000 	strvc	r0, [r6], #-0
     c80:	02007076 	andeq	r7, r0, #118	; 0x76
     c84:	00880615 	addeq	r0, r8, r5, lsl r6
     c88:	06000000 	streq	r0, [r0], -r0
     c8c:	00627674 	rsbeq	r7, r2, r4, ror r6
     c90:	88061602 	stmdahi	r6, {r1, r9, sl, ip}
     c94:	04000000 	streq	r0, [r0], #-0
     c98:	66767406 	ldrbtvs	r7, [r6], -r6, lsl #8
     c9c:	06170200 	ldreq	r0, [r7], -r0, lsl #4
     ca0:	00000088 	andeq	r0, r0, r8, lsl #1
     ca4:	68740608 	ldmdavs	r4!, {r3, r9, sl}^
     ca8:	1a020070 	bne	80e70 <_start-0xc007f190>
     cac:	00008806 	andeq	r8, r0, r6, lsl #16
     cb0:	74060c00 	strvc	r0, [r6], #-3072	; 0xfffff400
     cb4:	02006268 	andeq	r6, r0, #104, 4	; 0x80000006
     cb8:	0088061b 	addeq	r0, r8, fp, lsl r6
     cbc:	06100000 	ldreq	r0, [r0], -r0
     cc0:	00666874 	rsbeq	r6, r6, r4, ror r8
     cc4:	88061c02 	stmdahi	r6, {r1, sl, fp, ip}
     cc8:	14000000 	strne	r0, [r0], #-0
     ccc:	00026707 	andeq	r6, r2, r7, lsl #14
     cd0:	061e0200 	ldreq	r0, [lr], -r0, lsl #4
     cd4:	00000088 	andeq	r0, r0, r8, lsl #1
     cd8:	c1090018 	tstgt	r9, r8, lsl r0
     cdc:	02000002 	andeq	r0, r0, #2
     ce0:	009b021f 	addseq	r0, fp, pc, lsl r2
     ce4:	6e050000 	cdpvs	0, 0, cr0, cr5, cr0, {0}
     ce8:	40000002 	andmi	r0, r0, r2
     cec:	79102202 	ldmdbvc	r0, {r1, r9, sp}
     cf0:	07000001 	streq	r0, [r0, -r1]
     cf4:	000002b3 			; <UNDEFINED> instruction: 0x000002b3
     cf8:	79082402 	stmdbvc	r8, {r1, sl, sp}
     cfc:	00000001 	andeq	r0, r0, r1
     d00:	0002b807 	andeq	fp, r2, r7, lsl #16
     d04:	10270200 	eorne	r0, r7, r0, lsl #4
     d08:	0000008f 	andeq	r0, r0, pc, lsl #1
     d0c:	02030704 	andeq	r0, r3, #4, 14	; 0x100000
     d10:	2a020000 	bcs	80d18 <_start-0xc007f2e8>
     d14:	00010410 	andeq	r0, r1, r0, lsl r4
     d18:	47071400 	strmi	r1, [r7, -r0, lsl #8]
     d1c:	02000000 	andeq	r0, r0, #0
     d20:	0088062d 	addeq	r0, r8, sp, lsr #12
     d24:	07300000 	ldreq	r0, [r0, -r0]!
     d28:	000000ee 	andeq	r0, r0, lr, ror #1
     d2c:	88062e02 	stmdahi	r6, {r1, r9, sl, fp, sp}
     d30:	34000000 	strcc	r0, [r0], #-0
     d34:	70706206 	rsbsvc	r6, r0, r6, lsl #4
     d38:	062f0200 	strteq	r0, [pc], -r0, lsl #4
     d3c:	00000088 	andeq	r0, r0, r8, lsl #1
     d40:	00d30738 	sbcseq	r0, r3, r8, lsr r7
     d44:	32020000 	andcc	r0, r2, #0
     d48:	0000400f 	andeq	r4, r0, pc
     d4c:	0a003c00 	beq	fd54 <_start-0xc00f02ac>
     d50:	00017f04 	andeq	r7, r1, r4, lsl #30
     d54:	08010400 	stmdaeq	r1, {sl}
     d58:	00000108 	andeq	r0, r0, r8, lsl #2
     d5c:	00026e09 	andeq	r6, r2, r9, lsl #28
     d60:	02340200 	eorseq	r0, r4, #0, 4
     d64:	00000110 	andeq	r0, r0, r0, lsl r1
     d68:	0003560b 	andeq	r5, r3, fp, lsl #12
     d6c:	0c060100 	stfeqs	f0, [r6], {-0}
     d70:	00000186 	andeq	r0, r0, r6, lsl #3
     d74:	31b00305 	lslscc	r0, r5, #6
     d78:	430cc010 	movwmi	ip, #49168	; 0xc010
     d7c:	01000003 	tsteq	r0, r3
     d80:	15d0062b 	ldrbne	r0, [r0, #1579]	; 0x62b
     d84:	001cc010 	andseq	ip, ip, r0, lsl r0
     d88:	9c010000 	stcls	0, cr0, [r1], {-0}
     d8c:	00075f00 	andeq	r5, r7, r0, lsl #30
     d90:	7a000400 	bvc	1d98 <_start-0xc00fe268>
     d94:	04000006 	streq	r0, [r0], #-6
     d98:	00005501 	andeq	r5, r0, r1, lsl #10
     d9c:	04450c00 	strbeq	r0, [r5], #-3072	; 0xfffff400
     da0:	00080000 	andeq	r0, r8, r0
     da4:	15ec0000 	strbne	r0, [ip, #0]!
     da8:	0b78c010 	bleq	1e30df0 <_start-0xbe2cf210>
     dac:	09730000 	ldmdbeq	r3!, {}^	; <UNPREDICTABLE>
     db0:	48020000 	stmdami	r2, {}	; <UNPREDICTABLE>
     db4:	090a0201 	stmdbeq	sl, {r0, r9}
     db8:	000002bb 			; <UNDEFINED> instruction: 0x000002bb
     dbc:	00057103 	andeq	r7, r5, r3, lsl #2
     dc0:	190b0200 	stmdbne	fp, {r9}
     dc4:	000002c2 	andeq	r0, r0, r2, asr #5
     dc8:	07a70300 	streq	r0, [r7, r0, lsl #6]!
     dcc:	0c020000 	stceq	0, cr0, [r2], {-0}
     dd0:	0002c219 	andeq	ip, r2, r9, lsl r2
     dd4:	d5030400 	strle	r0, [r3, #-1024]	; 0xfffffc00
     dd8:	02000003 	andeq	r0, r0, #3
     ddc:	02c2190d 	sbceq	r1, r2, #212992	; 0x34000
     de0:	03080000 	movweq	r0, #32768	; 0x8000
     de4:	00000399 	muleq	r0, r9, r3
     de8:	c2190e02 	andsgt	r0, r9, #2, 28
     dec:	0c000002 	stceq	0, cr0, [r0], {2}
     df0:	0007c603 	andeq	ip, r7, r3, lsl #12
     df4:	190f0200 	stmdbne	pc, {r9}	; <UNPREDICTABLE>
     df8:	000002c2 	andeq	r0, r0, r2, asr #5
     dfc:	076a0310 			; <UNDEFINED> instruction: 0x076a0310
     e00:	10020000 	andne	r0, r2, r0
     e04:	0002c219 	andeq	ip, r2, r9, lsl r2
     e08:	2f031400 	svccs	0x00031400
     e0c:	02000005 	andeq	r0, r0, #5
     e10:	02c21911 	sbceq	r1, r2, #278528	; 0x44000
     e14:	03180000 	tsteq	r8, #0
     e18:	00000384 	andeq	r0, r0, r4, lsl #7
     e1c:	c2191202 	andsgt	r1, r9, #536870912	; 0x20000000
     e20:	1c000002 	stcne	0, cr0, [r0], {2}
     e24:	00048b03 	andeq	r8, r4, r3, lsl #22
     e28:	19130200 	ldmdbne	r3, {r9}
     e2c:	000002c2 	andeq	r0, r0, r2, asr #5
     e30:	04560320 	ldrbeq	r0, [r6], #-800	; 0xfffffce0
     e34:	14020000 	strne	r0, [r2], #-0
     e38:	0002c219 	andeq	ip, r2, r9, lsl r2
     e3c:	52032400 	andpl	r2, r3, #0, 8
     e40:	02000006 	andeq	r0, r0, #6
     e44:	02c71215 	sbceq	r1, r7, #1342177281	; 0x50000001
     e48:	03280000 			; <UNDEFINED> instruction: 0x03280000
     e4c:	00000567 	andeq	r0, r0, r7, ror #10
     e50:	c2191602 	andsgt	r1, r9, #2097152	; 0x200000
     e54:	2c000002 	stccs	0, cr0, [r0], {2}
     e58:	00065d03 	andeq	r5, r6, r3, lsl #26
     e5c:	12170200 	andsne	r0, r7, #0, 4
     e60:	000002c7 	andeq	r0, r0, r7, asr #5
     e64:	06ac0330 			; <UNDEFINED> instruction: 0x06ac0330
     e68:	18020000 	stmdane	r2, {}	; <UNPREDICTABLE>
     e6c:	0002c219 	andeq	ip, r2, r9, lsl r2
     e70:	7a033400 	bvc	cde78 <_start-0xc0032188>
     e74:	02000005 	andeq	r0, r0, #5
     e78:	02c21919 	sbceq	r1, r2, #409600	; 0x64000
     e7c:	03380000 	teqeq	r8, #0
     e80:	00000482 	andeq	r0, r0, r2, lsl #9
     e84:	c2191a02 	andsgt	r1, r9, #8192	; 0x2000
     e88:	3c000002 	stccc	0, cr0, [r0], {2}
     e8c:	0004e103 	andeq	lr, r4, r3, lsl #2
     e90:	191b0200 	ldmdbne	fp, {r9}
     e94:	000002c2 	andeq	r0, r0, r2, asr #5
     e98:	05830340 	streq	r0, [r3, #832]	; 0x340
     e9c:	1c020000 	stcne	0, cr0, [r2], {-0}
     ea0:	0002c219 	andeq	ip, r2, r9, lsl r2
     ea4:	b0034400 	andlt	r4, r3, r0, lsl #8
     ea8:	02000007 	andeq	r0, r0, #7
     eac:	02c2191d 	sbceq	r1, r2, #475136	; 0x74000
     eb0:	03480000 	movteq	r0, #32768	; 0x8000
     eb4:	00000668 	andeq	r0, r0, r8, ror #12
     eb8:	de121e02 	cdple	14, 1, cr1, cr2, cr2, {0}
     ebc:	4c000002 	stcmi	0, cr0, [r0], {2}
     ec0:	0006e503 	andeq	lr, r6, r3, lsl #10
     ec4:	191f0200 	ldmdbne	pc, {r9}	; <UNPREDICTABLE>
     ec8:	000002c2 	andeq	r0, r0, r2, asr #5
     ecc:	04380384 	ldrteq	r0, [r8], #-900	; 0xfffffc7c
     ed0:	20020000 	andcs	r0, r2, r0
     ed4:	0002c219 	andeq	ip, r2, r9, lsl r2
     ed8:	9f038800 	svcls	0x00038800
     edc:	02000006 	andeq	r0, r0, #6
     ee0:	02c21921 	sbceq	r1, r2, #540672	; 0x84000
     ee4:	038c0000 	orreq	r0, ip, #0
     ee8:	00000401 	andeq	r0, r0, r1, lsl #8
     eec:	c2192202 	andsgt	r2, r9, #536870912	; 0x20000000
     ef0:	90000002 	andls	r0, r0, r2
     ef4:	0003c903 	andeq	ip, r3, r3, lsl #18
     ef8:	19230200 	stmdbne	r3!, {r9}
     efc:	000002c2 	andeq	r0, r0, r2, asr #5
     f00:	04760394 	ldrbteq	r0, [r6], #-916	; 0xfffffc6c
     f04:	24020000 	strcs	r0, [r2], #-0
     f08:	0002c219 	andeq	ip, r2, r9, lsl r2
     f0c:	95039800 	strls	r9, [r3, #-2048]	; 0xfffff800
     f10:	02000004 	andeq	r0, r0, #4
     f14:	02c21925 	sbceq	r1, r2, #606208	; 0x94000
     f18:	039c0000 	orrseq	r0, ip, #0
     f1c:	00000517 	andeq	r0, r0, r7, lsl r5
     f20:	c2192602 	andsgt	r2, r9, #2097152	; 0x200000
     f24:	a0000002 	andge	r0, r0, r2
     f28:	00067303 	andeq	r7, r6, r3, lsl #6
     f2c:	13270200 			; <UNDEFINED> instruction: 0x13270200
     f30:	000002ee 	andeq	r0, r0, lr, ror #5
     f34:	061c03a4 	ldreq	r0, [ip], -r4, lsr #7
     f38:	28020000 	stmdacs	r2, {}	; <UNPREDICTABLE>
     f3c:	0002c219 	andeq	ip, r2, r9, lsl r2
     f40:	d503ac00 	strle	sl, [r3, #-3072]	; 0xfffff400
     f44:	02000005 	andeq	r0, r0, #5
     f48:	02c21929 	sbceq	r1, r2, #671744	; 0xa4000
     f4c:	03b00000 	movseq	r0, #0
     f50:	000004a1 	andeq	r0, r0, r1, lsr #9
     f54:	c2192a02 	andsgt	r2, r9, #8192	; 0x2000
     f58:	b4000002 	strlt	r0, [r0], #-2
     f5c:	00067e03 	andeq	r7, r6, r3, lsl #28
     f60:	152b0200 	strne	r0, [fp, #-512]!	; 0xfffffe00
     f64:	000002fe 	strdeq	r0, [r0], -lr
     f68:	06b503b8 			; <UNDEFINED> instruction: 0x06b503b8
     f6c:	2c020000 	stccs	0, cr0, [r2], {-0}
     f70:	0002c219 	andeq	ip, r2, r9, lsl r2
     f74:	8903c400 	stmdbhi	r3, {sl, lr, pc}
     f78:	02000006 	andeq	r0, r0, #6
     f7c:	030e122d 	movweq	r1, #57901	; 0xe22d
     f80:	04c80000 	strbeq	r0, [r8], #0
     f84:	00000629 	andeq	r0, r0, r9, lsr #12
     f88:	c2192e02 	andsgt	r2, r9, #2, 28
     f8c:	04000002 	streq	r0, [r0], #-2
     f90:	059a0401 	ldreq	r0, [sl, #1025]	; 0x401
     f94:	2f020000 	svccs	0x00020000
     f98:	0002c219 	andeq	ip, r2, r9, lsl r2
     f9c:	04010800 	streq	r0, [r1], #-2048	; 0xfffff800
     fa0:	0000058d 	andeq	r0, r0, sp, lsl #11
     fa4:	c2193002 	andsgt	r3, r9, #2
     fa8:	0c000002 	stceq	0, cr0, [r0], {2}
     fac:	05230401 	streq	r0, [r3, #-1025]!	; 0xfffffbff
     fb0:	31020000 	mrscc	r0, (UNDEF: 2)
     fb4:	0002c219 	andeq	ip, r2, r9, lsl r2
     fb8:	04011000 	streq	r1, [r1], #-0
     fbc:	0000050b 	andeq	r0, r0, fp, lsl #10
     fc0:	c2193202 	andsgt	r3, r9, #536870912	; 0x20000000
     fc4:	14000002 	strne	r0, [r0], #-2
     fc8:	05b20401 	ldreq	r0, [r2, #1025]!	; 0x401
     fcc:	33020000 	movwcc	r0, #8192	; 0x2000
     fd0:	0002c219 	andeq	ip, r2, r9, lsl r2
     fd4:	04011800 	streq	r1, [r1], #-2048	; 0xfffff800
     fd8:	000005c9 	andeq	r0, r0, r9, asr #11
     fdc:	c2193402 	andsgt	r3, r9, #33554432	; 0x2000000
     fe0:	1c000002 	stcne	0, cr0, [r0], {2}
     fe4:	079b0401 	ldreq	r0, [fp, r1, lsl #8]
     fe8:	35020000 	strcc	r0, [r2, #-0]
     fec:	0002c219 	andeq	ip, r2, r9, lsl r2
     ff0:	04012000 	streq	r2, [r1], #-0
     ff4:	00000694 	muleq	r0, r4, r6
     ff8:	ee123602 	cfmsub32	mvax0, mvfx3, mvfx2, mvfx2
     ffc:	24000002 	strcs	r0, [r0], #-2
    1000:	04600401 	strbteq	r0, [r0], #-1025	; 0xfffffbff
    1004:	37020000 	strcc	r0, [r2, -r0]
    1008:	0002c219 	andeq	ip, r2, r9, lsl r2
    100c:	04012c00 	streq	r2, [r1], #-3072	; 0xfffff400
    1010:	00000419 	andeq	r0, r0, r9, lsl r4
    1014:	c2193802 	andsgt	r3, r9, #131072	; 0x20000
    1018:	30000002 	andcc	r0, r0, r2
    101c:	07100401 	ldreq	r0, [r0, -r1, lsl #8]
    1020:	39020000 	stmdbcc	r2, {}	; <UNPREDICTABLE>
    1024:	0002c21a 	andeq	ip, r2, sl, lsl r2
    1028:	04013400 	streq	r3, [r1], #-1024	; 0xfffffc00
    102c:	000003f6 	strdeq	r0, [r0], -r6
    1030:	fe123a02 	vselvs.f32	s6, s4, s4
    1034:	38000002 	stmdacc	r0, {r1}
    1038:	04d30401 	ldrbeq	r0, [r3], #1025	; 0x401
    103c:	3b020000 	blcc	81044 <_start-0xc007efbc>
    1040:	0002c219 	andeq	ip, r2, r9, lsl r2
    1044:	00014400 	andeq	r4, r1, r0, lsl #8
    1048:	e1070405 	tst	r7, r5, lsl #8
    104c:	06000000 	streq	r0, [r0], -r0
    1050:	000002bb 			; <UNDEFINED> instruction: 0x000002bb
    1054:	0002d707 	andeq	sp, r2, r7, lsl #14
    1058:	0002d700 	andeq	sp, r2, r0, lsl #14
    105c:	02bb0800 	adcseq	r0, fp, #0, 16
    1060:	00030000 	andeq	r0, r3, r0
    1064:	ff080105 			; <UNDEFINED> instruction: 0xff080105
    1068:	07000000 	streq	r0, [r0, -r0]
    106c:	000002d7 	ldrdeq	r0, [r0], -r7
    1070:	000002ee 	andeq	r0, r0, lr, ror #5
    1074:	0002bb08 	andeq	fp, r2, r8, lsl #22
    1078:	07003700 	streq	r3, [r0, -r0, lsl #14]
    107c:	000002d7 	ldrdeq	r0, [r0], -r7
    1080:	000002fe 	strdeq	r0, [r0], -lr
    1084:	0002bb08 	andeq	fp, r2, r8, lsl #22
    1088:	07000700 	streq	r0, [r0, -r0, lsl #14]
    108c:	000002d7 	ldrdeq	r0, [r0], -r7
    1090:	0000030e 	andeq	r0, r0, lr, lsl #6
    1094:	0002bb08 	andeq	fp, r2, r8, lsl #22
    1098:	07000b00 	streq	r0, [r0, -r0, lsl #22]
    109c:	000002d7 	ldrdeq	r0, [r0], -r7
    10a0:	0000031e 	andeq	r0, r0, lr, lsl r3
    10a4:	0002bb08 	andeq	fp, r2, r8, lsl #22
    10a8:	09003b00 	stmdbeq	r0, {r8, r9, fp, ip, sp}
    10ac:	0000038e 	andeq	r0, r0, lr, lsl #7
    10b0:	25033c02 	strcs	r3, [r3, #-3074]	; 0xfffff3fe
    10b4:	0a000000 	beq	10bc <_start-0xc00fef44>
    10b8:	000001f5 	strdeq	r0, [r0], -r5
    10bc:	100c0310 	andne	r0, ip, r0, lsl r3
    10c0:	0000036b 	andeq	r0, r0, fp, ror #6
    10c4:	0065640b 	rsbeq	r6, r5, fp, lsl #8
    10c8:	6b060d03 	blvs	1844dc <_start-0xbff7bb24>
    10cc:	00000003 	andeq	r0, r0, r3
    10d0:	00026703 	andeq	r6, r2, r3, lsl #14
    10d4:	060e0300 	streq	r0, [lr], -r0, lsl #6
    10d8:	0000036b 	andeq	r0, r0, fp, ror #6
    10dc:	02490304 	subeq	r0, r9, #4, 6	; 0x10000000
    10e0:	0f030000 	svceq	0x00030000
    10e4:	00036b06 	andeq	r6, r3, r6, lsl #22
    10e8:	ad030800 	stcge	8, cr0, [r3, #-0]
    10ec:	03000002 	movweq	r0, #2
    10f0:	036b0610 	cmneq	fp, #16, 12	; 0x1000000
    10f4:	000c0000 	andeq	r0, ip, r0
    10f8:	6905040c 	stmdbvs	r5, {r2, r3, sl}
    10fc:	0900746e 	stmdbeq	r0, {r1, r2, r3, r5, r6, sl, ip, sp, lr}
    1100:	000001f5 	strdeq	r0, [r0], -r5
    1104:	2a021103 	bcs	85518 <_start-0xc007aae8>
    1108:	0a000003 	beq	111c <_start-0xc00feee4>
    110c:	000002c1 	andeq	r0, r0, r1, asr #5
    1110:	1013031c 	andsne	r0, r3, ip, lsl r3
    1114:	000003e7 	andeq	r0, r0, r7, ror #7
    1118:	7076740b 	rsbsvc	r7, r6, fp, lsl #8
    111c:	06150300 	ldreq	r0, [r5], -r0, lsl #6
    1120:	0000036b 	andeq	r0, r0, fp, ror #6
    1124:	76740b00 	ldrbtvc	r0, [r4], -r0, lsl #22
    1128:	16030062 	strne	r0, [r3], -r2, rrx
    112c:	00036b06 	andeq	r6, r3, r6, lsl #22
    1130:	740b0400 	strvc	r0, [fp], #-1024	; 0xfffffc00
    1134:	03006676 	movweq	r6, #1654	; 0x676
    1138:	036b0617 	cmneq	fp, #24117248	; 0x1700000
    113c:	0b080000 	bleq	201144 <_start-0xbfefeebc>
    1140:	00706874 	rsbseq	r6, r0, r4, ror r8
    1144:	6b061a03 	blvs	187958 <_start-0xbff786a8>
    1148:	0c000003 	stceq	0, cr0, [r0], {3}
    114c:	6268740b 	rsbvs	r7, r8, #184549376	; 0xb000000
    1150:	061b0300 	ldreq	r0, [fp], -r0, lsl #6
    1154:	0000036b 	andeq	r0, r0, fp, ror #6
    1158:	68740b10 	ldmdavs	r4!, {r4, r8, r9, fp}^
    115c:	1c030066 	stcne	0, cr0, [r3], {102}	; 0x66
    1160:	00036b06 	andeq	r6, r3, r6, lsl #22
    1164:	67031400 	strvs	r1, [r3, -r0, lsl #8]
    1168:	03000002 	movweq	r0, #2
    116c:	036b061e 	cmneq	fp, #31457280	; 0x1e00000
    1170:	00180000 	andseq	r0, r8, r0
    1174:	0002c109 	andeq	ip, r2, r9, lsl #2
    1178:	021f0300 	andseq	r0, pc, #0, 6
    117c:	0000037e 	andeq	r0, r0, lr, ror r3
    1180:	00026e0a 	andeq	r6, r2, sl, lsl #28
    1184:	22034000 	andcs	r4, r3, #0
    1188:	00045c10 	andeq	r5, r4, r0, lsl ip
    118c:	02b30300 	adcseq	r0, r3, #0, 6
    1190:	24030000 	strcs	r0, [r3], #-0
    1194:	00045c08 	andeq	r5, r4, r8, lsl #24
    1198:	b8030000 	stmdalt	r3, {}	; <UNPREDICTABLE>
    119c:	03000002 	movweq	r0, #2
    11a0:	03721027 	cmneq	r2, #39	; 0x27
    11a4:	03040000 	movweq	r0, #16384	; 0x4000
    11a8:	00000203 	andeq	r0, r0, r3, lsl #4
    11ac:	e7102a03 	ldr	r2, [r0, -r3, lsl #20]
    11b0:	14000003 	strne	r0, [r0], #-3
    11b4:	00004703 	andeq	r4, r0, r3, lsl #14
    11b8:	062d0300 	strteq	r0, [sp], -r0, lsl #6
    11bc:	0000036b 	andeq	r0, r0, fp, ror #6
    11c0:	00ee0330 	rsceq	r0, lr, r0, lsr r3
    11c4:	2e030000 	cdpcs	0, 0, cr0, cr3, cr0, {0}
    11c8:	00036b06 	andeq	r6, r3, r6, lsl #22
    11cc:	620b3400 	andvs	r3, fp, #0, 8
    11d0:	03007070 	movweq	r7, #112	; 0x70
    11d4:	036b062f 	cmneq	fp, #49283072	; 0x2f00000
    11d8:	03380000 	teqeq	r8, #0
    11dc:	000000d3 	ldrdeq	r0, [r0], -r3
    11e0:	bb0f3203 	bllt	3cd9f4 <_start-0xbfd3260c>
    11e4:	3c000002 	stccc	0, cr0, [r0], {2}
    11e8:	62040d00 	andvs	r0, r4, #0, 26
    11ec:	05000004 	streq	r0, [r0, #-4]
    11f0:	01080801 	tsteq	r8, r1, lsl #16
    11f4:	6c090000 	stcvs	0, cr0, [r9], {-0}
    11f8:	03000002 	movweq	r0, #2
    11fc:	04750f34 	ldrbteq	r0, [r5], #-3892	; 0xfffff0cc
    1200:	040d0000 	streq	r0, [sp], #-0
    1204:	000003f3 	strdeq	r0, [r0], -r3
    1208:	0003ae0a 	andeq	sl, r3, sl, lsl #28
    120c:	07041000 	streq	r1, [r4, -r0]
    1210:	0004bd10 	andeq	fp, r4, r0, lsl sp
    1214:	02b30300 	adcseq	r0, r3, #0, 6
    1218:	08040000 	stmdaeq	r4, {}	; <UNPREDICTABLE>
    121c:	00045c08 	andeq	r5, r4, r8, lsl #24
    1220:	ed030000 	stc	0, cr0, [r3, #-0]
    1224:	04000002 	streq	r0, [r0], #-2
    1228:	04c80909 	strbeq	r0, [r8], #2313	; 0x909
    122c:	03040000 	movweq	r0, #16384	; 0x4000
    1230:	0000030e 	andeq	r0, r0, lr, lsl #6
    1234:	cf080a04 	svcgt	0x00080a04
    1238:	08000004 	stmdaeq	r0, {r2}
    123c:	0002f603 	andeq	pc, r2, r3, lsl #12
    1240:	080b0400 	stmdaeq	fp, {sl}
    1244:	000004cf 	andeq	r0, r0, pc, asr #9
    1248:	c80e000c 	stmdagt	lr, {r2, r3}
    124c:	0f000004 	svceq	0x00000004
    1250:	00000469 	andeq	r0, r0, r9, ror #8
    1254:	bd040d00 	stclt	13, cr0, [r4, #-0]
    1258:	10000004 	andne	r0, r0, r4
    125c:	04ce040d 	strbeq	r0, [lr], #1037	; 0x40d
    1260:	3c110000 	ldccc	0, cr0, [r1], {-0}
    1264:	01000007 	tsteq	r0, r7
    1268:	04e71f04 	strbteq	r1, [r7], #3844	; 0xf04
    126c:	03050000 	movweq	r0, #20480	; 0x5000
    1270:	c0103264 	andsgt	r3, r0, r4, ror #4
    1274:	02c2040d 	sbceq	r0, r2, #218103808	; 0xd000000
    1278:	c6110000 	ldrgt	r0, [r1], -r0
    127c:	01000004 	tsteq	r0, r4
    1280:	04e71f05 	strbteq	r1, [r7], #3845	; 0xf05
    1284:	03050000 	movweq	r0, #20480	; 0x5000
    1288:	c0103268 	andsgt	r3, r0, r8, ror #4
    128c:	00077411 	andeq	r7, r7, r1, lsl r4
    1290:	1f060100 	svcne	0x00060100
    1294:	000004e7 	andeq	r0, r0, r7, ror #9
    1298:	326c0305 	rsbcc	r0, ip, #335544320	; 0x14000000
    129c:	8211c010 	andshi	ip, r1, #16
    12a0:	01000007 	tsteq	r0, r7
    12a4:	04e71f07 	strbteq	r1, [r7], #3847	; 0xf07
    12a8:	03050000 	movweq	r0, #20480	; 0x5000
    12ac:	c0103270 	andsgt	r3, r0, r0, ror r2
    12b0:	0005be11 	andeq	fp, r5, r1, lsl lr
    12b4:	1f080100 	svcne	0x00080100
    12b8:	000004e7 	andeq	r0, r0, r7, ror #9
    12bc:	32740305 	rsbscc	r0, r4, #335544320	; 0x14000000
    12c0:	5811c010 	ldmdapl	r1, {r4, lr, pc}
    12c4:	01000007 	tsteq	r0, r7
    12c8:	04e71f09 	strbteq	r1, [r7], #3849	; 0xf09
    12cc:	03050000 	movweq	r0, #20480	; 0x5000
    12d0:	c0103278 	andsgt	r3, r0, r8, ror r2
    12d4:	00042611 	andeq	r2, r4, r1, lsl r6
    12d8:	1f0a0100 	svcne	0x000a0100
    12dc:	000004e7 	andeq	r0, r0, r7, ror #9
    12e0:	327c0305 	rsbscc	r0, ip, #335544320	; 0x14000000
    12e4:	a711c010 			; <UNDEFINED> instruction: 0xa711c010
    12e8:	01000005 	tsteq	r0, r5
    12ec:	04e71f0c 	strbteq	r1, [r7], #3852	; 0xf0c
    12f0:	03050000 	movweq	r0, #20480	; 0x5000
    12f4:	c0103280 	andsgt	r3, r0, r0, lsl #5
    12f8:	00040d11 	andeq	r0, r4, r1, lsl sp
    12fc:	1f0d0100 	svcne	0x000d0100
    1300:	000004e7 	andeq	r0, r0, r7, ror #9
    1304:	32840305 	addcc	r0, r4, #335544320	; 0x14000000
    1308:	0511c010 	ldreq	ip, [r1, #-16]
    130c:	01000007 	tsteq	r0, r7
    1310:	04e71f0e 	strbteq	r1, [r7], #3854	; 0xf0e
    1314:	03050000 	movweq	r0, #20480	; 0x5000
    1318:	c0103288 	andsgt	r3, r0, r8, lsl #5
    131c:	0006fa11 	andeq	pc, r6, r1, lsl sl	; <UNPREDICTABLE>
    1320:	1f0f0100 	svcne	0x000f0100
    1324:	000004e7 	andeq	r0, r0, r7, ror #9
    1328:	328c0305 	addcc	r0, ip, #335544320	; 0x14000000
    132c:	af11c010 	svcge	0x0011c010
    1330:	01000004 	tsteq	r0, r4
    1334:	04e71f10 	strbteq	r1, [r7], #3856	; 0xf10
    1338:	03050000 	movweq	r0, #20480	; 0x5000
    133c:	c0103290 	mulsgt	r0, r0, r2
    1340:	0005fc11 	andeq	pc, r5, r1, lsl ip	; <UNPREDICTABLE>
    1344:	1f110100 	svcne	0x00110100
    1348:	000004e7 	andeq	r0, r0, r7, ror #9
    134c:	32940305 	addscc	r0, r4, #335544320	; 0x14000000
    1350:	0611c010 			; <UNDEFINED> instruction: 0x0611c010
    1354:	01000006 	tsteq	r0, r6
    1358:	04e71f12 	strbteq	r1, [r7], #3858	; 0xf12
    135c:	03050000 	movweq	r0, #20480	; 0x5000
    1360:	c0103298 	mulsgt	r0, r8, r2
    1364:	0004bb11 	andeq	fp, r4, r1, lsl fp
    1368:	1f130100 	svcne	0x00130100
    136c:	000004e7 	andeq	r0, r0, r7, ror #9
    1370:	329c0305 	addscc	r0, ip, #335544320	; 0x14000000
    1374:	bd11c010 	ldclt	0, cr12, [r1, #-64]	; 0xffffffc0
    1378:	01000003 	tsteq	r0, r3
    137c:	04e71f14 	strbteq	r1, [r7], #3860	; 0xf14
    1380:	03050000 	movweq	r0, #20480	; 0x5000
    1384:	c01032a0 	andsgt	r3, r0, r0, lsr #5
    1388:	0006ef11 	andeq	lr, r6, r1, lsl pc
    138c:	1f150100 	svcne	0x00150100
    1390:	000004e7 	andeq	r0, r0, r7, ror #9
    1394:	32a40305 	adccc	r0, r4, #335544320	; 0x14000000
    1398:	9011c010 	andsls	ip, r1, r0, lsl r0
    139c:	01000007 	tsteq	r0, r7
    13a0:	04e71f16 	strbteq	r1, [r7], #3862	; 0xf16
    13a4:	03050000 	movweq	r0, #20480	; 0x5000
    13a8:	c01032a8 	andsgt	r3, r0, r8, lsr #5
    13ac:	0007ba11 	andeq	fp, r7, r1, lsl sl
    13b0:	1f170100 	svcne	0x00170100
    13b4:	000004e7 	andeq	r0, r0, r7, ror #9
    13b8:	32ac0305 	adccc	r0, ip, #335544320	; 0x14000000
    13bc:	3311c010 	tstcc	r1, #16
    13c0:	01000006 	tsteq	r0, r6
    13c4:	04e71f18 	strbteq	r1, [r7], #3864	; 0xf18
    13c8:	03050000 	movweq	r0, #20480	; 0x5000
    13cc:	c01032b0 			; <UNDEFINED> instruction: 0xc01032b0
    13d0:	00061111 	andeq	r1, r6, r1, lsl r1
    13d4:	1f190100 	svcne	0x00190100
    13d8:	000004e7 	andeq	r0, r0, r7, ror #9
    13dc:	32b40305 	adcscc	r0, r4, #335544320	; 0x14000000
    13e0:	e211c010 	ands	ip, r1, #16
    13e4:	01000005 	tsteq	r0, r5
    13e8:	04e71f1a 	strbteq	r1, [r7], #3866	; 0xf1a
    13ec:	03050000 	movweq	r0, #20480	; 0x5000
    13f0:	c01032b8 			; <UNDEFINED> instruction: 0xc01032b8
    13f4:	00055911 	andeq	r5, r5, r1, lsl r9
    13f8:	1f1b0100 	svcne	0x001b0100
    13fc:	000004e7 	andeq	r0, r0, r7, ror #9
    1400:	32bc0305 	adcscc	r0, ip, #335544320	; 0x14000000
    1404:	4a11c010 	bmi	47144c <_start-0xbfc8ebb4>
    1408:	01000007 	tsteq	r0, r7
    140c:	04e71f1c 	strbteq	r1, [r7], #3868	; 0xf1c
    1410:	03050000 	movweq	r0, #20480	; 0x5000
    1414:	c01032c0 	andsgt	r3, r0, r0, asr #5
    1418:	0005ee11 	andeq	lr, r5, r1, lsl lr
    141c:	1f1d0100 	svcne	0x001d0100
    1420:	000004e7 	andeq	r0, r0, r7, ror #9
    1424:	32c40305 	sbccc	r0, r4, #335544320	; 0x14000000
    1428:	d011c010 	andsle	ip, r1, r0, lsl r0
    142c:	01000007 	tsteq	r0, r7
    1430:	04e71f1e 	strbteq	r1, [r7], #3870	; 0xf1e
    1434:	03050000 	movweq	r0, #20480	; 0x5000
    1438:	c01032c8 	andsgt	r3, r0, r8, asr #5
    143c:	00037611 	andeq	r7, r3, r1, lsl r6
    1440:	1f1f0100 	svcne	0x001f0100
    1444:	000004e7 	andeq	r0, r0, r7, ror #9
    1448:	32cc0305 	sbccc	r0, ip, #335544320	; 0x14000000
    144c:	a312c010 	tstge	r2, #16
    1450:	01000003 	tsteq	r0, r3
    1454:	047b17e0 	ldrbteq	r1, [fp], #-2016	; 0xfffff820
    1458:	03050000 	movweq	r0, #20480	; 0x5000
    145c:	c01031f0 			; <UNDEFINED> instruction: 0xc01031f0
    1460:	00071e13 	andeq	r1, r7, r3, lsl lr
    1464:	06f10100 	ldrbteq	r0, [r1], r0, lsl #2
    1468:	c0102148 	andsgt	r2, r0, r8, asr #2
    146c:	0000001c 	andeq	r0, r0, ip, lsl r0
    1470:	c3149c01 	tstgt	r4, #256	; 0x100
    1474:	01000006 	tsteq	r0, r6
    1478:	20f00dd9 	ldrsbtcs	r0, [r0], #217	; 0xd9
    147c:	0058c010 	subseq	ip, r8, r0, lsl r0
    1480:	9c010000 	stcls	0, cr0, [r1], {-0}
    1484:	00053814 	andeq	r3, r5, r4, lsl r8
    1488:	0dd10100 	ldfeqe	f0, [r1]
    148c:	c010207c 	andsgt	r2, r0, ip, ror r0
    1490:	00000074 	andeq	r0, r0, r4, ror r0
    1494:	ec159c01 	ldc	12, cr9, [r5], {1}
    1498:	01000004 	tsteq	r0, r4
    149c:	1bb80d7d 	blne	fee04a98 <__bss_end+0x3ed017c8>
    14a0:	04c4c010 	strbeq	ip, [r4], #16
    14a4:	9c010000 	stcls	0, cr0, [r1], {-0}
    14a8:	0000073e 	andeq	r0, r0, lr, lsr r7
    14ac:	0001ea16 	andeq	lr, r1, r6, lsl sl
    14b0:	397d0100 	ldmdbcc	sp!, {r8}^
    14b4:	00000469 	andeq	r0, r0, r9, ror #8
    14b8:	116c9102 	cmnne	ip, r2, lsl #2
    14bc:	0000046d 	andeq	r0, r0, sp, ror #8
    14c0:	6b097f01 	blvs	2610cc <_start-0xbfe9ef34>
    14c4:	02000003 	andeq	r0, r0, #3
    14c8:	14007491 	strne	r7, [r0], #-1169	; 0xfffffb6f
    14cc:	000003df 	ldrdeq	r0, [r0], -pc	; <UNPREDICTABLE>
    14d0:	2c0d4501 	cfstr32cs	mvfx4, [sp], {1}
    14d4:	8cc01018 	stclhi	0, cr1, [r0], {24}
    14d8:	01000003 	tsteq	r0, r3
    14dc:	063e149c 			; <UNDEFINED> instruction: 0x063e149c
    14e0:	21010000 	mrscs	r0, (UNDEF: 1)
    14e4:	1015ec0d 	andsne	lr, r5, sp, lsl #24
    14e8:	000240c0 	andeq	r4, r2, r0, asr #1
    14ec:	009c0100 	addseq	r0, ip, r0, lsl #2

Disassembly of section .debug_abbrev:

00000000 <.debug_abbrev>:
   0:	10001101 	andne	r1, r0, r1, lsl #2
   4:	12011106 	andne	r1, r1, #-2147483647	; 0x80000001
   8:	1b0e0301 	blne	380c14 <_start-0xbfd7f3ec>
   c:	130e250e 	movwne	r2, #58638	; 0xe50e
  10:	00000005 	andeq	r0, r0, r5
  14:	25011101 	strcs	r1, [r1, #-257]	; 0xfffffeff
  18:	030b130e 	movweq	r1, #45838	; 0xb30e
  1c:	110e1b0e 	tstne	lr, lr, lsl #22
  20:	10061201 	andne	r1, r6, r1, lsl #4
  24:	02000017 	andeq	r0, r0, #23
  28:	0b0b0024 	bleq	2c00c0 <_start-0xbfe3ff40>
  2c:	0e030b3e 	vmoveq.16	d3[0], r0
  30:	24030000 	strcs	r0, [r3], #-0
  34:	3e0b0b00 	vmlacc.f64	d0, d11, d0
  38:	0008030b 	andeq	r0, r8, fp, lsl #6
  3c:	002e0400 	eoreq	r0, lr, r0, lsl #8
  40:	0e03193f 			; <UNDEFINED> instruction: 0x0e03193f
  44:	0b3b0b3a 	bleq	ec2d34 <_start-0xbf23d2cc>
  48:	19270b39 	stmdbne	r7!, {r0, r3, r4, r5, r8, r9, fp}
  4c:	01111349 	tsteq	r1, r9, asr #6
  50:	18400612 	stmdane	r0, {r1, r4, r9, sl}^
  54:	00194296 	mulseq	r9, r6, r2
  58:	012e0500 			; <UNDEFINED> instruction: 0x012e0500
  5c:	0e03193f 			; <UNDEFINED> instruction: 0x0e03193f
  60:	0b3b0b3a 	bleq	ec2d50 <_start-0xbf23d2b0>
  64:	19270b39 	stmdbne	r7!, {r0, r3, r4, r5, r8, r9, fp}
  68:	06120111 			; <UNDEFINED> instruction: 0x06120111
  6c:	42961840 	addsmi	r1, r6, #64, 16	; 0x400000
  70:	00130119 	andseq	r0, r3, r9, lsl r1
  74:	00340600 	eorseq	r0, r4, r0, lsl #12
  78:	0b3a0e03 	bleq	e8388c <_start-0xbf27c774>
  7c:	0b390b3b 	bleq	e42d70 <_start-0xbf2bd290>
  80:	18021349 	stmdane	r2, {r0, r3, r6, r8, r9, ip}
  84:	34070000 	strcc	r0, [r7], #-0
  88:	3a080300 	bcc	200c90 <_start-0xbfeff370>
  8c:	390b3b0b 	stmdbcc	fp, {r0, r1, r3, r8, r9, fp, ip, sp}
  90:	0213490b 	andseq	r4, r3, #180224	; 0x2c000
  94:	08000018 	stmdaeq	r0, {r3, r4}
  98:	0b0b000f 	bleq	2c00dc <_start-0xbfe3ff24>
  9c:	00001349 	andeq	r1, r0, r9, asr #6
  a0:	01110100 	tsteq	r1, r0, lsl #2
  a4:	0b130e25 	bleq	4c3940 <_start-0xbfc3c6c0>
  a8:	0e1b0e03 	cdpeq	14, 1, cr0, cr11, cr3, {0}
  ac:	00001710 	andeq	r1, r0, r0, lsl r7
  b0:	49010102 	stmdbmi	r1, {r1, r8}
  b4:	00130113 	andseq	r0, r3, r3, lsl r1
  b8:	00210300 	eoreq	r0, r1, r0, lsl #6
  bc:	052f1349 	streq	r1, [pc, #-841]!	; fffffd7b <__bss_end+0x3fefcaab>
  c0:	26040000 	strcs	r0, [r4], -r0
  c4:	00134900 	andseq	r4, r3, r0, lsl #18
  c8:	00240500 	eoreq	r0, r4, r0, lsl #10
  cc:	0b3e0b0b 	bleq	f82d00 <_start-0xbf17d300>
  d0:	00000e03 	andeq	r0, r0, r3, lsl #28
  d4:	03003406 	movweq	r3, #1030	; 0x406
  d8:	3b0b3a0e 	blcc	2ce918 <_start-0xbfe316e8>
  dc:	490b390b 	stmdbmi	fp, {r0, r1, r3, r8, fp, ip, sp}
  e0:	02193f13 	andseq	r3, r9, #19, 30	; 0x4c
  e4:	00000018 	andeq	r0, r0, r8, lsl r0
  e8:	25011101 	strcs	r1, [r1, #-257]	; 0xfffffeff
  ec:	030b130e 	movweq	r1, #45838	; 0xb30e
  f0:	110e1b0e 	tstne	lr, lr, lsl #22
  f4:	10061201 	andne	r1, r6, r1, lsl #4
  f8:	02000017 	andeq	r0, r0, #23
  fc:	0b0b0024 	bleq	2c0194 <_start-0xbfe3fe6c>
 100:	0e030b3e 	vmoveq.16	d3[0], r0
 104:	24030000 	strcs	r0, [r3], #-0
 108:	3e0b0b00 	vmlacc.f64	d0, d11, d0
 10c:	0008030b 	andeq	r0, r8, fp, lsl #6
 110:	000f0400 	andeq	r0, pc, r0, lsl #8
 114:	13490b0b 	movtne	r0, #39691	; 0x9b0b
 118:	01050000 	mrseq	r0, (UNDEF: 5)
 11c:	01134901 	tsteq	r3, r1, lsl #18
 120:	06000013 			; <UNDEFINED> instruction: 0x06000013
 124:	00000021 	andeq	r0, r0, r1, lsr #32
 128:	49002607 	stmdbmi	r0, {r0, r1, r2, r9, sl, sp}
 12c:	08000013 	stmdaeq	r0, {r0, r1, r4}
 130:	0e030034 	mcreq	0, 0, r0, cr3, cr4, {1}
 134:	0b3b0b3a 	bleq	ec2e24 <_start-0xbf23d1dc>
 138:	13490b39 	movtne	r0, #39737	; 0x9b39
 13c:	193c193f 	ldmdbne	ip!, {r0, r1, r2, r3, r4, r5, r8, fp, ip}
 140:	34090000 	strcc	r0, [r9], #-0
 144:	3a0e0300 	bcc	380d4c <_start-0xbfd7f2b4>
 148:	390b3b0b 	stmdbcc	fp, {r0, r1, r3, r8, r9, fp, ip, sp}
 14c:	0213490b 	andseq	r4, r3, #180224	; 0x2c000
 150:	0a000018 	beq	1b8 <_start-0xc00ffe48>
 154:	08030034 	stmdaeq	r3, {r2, r4, r5}
 158:	0b3b0b3a 	bleq	ec2e48 <_start-0xbf23d1b8>
 15c:	13490b39 	movtne	r0, #39737	; 0x9b39
 160:	00001802 	andeq	r1, r0, r2, lsl #16
 164:	3f012e0b 	svccc	0x00012e0b
 168:	3a0e0319 	bcc	380dd4 <_start-0xbfd7f22c>
 16c:	390b3b0b 	stmdbcc	fp, {r0, r1, r3, r8, r9, fp, ip, sp}
 170:	1119270b 	tstne	r9, fp, lsl #14
 174:	40061201 	andmi	r1, r6, r1, lsl #4
 178:	19429618 	stmdbne	r2, {r3, r4, r9, sl, ip, pc}^
 17c:	00001301 	andeq	r1, r0, r1, lsl #6
 180:	0300050c 	movweq	r0, #1292	; 0x50c
 184:	3b0b3a08 	blcc	2ce9ac <_start-0xbfe31654>
 188:	490b390b 	stmdbmi	fp, {r0, r1, r3, r8, fp, ip, sp}
 18c:	00180213 	andseq	r0, r8, r3, lsl r2
 190:	00050d00 	andeq	r0, r5, r0, lsl #26
 194:	0b3a0e03 	bleq	e839a8 <_start-0xbf27c658>
 198:	0b390b3b 	bleq	e42e8c <_start-0xbf2bd174>
 19c:	18021349 	stmdane	r2, {r0, r3, r6, r8, r9, ip}
 1a0:	340e0000 	strcc	r0, [lr], #-0
 1a4:	3a080300 	bcc	200dac <_start-0xbfeff254>
 1a8:	390b3b0b 	stmdbcc	fp, {r0, r1, r3, r8, r9, fp, ip, sp}
 1ac:	0013490b 	andseq	r4, r3, fp, lsl #18
 1b0:	002e0f00 	eoreq	r0, lr, r0, lsl #30
 1b4:	0e03193f 			; <UNDEFINED> instruction: 0x0e03193f
 1b8:	0b3b0b3a 	bleq	ec2ea8 <_start-0xbf23d158>
 1bc:	19270b39 	stmdbne	r7!, {r0, r3, r4, r5, r8, r9, fp}
 1c0:	06120111 			; <UNDEFINED> instruction: 0x06120111
 1c4:	42961840 	addsmi	r1, r6, #64, 16	; 0x400000
 1c8:	00000019 	andeq	r0, r0, r9, lsl r0
 1cc:	25011101 	strcs	r1, [r1, #-257]	; 0xfffffeff
 1d0:	030b130e 	movweq	r1, #45838	; 0xb30e
 1d4:	110e1b0e 	tstne	lr, lr, lsl #22
 1d8:	10061201 	andne	r1, r6, r1, lsl #4
 1dc:	02000017 	andeq	r0, r0, #23
 1e0:	193f012e 	ldmdbne	pc!, {r1, r2, r3, r5, r8}	; <UNPREDICTABLE>
 1e4:	0b3a0e03 	bleq	e839f8 <_start-0xbf27c608>
 1e8:	0b390b3b 	bleq	e42edc <_start-0xbf2bd124>
 1ec:	01111927 	tsteq	r1, r7, lsr #18
 1f0:	18400612 	stmdane	r0, {r1, r4, r9, sl}^
 1f4:	01194296 			; <UNDEFINED> instruction: 0x01194296
 1f8:	03000013 	movweq	r0, #19
 1fc:	08030005 	stmdaeq	r3, {r0, r2}
 200:	0b3b0b3a 	bleq	ec2ef0 <_start-0xbf23d110>
 204:	13490b39 	movtne	r0, #39737	; 0x9b39
 208:	00001802 	andeq	r1, r0, r2, lsl #16
 20c:	03000504 	movweq	r0, #1284	; 0x504
 210:	3b0b3a0e 	blcc	2cea50 <_start-0xbfe315b0>
 214:	490b390b 	stmdbmi	fp, {r0, r1, r3, r8, fp, ip, sp}
 218:	00180213 	andseq	r0, r8, r3, lsl r2
 21c:	00340500 	eorseq	r0, r4, r0, lsl #10
 220:	0b3a0803 	bleq	e82234 <_start-0xbf27ddcc>
 224:	0b390b3b 	bleq	e42f18 <_start-0xbf2bd0e8>
 228:	18021349 	stmdane	r2, {r0, r3, r6, r8, r9, ip}
 22c:	24060000 	strcs	r0, [r6], #-0
 230:	3e0b0b00 	vmlacc.f64	d0, d11, d0
 234:	0008030b 	andeq	r0, r8, fp, lsl #6
 238:	012e0700 			; <UNDEFINED> instruction: 0x012e0700
 23c:	0e03193f 			; <UNDEFINED> instruction: 0x0e03193f
 240:	0b3b0b3a 	bleq	ec2f30 <_start-0xbf23d0d0>
 244:	19270b39 	stmdbne	r7!, {r0, r3, r4, r5, r8, r9, fp}
 248:	06120111 			; <UNDEFINED> instruction: 0x06120111
 24c:	42961840 	addsmi	r1, r6, #64, 16	; 0x400000
 250:	00000019 	andeq	r0, r0, r9, lsl r0
 254:	25011101 	strcs	r1, [r1, #-257]	; 0xfffffeff
 258:	030b130e 	movweq	r1, #45838	; 0xb30e
 25c:	110e1b0e 	tstne	lr, lr, lsl #22
 260:	10061201 	andne	r1, r6, r1, lsl #4
 264:	02000017 	andeq	r0, r0, #23
 268:	0b0b0024 	bleq	2c0300 <_start-0xbfe3fd00>
 26c:	0e030b3e 	vmoveq.16	d3[0], r0
 270:	24030000 	strcs	r0, [r3], #-0
 274:	3e0b0b00 	vmlacc.f64	d0, d11, d0
 278:	0008030b 	andeq	r0, r8, fp, lsl #6
 27c:	00340400 	eorseq	r0, r4, r0, lsl #8
 280:	0b3a0e03 	bleq	e83a94 <_start-0xbf27c56c>
 284:	0b390b3b 	bleq	e42f78 <_start-0xbf2bd088>
 288:	18021349 	stmdane	r2, {r0, r3, r6, r8, r9, ip}
 28c:	34050000 	strcc	r0, [r5], #-0
 290:	3a080300 	bcc	200e98 <_start-0xbfeff168>
 294:	390b3b0b 	stmdbcc	fp, {r0, r1, r3, r8, r9, fp, ip, sp}
 298:	0213490b 	andseq	r4, r3, #180224	; 0x2c000
 29c:	06000018 			; <UNDEFINED> instruction: 0x06000018
 2a0:	193f012e 	ldmdbne	pc!, {r1, r2, r3, r5, r8}	; <UNPREDICTABLE>
 2a4:	0b3a0e03 	bleq	e83ab8 <_start-0xbf27c548>
 2a8:	0b390b3b 	bleq	e42f9c <_start-0xbf2bd064>
 2ac:	01111927 	tsteq	r1, r7, lsr #18
 2b0:	18400612 	stmdane	r0, {r1, r4, r9, sl}^
 2b4:	01194296 			; <UNDEFINED> instruction: 0x01194296
 2b8:	07000013 	smladeq	r0, r3, r0, r0
 2bc:	08030005 	stmdaeq	r3, {r0, r2}
 2c0:	0b3b0b3a 	bleq	ec2fb0 <_start-0xbf23d050>
 2c4:	13490b39 	movtne	r0, #39737	; 0x9b39
 2c8:	00001802 	andeq	r1, r0, r2, lsl #16
 2cc:	03000508 	movweq	r0, #1288	; 0x508
 2d0:	3b0b3a0e 	blcc	2ceb10 <_start-0xbfe314f0>
 2d4:	490b390b 	stmdbmi	fp, {r0, r1, r3, r8, fp, ip, sp}
 2d8:	00180213 	andseq	r0, r8, r3, lsl r2
 2dc:	000f0900 	andeq	r0, pc, r0, lsl #18
 2e0:	13490b0b 	movtne	r0, #39691	; 0x9b0b
 2e4:	2e0a0000 	cdpcs	0, 0, cr0, cr10, cr0, {0}
 2e8:	03193f01 	tsteq	r9, #1, 30
 2ec:	3b0b3a0e 	blcc	2ceb2c <_start-0xbfe314d4>
 2f0:	270b390b 	strcs	r3, [fp, -fp, lsl #18]
 2f4:	11134919 	tstne	r3, r9, lsl r9
 2f8:	40061201 	andmi	r1, r6, r1, lsl #4
 2fc:	19429718 	stmdbne	r2, {r3, r4, r8, r9, sl, ip, pc}^
 300:	00001301 	andeq	r1, r0, r1, lsl #6
 304:	3f002e0b 	svccc	0x00002e0b
 308:	3a0e0319 	bcc	380f74 <_start-0xbfd7f08c>
 30c:	390b3b0b 	stmdbcc	fp, {r0, r1, r3, r8, r9, fp, ip, sp}
 310:	1119270b 	tstne	r9, fp, lsl #14
 314:	40061201 	andmi	r1, r6, r1, lsl #4
 318:	19429618 	stmdbne	r2, {r3, r4, r9, sl, ip, pc}^
 31c:	01000000 	mrseq	r0, (UNDEF: 0)
 320:	0e250111 	mcreq	1, 1, r0, cr5, cr1, {0}
 324:	0e030b13 	vmoveq.32	d3[0], r0
 328:	01110e1b 	tsteq	r1, fp, lsl lr
 32c:	17100612 			; <UNDEFINED> instruction: 0x17100612
 330:	24020000 	strcs	r0, [r2], #-0
 334:	3e0b0b00 	vmlacc.f64	d0, d11, d0
 338:	000e030b 	andeq	r0, lr, fp, lsl #6
 33c:	01130300 	tsteq	r3, r0, lsl #6
 340:	0b0b0e03 	bleq	2c3b54 <_start-0xbfe3c4ac>
 344:	0b3b0b3a 	bleq	ec3034 <_start-0xbf23cfcc>
 348:	13010b39 	movwne	r0, #6969	; 0x1b39
 34c:	0d040000 	stceq	0, cr0, [r4, #-0]
 350:	3a080300 	bcc	200f58 <_start-0xbfeff0a8>
 354:	390b3b0b 	stmdbcc	fp, {r0, r1, r3, r8, r9, fp, ip, sp}
 358:	3813490b 	ldmdacc	r3, {r0, r1, r3, r8, fp, lr}
 35c:	0500000b 	streq	r0, [r0, #-11]
 360:	0e03000d 	cdpeq	0, 0, cr0, cr3, cr13, {0}
 364:	0b3b0b3a 	bleq	ec3054 <_start-0xbf23cfac>
 368:	13490b39 	movtne	r0, #39737	; 0x9b39
 36c:	00000b38 	andeq	r0, r0, r8, lsr fp
 370:	0b002406 	bleq	9390 <_start-0xc00f6c70>
 374:	030b3e0b 	movweq	r3, #48651	; 0xbe0b
 378:	07000008 	streq	r0, [r0, -r8]
 37c:	0e030016 	mcreq	0, 0, r0, cr3, cr6, {0}
 380:	0b3b0b3a 	bleq	ec3070 <_start-0xbf23cf90>
 384:	13490b39 	movtne	r0, #39737	; 0x9b39
 388:	0f080000 	svceq	0x00080000
 38c:	490b0b00 	stmdbmi	fp, {r8, r9, fp}
 390:	09000013 	stmdbeq	r0, {r0, r1, r4}
 394:	13490026 	movtne	r0, #36902	; 0x9026
 398:	150a0000 	strne	r0, [sl, #-0]
 39c:	01192701 	tsteq	r9, r1, lsl #14
 3a0:	0b000013 	bleq	3f4 <_start-0xc00ffc0c>
 3a4:	13490005 	movtne	r0, #36869	; 0x9005
 3a8:	150c0000 	strne	r0, [ip, #-0]
 3ac:	00192700 	andseq	r2, r9, r0, lsl #14
 3b0:	01010d00 	tsteq	r1, r0, lsl #26
 3b4:	13011349 	movwne	r1, #4937	; 0x1349
 3b8:	210e0000 	mrscs	r0, (UNDEF: 14)
 3bc:	2f134900 	svccs	0x00134900
 3c0:	0f00000b 	svceq	0x0000000b
 3c4:	0e030034 	mcreq	0, 0, r0, cr3, cr4, {1}
 3c8:	0b3b0b3a 	bleq	ec30b8 <_start-0xbf23cf48>
 3cc:	13490b39 	movtne	r0, #39737	; 0x9b39
 3d0:	00001802 	andeq	r1, r0, r2, lsl #16
 3d4:	3f002e10 	svccc	0x00002e10
 3d8:	3a0e0319 	bcc	381044 <_start-0xbfd7efbc>
 3dc:	390b3b0b 	stmdbcc	fp, {r0, r1, r3, r8, r9, fp, ip, sp}
 3e0:	1119270b 	tstne	r9, fp, lsl #14
 3e4:	40061201 	andmi	r1, r6, r1, lsl #4
 3e8:	19429618 	stmdbne	r2, {r3, r4, r9, sl, ip, pc}^
 3ec:	2e110000 	cdpcs	0, 1, cr0, cr1, cr0, {0}
 3f0:	03193f01 	tsteq	r9, #1, 30
 3f4:	3b0b3a0e 	blcc	2cec34 <_start-0xbfe313cc>
 3f8:	270b390b 	strcs	r3, [fp, -fp, lsl #18]
 3fc:	11134919 	tstne	r3, r9, lsl r9
 400:	40061201 	andmi	r1, r6, r1, lsl #4
 404:	19429618 	stmdbne	r2, {r3, r4, r9, sl, ip, pc}^
 408:	00001301 	andeq	r1, r0, r1, lsl #6
 40c:	03000512 	movweq	r0, #1298	; 0x512
 410:	3b0b3a0e 	blcc	2cec50 <_start-0xbfe313b0>
 414:	490b390b 	stmdbmi	fp, {r0, r1, r3, r8, fp, ip, sp}
 418:	00180213 	andseq	r0, r8, r3, lsl r2
 41c:	00341300 	eorseq	r1, r4, r0, lsl #6
 420:	0b3a0803 	bleq	e82434 <_start-0xbf27dbcc>
 424:	0b390b3b 	bleq	e43118 <_start-0xbf2bcee8>
 428:	18021349 	stmdane	r2, {r0, r3, r6, r8, r9, ip}
 42c:	2e140000 	cdpcs	0, 1, cr0, cr4, cr0, {0}
 430:	03193f01 	tsteq	r9, #1, 30
 434:	3b0b3a0e 	blcc	2cec74 <_start-0xbfe3138c>
 438:	270b390b 	strcs	r3, [fp, -fp, lsl #18]
 43c:	11134919 	tstne	r3, r9, lsl r9
 440:	40061201 	andmi	r1, r6, r1, lsl #4
 444:	19429718 	stmdbne	r2, {r3, r4, r8, r9, sl, ip, pc}^
 448:	00001301 	andeq	r1, r0, r1, lsl #6
 44c:	03000515 	movweq	r0, #1301	; 0x515
 450:	3b0b3a08 	blcc	2cec78 <_start-0xbfe31388>
 454:	490b390b 	stmdbmi	fp, {r0, r1, r3, r8, fp, ip, sp}
 458:	00180213 	andseq	r0, r8, r3, lsl r2
 45c:	11010000 	mrsne	r0, (UNDEF: 1)
 460:	130e2501 	movwne	r2, #58625	; 0xe501
 464:	1b0e030b 	blne	381098 <_start-0xbfd7ef68>
 468:	1201110e 	andne	r1, r1, #-2147483645	; 0x80000003
 46c:	00171006 	andseq	r1, r7, r6
 470:	00240200 	eoreq	r0, r4, r0, lsl #4
 474:	0b3e0b0b 	bleq	f830a8 <_start-0xbf17cf58>
 478:	00000e03 	andeq	r0, r0, r3, lsl #28
 47c:	03011303 	movweq	r1, #4867	; 0x1303
 480:	3a0b0b0e 	bcc	2c30c0 <_start-0xbfe3cf40>
 484:	390b3b0b 	stmdbcc	fp, {r0, r1, r3, r8, r9, fp, ip, sp}
 488:	0013010b 	andseq	r0, r3, fp, lsl #2
 48c:	000d0400 	andeq	r0, sp, r0, lsl #8
 490:	0b3a0803 	bleq	e824a4 <_start-0xbf27db5c>
 494:	0b390b3b 	bleq	e43188 <_start-0xbf2bce78>
 498:	0b381349 	bleq	e051c4 <_start-0xbf2fae3c>
 49c:	0d050000 	stceq	0, cr0, [r5, #-0]
 4a0:	3a0e0300 	bcc	3810a8 <_start-0xbfd7ef58>
 4a4:	390b3b0b 	stmdbcc	fp, {r0, r1, r3, r8, r9, fp, ip, sp}
 4a8:	3813490b 	ldmdacc	r3, {r0, r1, r3, r8, fp, lr}
 4ac:	0600000b 	streq	r0, [r0], -fp
 4b0:	0b0b0024 	bleq	2c0548 <_start-0xbfe3fab8>
 4b4:	08030b3e 	stmdaeq	r3, {r1, r2, r3, r4, r5, r8, r9, fp}
 4b8:	35070000 	strcc	r0, [r7, #-0]
 4bc:	00134900 	andseq	r4, r3, r0, lsl #18
 4c0:	00160800 	andseq	r0, r6, r0, lsl #16
 4c4:	0b3a0e03 	bleq	e83cd8 <_start-0xbf27c328>
 4c8:	0b390b3b 	bleq	e431bc <_start-0xbf2bce44>
 4cc:	00001349 	andeq	r1, r0, r9, asr #6
 4d0:	0b000f09 	bleq	40fc <_start-0xc00fbf04>
 4d4:	0013490b 	andseq	r4, r3, fp, lsl #18
 4d8:	01010a00 	tsteq	r1, r0, lsl #20
 4dc:	13011349 	movwne	r1, #4937	; 0x1349
 4e0:	210b0000 	mrscs	r0, (UNDEF: 11)
 4e4:	2f134900 	svccs	0x00134900
 4e8:	0c00000b 	stceq	0, cr0, [r0], {11}
 4ec:	0e030034 	mcreq	0, 0, r0, cr3, cr4, {1}
 4f0:	0b3b0b3a 	bleq	ec31e0 <_start-0xbf23ce20>
 4f4:	13490b39 	movtne	r0, #39737	; 0x9b39
 4f8:	00001802 	andeq	r1, r0, r2, lsl #16
 4fc:	3f002e0d 	svccc	0x00002e0d
 500:	3a0e0319 	bcc	38116c <_start-0xbfd7ee94>
 504:	390b3b0b 	stmdbcc	fp, {r0, r1, r3, r8, r9, fp, ip, sp}
 508:	1119270b 	tstne	r9, fp, lsl #14
 50c:	40061201 	andmi	r1, r6, r1, lsl #4
 510:	19429618 	stmdbne	r2, {r3, r4, r9, sl, ip, pc}^
 514:	2e0e0000 	cdpcs	0, 0, cr0, cr14, cr0, {0}
 518:	03193f01 	tsteq	r9, #1, 30
 51c:	3b0b3a0e 	blcc	2ced5c <_start-0xbfe312a4>
 520:	270b390b 	strcs	r3, [fp, -fp, lsl #18]
 524:	12011119 	andne	r1, r1, #1073741830	; 0x40000006
 528:	97184006 	ldrls	r4, [r8, -r6]
 52c:	13011942 	movwne	r1, #6466	; 0x1942
 530:	050f0000 	streq	r0, [pc, #-0]	; 538 <_start-0xc00ffac8>
 534:	3a0e0300 	bcc	38113c <_start-0xbfd7eec4>
 538:	390b3b0b 	stmdbcc	fp, {r0, r1, r3, r8, r9, fp, ip, sp}
 53c:	0213490b 	andseq	r4, r3, #180224	; 0x2c000
 540:	10000018 	andne	r0, r0, r8, lsl r0
 544:	08030005 	stmdaeq	r3, {r0, r2}
 548:	0b3b0b3a 	bleq	ec3238 <_start-0xbf23cdc8>
 54c:	13490b39 	movtne	r0, #39737	; 0x9b39
 550:	00001802 	andeq	r1, r0, r2, lsl #16
 554:	3f012e11 	svccc	0x00012e11
 558:	3a0e0319 	bcc	3811c4 <_start-0xbfd7ee3c>
 55c:	390b3b0b 	stmdbcc	fp, {r0, r1, r3, r8, r9, fp, ip, sp}
 560:	4919270b 	ldmdbmi	r9, {r0, r1, r3, r8, r9, sl, sp}
 564:	12011113 	andne	r1, r1, #-1073741820	; 0xc0000004
 568:	96184006 	ldrls	r4, [r8], -r6
 56c:	13011942 	movwne	r1, #6466	; 0x1942
 570:	34120000 	ldrcc	r0, [r2], #-0
 574:	3a080300 	bcc	20117c <_start-0xbfefee84>
 578:	390b3b0b 	stmdbcc	fp, {r0, r1, r3, r8, r9, fp, ip, sp}
 57c:	0213490b 	andseq	r4, r3, #180224	; 0x2c000
 580:	13000018 	movwne	r0, #24
 584:	193f012e 	ldmdbne	pc!, {r1, r2, r3, r5, r8}	; <UNPREDICTABLE>
 588:	0b3a0e03 	bleq	e83d9c <_start-0xbf27c264>
 58c:	0b390b3b 	bleq	e43280 <_start-0xbf2bcd80>
 590:	13491927 	movtne	r1, #39207	; 0x9927
 594:	06120111 			; <UNDEFINED> instruction: 0x06120111
 598:	42971840 	addsmi	r1, r7, #64, 16	; 0x400000
 59c:	00130119 	andseq	r0, r3, r9, lsl r1
 5a0:	012e1400 			; <UNDEFINED> instruction: 0x012e1400
 5a4:	0e03193f 			; <UNDEFINED> instruction: 0x0e03193f
 5a8:	0b3b0b3a 	bleq	ec3298 <_start-0xbf23cd68>
 5ac:	19270b39 	stmdbne	r7!, {r0, r3, r4, r5, r8, r9, fp}
 5b0:	06120111 			; <UNDEFINED> instruction: 0x06120111
 5b4:	42971840 	addsmi	r1, r7, #64, 16	; 0x400000
 5b8:	00000019 	andeq	r0, r0, r9, lsl r0
 5bc:	25011101 	strcs	r1, [r1, #-257]	; 0xfffffeff
 5c0:	030b130e 	movweq	r1, #45838	; 0xb30e
 5c4:	110e1b0e 	tstne	lr, lr, lsl #22
 5c8:	10061201 	andne	r1, r6, r1, lsl #4
 5cc:	02000017 	andeq	r0, r0, #23
 5d0:	0b3e0104 	bleq	f809e8 <_start-0xbf17f618>
 5d4:	13490b0b 	movtne	r0, #39691	; 0x9b0b
 5d8:	0b3b0b3a 	bleq	ec32c8 <_start-0xbf23cd38>
 5dc:	13010b39 	movwne	r0, #6969	; 0x1b39
 5e0:	28030000 	stmdacs	r3, {}	; <UNPREDICTABLE>
 5e4:	1c0e0300 	stcne	3, cr0, [lr], {-0}
 5e8:	0400000b 	streq	r0, [r0], #-11
 5ec:	0b0b0024 	bleq	2c0684 <_start-0xbfe3f97c>
 5f0:	0e030b3e 	vmoveq.16	d3[0], r0
 5f4:	13050000 	movwne	r0, #20480	; 0x5000
 5f8:	0b0e0301 	bleq	381204 <_start-0xbfd7edfc>
 5fc:	3b0b3a0b 	blcc	2cee30 <_start-0xbfe311d0>
 600:	010b390b 	tsteq	fp, fp, lsl #18
 604:	06000013 			; <UNDEFINED> instruction: 0x06000013
 608:	0803000d 	stmdaeq	r3, {r0, r2, r3}
 60c:	0b3b0b3a 	bleq	ec32fc <_start-0xbf23cd04>
 610:	13490b39 	movtne	r0, #39737	; 0x9b39
 614:	00000b38 	andeq	r0, r0, r8, lsr fp
 618:	03000d07 	movweq	r0, #3335	; 0xd07
 61c:	3b0b3a0e 	blcc	2cee5c <_start-0xbfe311a4>
 620:	490b390b 	stmdbmi	fp, {r0, r1, r3, r8, fp, ip, sp}
 624:	000b3813 	andeq	r3, fp, r3, lsl r8
 628:	00240800 	eoreq	r0, r4, r0, lsl #16
 62c:	0b3e0b0b 	bleq	f83260 <_start-0xbf17cda0>
 630:	00000803 	andeq	r0, r0, r3, lsl #16
 634:	03001609 	movweq	r1, #1545	; 0x609
 638:	3b0b3a0e 	blcc	2cee78 <_start-0xbfe31188>
 63c:	490b390b 	stmdbmi	fp, {r0, r1, r3, r8, fp, ip, sp}
 640:	0a000013 	beq	694 <_start-0xc00ff96c>
 644:	0b0b000f 	bleq	2c0688 <_start-0xbfe3f978>
 648:	00001349 	andeq	r1, r0, r9, asr #6
 64c:	0300340b 	movweq	r3, #1035	; 0x40b
 650:	3b0b3a0e 	blcc	2cee90 <_start-0xbfe31170>
 654:	490b390b 	stmdbmi	fp, {r0, r1, r3, r8, fp, ip, sp}
 658:	02193f13 	andseq	r3, r9, #19, 30	; 0x4c
 65c:	0c000018 	stceq	0, cr0, [r0], {24}
 660:	193f002e 	ldmdbne	pc!, {r1, r2, r3, r5}	; <UNPREDICTABLE>
 664:	0b3a0e03 	bleq	e83e78 <_start-0xbf27c188>
 668:	0b390b3b 	bleq	e4335c <_start-0xbf2bcca4>
 66c:	01111927 	tsteq	r1, r7, lsr #18
 670:	18400612 	stmdane	r0, {r1, r4, r9, sl}^
 674:	00194296 	mulseq	r9, r6, r2
 678:	11010000 	mrsne	r0, (UNDEF: 1)
 67c:	130e2501 	movwne	r2, #58625	; 0xe501
 680:	1b0e030b 	blne	3812b4 <_start-0xbfd7ed4c>
 684:	1201110e 	andne	r1, r1, #-2147483645	; 0x80000003
 688:	00171006 	andseq	r1, r7, r6
 68c:	01130200 	tsteq	r3, r0, lsl #4
 690:	0b3a050b 	bleq	e81ac4 <_start-0xbf27e53c>
 694:	0b390b3b 	bleq	e43388 <_start-0xbf2bcc78>
 698:	00001301 	andeq	r1, r0, r1, lsl #6
 69c:	03000d03 	movweq	r0, #3331	; 0xd03
 6a0:	3b0b3a0e 	blcc	2ceee0 <_start-0xbfe31120>
 6a4:	490b390b 	stmdbmi	fp, {r0, r1, r3, r8, fp, ip, sp}
 6a8:	000b3813 	andeq	r3, fp, r3, lsl r8
 6ac:	000d0400 	andeq	r0, sp, r0, lsl #8
 6b0:	0b3a0e03 	bleq	e83ec4 <_start-0xbf27c13c>
 6b4:	0b390b3b 	bleq	e433a8 <_start-0xbf2bcc58>
 6b8:	05381349 	ldreq	r1, [r8, #-841]!	; 0xfffffcb7
 6bc:	24050000 	strcs	r0, [r5], #-0
 6c0:	3e0b0b00 	vmlacc.f64	d0, d11, d0
 6c4:	000e030b 	andeq	r0, lr, fp, lsl #6
 6c8:	00350600 	eorseq	r0, r5, r0, lsl #12
 6cc:	00001349 	andeq	r1, r0, r9, asr #6
 6d0:	49010107 	stmdbmi	r1, {r0, r1, r2, r8}
 6d4:	00130113 	andseq	r0, r3, r3, lsl r1
 6d8:	00210800 	eoreq	r0, r1, r0, lsl #16
 6dc:	0b2f1349 	bleq	bc5408 <_start-0xbf53abf8>
 6e0:	16090000 	strne	r0, [r9], -r0
 6e4:	3a0e0300 	bcc	3812ec <_start-0xbfd7ed14>
 6e8:	390b3b0b 	stmdbcc	fp, {r0, r1, r3, r8, r9, fp, ip, sp}
 6ec:	0013490b 	andseq	r4, r3, fp, lsl #18
 6f0:	01130a00 	tsteq	r3, r0, lsl #20
 6f4:	0b0b0e03 	bleq	2c3f08 <_start-0xbfe3c0f8>
 6f8:	0b3b0b3a 	bleq	ec33e8 <_start-0xbf23cc18>
 6fc:	13010b39 	movwne	r0, #6969	; 0x1b39
 700:	0d0b0000 	stceq	0, cr0, [fp, #-0]
 704:	3a080300 	bcc	20130c <_start-0xbfefecf4>
 708:	390b3b0b 	stmdbcc	fp, {r0, r1, r3, r8, r9, fp, ip, sp}
 70c:	3813490b 	ldmdacc	r3, {r0, r1, r3, r8, fp, lr}
 710:	0c00000b 	stceq	0, cr0, [r0], {11}
 714:	0b0b0024 	bleq	2c07ac <_start-0xbfe3f854>
 718:	08030b3e 	stmdaeq	r3, {r1, r2, r3, r4, r5, r8, r9, fp}
 71c:	0f0d0000 	svceq	0x000d0000
 720:	490b0b00 	stmdbmi	fp, {r8, r9, fp}
 724:	0e000013 	mcreq	0, 0, r0, cr0, cr3, {0}
 728:	19270115 	stmdbne	r7!, {r0, r2, r4, r8}
 72c:	00001301 	andeq	r1, r0, r1, lsl #6
 730:	4900050f 	stmdbmi	r0, {r0, r1, r2, r3, r8, sl}
 734:	10000013 	andne	r0, r0, r3, lsl r0
 738:	19270015 	stmdbne	r7!, {r0, r2, r4}
 73c:	34110000 	ldrcc	r0, [r1], #-0
 740:	3a0e0300 	bcc	381348 <_start-0xbfd7ecb8>
 744:	390b3b0b 	stmdbcc	fp, {r0, r1, r3, r8, r9, fp, ip, sp}
 748:	0213490b 	andseq	r4, r3, #180224	; 0x2c000
 74c:	12000018 	andne	r0, r0, #24
 750:	0e030034 	mcreq	0, 0, r0, cr3, cr4, {1}
 754:	0b3b0b3a 	bleq	ec3444 <_start-0xbf23cbbc>
 758:	13490b39 	movtne	r0, #39737	; 0x9b39
 75c:	1802193f 	stmdane	r2, {r0, r1, r2, r3, r4, r5, r8, fp, ip}
 760:	2e130000 	cdpcs	0, 1, cr0, cr3, cr0, {0}
 764:	03193f00 	tsteq	r9, #0, 30
 768:	3b0b3a0e 	blcc	2cefa8 <_start-0xbfe31058>
 76c:	270b390b 	strcs	r3, [fp, -fp, lsl #18]
 770:	12011119 	andne	r1, r1, #1073741830	; 0x40000006
 774:	96184006 	ldrls	r4, [r8], -r6
 778:	00001942 	andeq	r1, r0, r2, asr #18
 77c:	03002e14 	movweq	r2, #3604	; 0xe14
 780:	3b0b3a0e 	blcc	2cefc0 <_start-0xbfe31040>
 784:	270b390b 	strcs	r3, [fp, -fp, lsl #18]
 788:	12011119 	andne	r1, r1, #1073741830	; 0x40000006
 78c:	97184006 	ldrls	r4, [r8, -r6]
 790:	00001942 	andeq	r1, r0, r2, asr #18
 794:	03012e15 	movweq	r2, #7701	; 0x1e15
 798:	3b0b3a0e 	blcc	2cefd8 <_start-0xbfe31028>
 79c:	270b390b 	strcs	r3, [fp, -fp, lsl #18]
 7a0:	12011119 	andne	r1, r1, #1073741830	; 0x40000006
 7a4:	96184006 	ldrls	r4, [r8], -r6
 7a8:	13011942 	movwne	r1, #6466	; 0x1942
 7ac:	05160000 	ldreq	r0, [r6, #-0]
 7b0:	3a0e0300 	bcc	3813b8 <_start-0xbfd7ec48>
 7b4:	390b3b0b 	stmdbcc	fp, {r0, r1, r3, r8, r9, fp, ip, sp}
 7b8:	0213490b 	andseq	r4, r3, #180224	; 0x2c000
 7bc:	00000018 	andeq	r0, r0, r8, lsl r0

Disassembly of section .debug_aranges:

00000000 <.debug_aranges>:
   0:	0000001c 	andeq	r0, r0, ip, lsl r0
   4:	00000002 	andeq	r0, r0, r2
   8:	00040000 	andeq	r0, r4, r0
   c:	00000000 	andeq	r0, r0, r0
  10:	c0100000 	andsgt	r0, r0, r0
  14:	0000003c 	andeq	r0, r0, ip, lsr r0
	...
  20:	0000001c 	andeq	r0, r0, ip, lsl r0
  24:	00260002 	eoreq	r0, r6, r2
  28:	00040000 	andeq	r0, r4, r0
  2c:	00000000 	andeq	r0, r0, r0
  30:	c010003c 	andsgt	r0, r0, ip, lsr r0
  34:	00000588 	andeq	r0, r0, r8, lsl #11
	...
  40:	00000014 	andeq	r0, r0, r4, lsl r0
  44:	01120002 	tsteq	r2, r2
  48:	00040000 	andeq	r0, r4, r0
	...
  58:	0000001c 	andeq	r0, r0, ip, lsl r0
  5c:	016b0002 	cmneq	fp, r2
  60:	00040000 	andeq	r0, r4, r0
  64:	00000000 	andeq	r0, r0, r0
  68:	c01005c4 	andsgt	r0, r0, r4, asr #11
  6c:	0000021c 	andeq	r0, r0, ip, lsl r2
	...
  78:	0000001c 	andeq	r0, r0, ip, lsl r0
  7c:	032e0002 			; <UNDEFINED> instruction: 0x032e0002
  80:	00040000 	andeq	r0, r4, r0
  84:	00000000 	andeq	r0, r0, r0
  88:	c01007e0 	andsgt	r0, r0, r0, ror #15
  8c:	00000750 	andeq	r0, r0, r0, asr r7
	...
  98:	0000001c 	andeq	r0, r0, ip, lsl r0
  9c:	04540002 	ldrbeq	r0, [r4], #-2
  a0:	00040000 	andeq	r0, r4, r0
  a4:	00000000 	andeq	r0, r0, r0
  a8:	c0100f30 	andsgt	r0, r0, r0, lsr pc
  ac:	000001d8 	ldrdeq	r0, [r0], -r8
	...
  b8:	0000001c 	andeq	r0, r0, ip, lsl r0
  bc:	05b90002 	ldreq	r0, [r9, #2]!
  c0:	00040000 	andeq	r0, r4, r0
  c4:	00000000 	andeq	r0, r0, r0
  c8:	c0101108 	andsgt	r1, r0, r8, lsl #2
  cc:	00000270 	andeq	r0, r0, r0, ror r2
	...
  d8:	0000001c 	andeq	r0, r0, ip, lsl r0
  dc:	08fc0002 	ldmeq	ip!, {r1}^
  e0:	00040000 	andeq	r0, r4, r0
  e4:	00000000 	andeq	r0, r0, r0
  e8:	c0101378 	andsgt	r1, r0, r8, ror r3
  ec:	00000258 	andeq	r0, r0, r8, asr r2
	...
  f8:	0000001c 	andeq	r0, r0, ip, lsl r0
  fc:	0bd60002 	bleq	ff58010c <__bss_end+0x3f47ce3c>
 100:	00040000 	andeq	r0, r4, r0
 104:	00000000 	andeq	r0, r0, r0
 108:	c01015d0 			; <UNDEFINED> instruction: 0xc01015d0
 10c:	0000001c 	andeq	r0, r0, ip, lsl r0
	...
 118:	0000001c 	andeq	r0, r0, ip, lsl r0
 11c:	0d8d0002 	stceq	0, cr0, [sp, #8]
 120:	00040000 	andeq	r0, r4, r0
 124:	00000000 	andeq	r0, r0, r0
 128:	c01015ec 	andsgt	r1, r0, ip, ror #11
 12c:	00000b78 	andeq	r0, r0, r8, ror fp
	...

Disassembly of section .debug_str:

00000000 <.debug_str>:
   0:	72617473 	rsbvc	r7, r1, #1929379840	; 0x73000000
   4:	00532e74 	subseq	r2, r3, r4, ror lr
   8:	6d6f682f 	stclvs	8, cr6, [pc, #-188]!	; ffffff54 <__bss_end+0x3fefcc84>
   c:	6f622f65 	svcvs	0x00622f65
  10:	772f6b6f 	strvc	r6, [pc, -pc, ror #22]!
  14:	2f6b726f 	svccs	0x006b726f
  18:	616e6966 	cmnvs	lr, r6, ror #18
  1c:	636c2f6c 	cmnvs	ip, #108, 30	; 0x1b0
  20:	33302f64 	teqcc	r0, #100, 30	; 0x190
  24:	6e6f665f 	mcrvs	6, 3, r6, cr15, cr15, {2}
  28:	65745f74 	ldrbvs	r5, [r4, #-3956]!	; 0xfffff08c
  2c:	47007473 	smlsdxmi	r0, r3, r4, r7
  30:	4120554e 			; <UNDEFINED> instruction: 0x4120554e
  34:	2e322053 	mrccs	0, 1, r2, cr2, cr3, {2}
  38:	6d003233 	sfmvs	f3, 4, [r0, #-204]	; 0xffffff34
  3c:	2e6e6961 	vnmulcs.f16	s13, s28, s3	; <UNPREDICTABLE>
  40:	616d0063 	cmnvs	sp, r3, rrx
  44:	78006e69 	stmdavc	r0, {r0, r3, r5, r6, r9, sl, fp, sp, lr}
  48:	00736572 	rsbseq	r6, r3, r2, ror r5
  4c:	5f64636c 	svcpl	0x0064636c
  50:	74736574 	ldrbtvc	r6, [r3], #-1396	; 0xfffffa8c
  54:	554e4700 	strbpl	r4, [lr, #-1792]	; 0xfffff900
  58:	37314320 	ldrcc	r4, [r1, -r0, lsr #6]!
  5c:	342e3820 	strtcc	r3, [lr], #-2080	; 0xfffff7e0
  60:	2d20302e 	stccs	0, cr3, [r0, #-184]!	; 0xffffff48
  64:	7570636d 	ldrbvc	r6, [r0, #-877]!	; 0xfffffc93
  68:	726f633d 	rsbvc	r6, pc, #-201326592	; 0xf4000000
  6c:	2d786574 	cfldr64cs	mvdx6, [r8, #-464]!	; 0xfffffe30
  70:	2d203761 	stccs	7, cr3, [r0, #-388]!	; 0xfffffe7c
  74:	6f6c666d 	svcvs	0x006c666d
  78:	612d7461 			; <UNDEFINED> instruction: 0x612d7461
  7c:	683d6962 	ldmdavs	sp!, {r1, r5, r6, r8, fp, sp, lr}
  80:	20647261 	rsbcs	r7, r4, r1, ror #4
  84:	70666d2d 	rsbvc	r6, r6, sp, lsr #26
  88:	66763d75 			; <UNDEFINED> instruction: 0x66763d75
  8c:	2d347670 	ldccs	6, cr7, [r4, #-448]!	; 0xfffffe40
  90:	20363164 	eorscs	r3, r6, r4, ror #2
  94:	62616d2d 	rsbvs	r6, r1, #2880	; 0xb40
  98:	61613d69 	cmnvs	r1, r9, ror #26
  9c:	2d736370 	ldclcs	3, cr6, [r3, #-448]!	; 0xfffffe40
  a0:	756e696c 	strbvc	r6, [lr, #-2412]!	; 0xfffff694
  a4:	6d2d2078 	stcvs	0, cr2, [sp, #-480]!	; 0xfffffe20
  a8:	206d7261 	rsbcs	r7, sp, r1, ror #4
  ac:	6c746d2d 	ldclvs	13, cr6, [r4], #-180	; 0xffffff4c
  b0:	69642d73 	stmdbvs	r4!, {r0, r1, r4, r5, r6, r8, sl, fp, sp}^
  b4:	63656c61 	cmnvs	r5, #24832	; 0x6100
  b8:	6e673d74 	mcrvs	13, 3, r3, cr7, cr4, {3}
  bc:	6d2d2075 	stcvs	0, cr2, [sp, #-468]!	; 0xfffffe2c
  c0:	68637261 	stmdavs	r3!, {r0, r5, r6, r9, ip, sp, lr}^
  c4:	6d72613d 	ldfvse	f6, [r2, #-244]!	; 0xffffff0c
  c8:	65763776 	ldrbvs	r3, [r6, #-1910]!	; 0xfffff88a
  cc:	2070662b 	rsbscs	r6, r0, fp, lsr #12
  d0:	6600672d 	strvs	r6, [r0], -sp, lsr #14
  d4:	61625f62 	cmnvs	r2, r2, ror #30
  d8:	73006573 	movwvc	r6, #1395	; 0x573
  dc:	74726f68 	ldrbtvc	r6, [r2], #-3944	; 0xfffff098
  e0:	736e7520 	cmnvc	lr, #32, 10	; 0x8000000
  e4:	656e6769 	strbvs	r6, [lr, #-1897]!	; 0xfffff897
  e8:	6e692064 	cdpvs	0, 6, cr2, cr9, cr4, {3}
  ec:	72790074 	rsbsvc	r0, r9, #116	; 0x74
  f0:	66007365 	strvs	r7, [r0], -r5, ror #6
  f4:	5f746e6f 	svcpl	0x00746e6f
  f8:	36317838 			; <UNDEFINED> instruction: 0x36317838
  fc:	7500632e 	strvc	r6, [r0, #-814]	; 0xfffffcd2
 100:	6769736e 	strbvs	r7, [r9, -lr, ror #6]!
 104:	2064656e 	rsbcs	r6, r4, lr, ror #10
 108:	72616863 	rsbvc	r6, r1, #6488064	; 0x630000
 10c:	6e6f6600 	cdpvs	6, 6, cr6, cr15, cr0, {0}
 110:	74616474 	strbtvc	r6, [r1], #-1140	; 0xfffffb8c
 114:	78385f61 	ldmdavc	r8!, {r0, r5, r6, r8, r9, sl, fp, ip, lr}
 118:	66003631 			; <UNDEFINED> instruction: 0x66003631
 11c:	2e746e6f 	cdpcs	14, 7, cr6, cr4, cr15, {3}
 120:	62660063 	rsbvs	r0, r6, #99	; 0x63
 124:	6972705f 	ldmdbvs	r2!, {r0, r1, r2, r3, r4, r6, ip, sp, lr}^
 128:	635f746e 	cmpvs	pc, #1845493760	; 0x6e000000
 12c:	00726168 	rsbseq	r6, r2, r8, ror #2
 130:	73746f64 	cmnvc	r4, #100, 30	; 0x190
 134:	74616400 	strbtvc	r6, [r1], #-1024	; 0xfffffc00
 138:	6f630061 	svcvs	0x00630061
 13c:	00726f6c 	rsbseq	r6, r2, ip, ror #30
 140:	746e6f66 	strbtvc	r6, [lr], #-3942	; 0xfffff09a
 144:	696e695f 	stmdbvs	lr!, {r0, r1, r2, r3, r4, r6, r8, fp, sp, lr}^
 148:	62660074 	rsbvs	r0, r6, #116	; 0x74
 14c:	6972705f 	ldmdbvs	r2!, {r0, r1, r2, r3, r4, r6, ip, sp, lr}^
 150:	735f746e 	cmpvc	pc, #1845493760	; 0x6e000000
 154:	6e697274 	mcrvs	2, 3, r7, cr9, cr4, {3}
 158:	65670067 	strbvs	r0, [r7, #-103]!	; 0xffffff99
 15c:	74656d6f 	strbtvc	r6, [r5], #-3439	; 0xfffff291
 160:	632e7972 			; <UNDEFINED> instruction: 0x632e7972
 164:	61726400 	cmnvs	r2, r0, lsl #8
 168:	69635f77 	stmdbvs	r3!, {r0, r1, r2, r4, r5, r6, r8, r9, sl, fp, ip, lr}^
 16c:	656c6372 	strbvs	r6, [ip, #-882]!	; 0xfffffc8e
 170:	61726400 	cmnvs	r2, r0, lsl #8
 174:	696c5f77 	stmdbvs	ip!, {r0, r1, r2, r4, r5, r6, r8, r9, sl, fp, ip, lr}^
 178:	7000656e 	andvc	r6, r0, lr, ror #10
 17c:	6c657869 	stclvs	8, cr7, [r5], #-420	; 0xfffffe5c
 180:	7361625f 	cmnvc	r1, #-268435451	; 0xf0000005
 184:	6f630065 	svcvs	0x00630065
 188:	7265766e 	rsbvc	r7, r5, #115343360	; 0x6e00000
 18c:	62323374 	eorsvs	r3, r2, #116, 6	; 0xd0000001
 190:	6f747070 	svcvs	0x00747070
 194:	70623631 	rsbvc	r3, r2, r1, lsr r6
 198:	62660070 	rsbvs	r0, r6, #112	; 0x70
 19c:	7475705f 	ldrbtvc	r7, [r5], #-95	; 0xffffffa1
 1a0:	7869705f 	stmdavc	r9!, {r0, r1, r2, r3, r4, r6, ip, sp, lr}^
 1a4:	66006c65 	strvs	r6, [r0], -r5, ror #24
 1a8:	65675f62 	strbvs	r5, [r7, #-3938]!	; 0xfffff09e
 1ac:	636c5f74 	cmnvs	ip, #116, 30	; 0x1d0
 1b0:	61705f64 	cmnvs	r0, r4, ror #30
 1b4:	736d6172 	cmnvc	sp, #-2147483620	; 0x8000001c
 1b8:	61726600 	cmnvs	r2, r0, lsl #12
 1bc:	7562656d 	strbvc	r6, [r2, #-1389]!	; 0xfffffa93
 1c0:	72656666 	rsbvc	r6, r5, #106954752	; 0x6600000
 1c4:	7000632e 	andvc	r6, r0, lr, lsr #6
 1c8:	64636c5f 	strbtvs	r6, [r3], #-3167	; 0xfffff3a1
 1cc:	6e6f635f 	mcrvs	3, 3, r6, cr15, cr15, {2}
 1d0:	6c6f7274 	sfmvs	f7, 2, [pc], #-464	; 8 <_start-0xc00ffff8>
 1d4:	0072656c 	rsbseq	r6, r2, ip, ror #10
 1d8:	5f64636c 	svcpl	0x0064636c
 1dc:	746e6f63 	strbtvc	r6, [lr], #-3939	; 0xfffff09d
 1e0:	656c6c6f 	strbvs	r6, [ip, #-3183]!	; 0xfffff391
 1e4:	64615f72 	strbtvs	r5, [r1], #-3954	; 0xfffff08e
 1e8:	6c700064 	ldclvs	0, cr0, [r0], #-400	; 0xfffffe70
 1ec:	61706463 	cmnvs	r0, r3, ror #8
 1f0:	736d6172 	cmnvc	sp, #-2147483620	; 0x8000001c
 1f4:	6e697000 	cdpvs	0, 6, cr7, cr9, cr0, {0}
 1f8:	6f705f73 	svcvs	0x00705f73
 1fc:	6972616c 	ldmdbvs	r2!, {r2, r3, r5, r6, r8, sp, lr}^
 200:	74007974 	strvc	r7, [r0], #-2420	; 0xfffff68c
 204:	5f656d69 	svcpl	0x00656d69
 208:	00716573 	rsbseq	r6, r1, r3, ror r5
 20c:	64636c70 	strbtvs	r6, [r3], #-3184	; 0xfffff390
 210:	006e6f63 	rsbeq	r6, lr, r3, ror #30
 214:	5f64636c 	svcpl	0x0064636c
 218:	746e6f63 	strbtvc	r6, [lr], #-3939	; 0xfffff09d
 21c:	6c6c6f72 	stclvs	15, cr6, [ip], #-456	; 0xfffffe38
 220:	6d5f7265 	lfmvs	f7, 2, [pc, #-404]	; 94 <_start-0xc00fff6c>
 224:	67616e61 	strbvs	r6, [r1, -r1, ror #28]!
 228:	632e7265 			; <UNDEFINED> instruction: 0x632e7265
 22c:	705f6700 	subsvc	r6, pc, r0, lsl #14
 230:	64636c5f 	strbtvs	r6, [r3], #-3167	; 0xfffff3a1
 234:	6e6f635f 	mcrvs	3, 3, r6, cr15, cr15, {2}
 238:	6c6f7274 	sfmvs	f7, 2, [pc], #-464	; 70 <_start-0xc00fff90>
 23c:	5f72656c 	svcpl	0x0072656c
 240:	656c6573 	strbvs	r6, [ip, #-1395]!	; 0xfffffa8d
 244:	64657463 	strbtvs	r7, [r5], #-1123	; 0xfffffb9d
 248:	79736800 	ldmdbvc	r3!, {fp, sp, lr}^
 24c:	7200636e 	andvc	r6, r0, #-1207959551	; 0xb8000001
 250:	73696765 	cmnvc	r9, #26476544	; 0x1940000
 254:	5f726574 	svcpl	0x00726574
 258:	5f64636c 	svcpl	0x0064636c
 25c:	746e6f63 	strbtvc	r6, [lr], #-3939	; 0xfffff09d
 260:	6c6c6f72 	stclvs	15, cr6, [ip], #-456	; 0xfffffe38
 264:	76007265 	strvc	r7, [r0], -r5, ror #4
 268:	006b6c63 	rsbeq	r6, fp, r3, ror #24
 26c:	636c5f70 	cmnvs	ip, #112, 30	; 0x1c0
 270:	61705f64 	cmnvs	r0, r4, ror #30
 274:	736d6172 	cmnvc	sp, #-2147483620	; 0x8000001c
 278:	615f7000 	cmpvs	pc, r0
 27c:	79617272 	stmdbvc	r1!, {r1, r4, r5, r6, r9, ip, sp, lr}^
 280:	64636c5f 	strbtvs	r6, [r3], #-3167	; 0xfffff3a1
 284:	6e6f635f 	mcrvs	3, 3, r6, cr15, cr15, {2}
 288:	6c6f7274 	sfmvs	f7, 2, [pc], #-464	; c0 <_start-0xc00fff40>
 28c:	0072656c 	rsbseq	r6, r2, ip, ror #10
 290:	63727473 	cmnvs	r2, #1929379840	; 0x73000000
 294:	7300706d 	movwvc	r7, #109	; 0x6d
 298:	63656c65 	cmnvs	r5, #25856	; 0x6500
 29c:	636c5f74 	cmnvs	ip, #116, 30	; 0x1d0
 2a0:	6f635f64 	svcvs	0x00635f64
 2a4:	6f72746e 	svcvs	0x0072746e
 2a8:	72656c6c 	rsbvc	r6, r5, #108, 24	; 0x6c00
 2ac:	79737600 	ldmdbvc	r3!, {r9, sl, ip, sp, lr}^
 2b0:	6e00636e 	cdpvs	3, 0, cr6, cr0, cr14, {3}
 2b4:	00656d61 	rsbeq	r6, r5, r1, ror #26
 2b8:	736e6970 	cmnvc	lr, #112, 18	; 0x1c0000
 2bc:	6c6f705f 	stclvs	0, cr7, [pc], #-380	; 148 <_start-0xc00ffeb8>
 2c0:	6d697400 	cfstrdvs	mvd7, [r9, #-0]
 2c4:	65735f65 	ldrbvs	r5, [r3, #-3941]!	; 0xfffff09b
 2c8:	6e657571 	mcrvs	5, 3, r7, cr5, cr1, {3}
 2cc:	5f006563 	svcpl	0x00006563
 2d0:	7365725f 	cmnvc	r5, #-268435451	; 0xf0000005
 2d4:	64636c00 	strbtvs	r6, [r3], #-3072	; 0xfffff400
 2d8:	6e616d5f 	mcrvs	13, 3, r6, cr1, cr15, {2}
 2dc:	72656761 	rsbvc	r6, r5, #25427968	; 0x1840000
 2e0:	6400632e 	strvs	r6, [r0], #-814	; 0xfffffcd2
 2e4:	79616c65 	stmdbvc	r1!, {r0, r2, r5, r6, sl, fp, sp, lr}^
 2e8:	64636c00 	strbtvs	r6, [r3], #-3072	; 0xfffff400
 2ec:	696e695f 	stmdbvs	lr!, {r0, r1, r2, r3, r4, r6, r8, fp, sp, lr}^
 2f0:	636c0074 	cmnvs	ip, #116	; 0x74
 2f4:	69645f64 	stmdbvs	r4!, {r2, r5, r6, r8, r9, sl, fp, ip, lr}^
 2f8:	6c626173 	stfvse	f6, [r2], #-460	; 0xfffffe34
 2fc:	5f700065 	svcpl	0x00700065
 300:	61727261 	cmnvs	r2, r1, ror #4
 304:	636c5f79 	cmnvs	ip, #484	; 0x1e4
 308:	636c0064 	cmnvs	ip, #100	; 0x64
 30c:	6e655f64 	cdpvs	15, 6, cr5, cr5, cr4, {3}
 310:	656c6261 	strbvs	r6, [ip, #-609]!	; 0xfffffd9f
 314:	6c657300 	stclvs	3, cr7, [r5], #-0
 318:	5f746365 	svcpl	0x00746365
 31c:	0064636c 	rsbeq	r6, r4, ip, ror #6
 320:	5f705f67 	svcpl	0x00705f67
 324:	5f64636c 	svcpl	0x0064636c
 328:	656c6573 	strbvs	r6, [ip, #-1395]!	; 0xfffffa8d
 32c:	64657463 	strbtvs	r7, [r5], #-1123	; 0xfffffb9d
 330:	636c7000 	cmnvs	ip, #0
 334:	65720064 	ldrbvs	r0, [r2, #-100]!	; 0xffffff9c
 338:	74736967 	ldrbtvc	r6, [r3], #-2407	; 0xfffff699
 33c:	6c5f7265 	lfmvs	f7, 2, [pc], {101}	; 0x65
 340:	6c006463 	cfstrsvs	mvf6, [r0], {99}	; 0x63
 344:	375f6463 	ldrbcc	r6, [pc, -r3, ror #8]
 348:	615f305f 	cmpvs	pc, pc, asr r0	; <UNPREDICTABLE>
 34c:	49006464 	stmdbmi	r0, {r2, r5, r6, sl, sp, lr}
 350:	5245564e 	subpl	r5, r5, #81788928	; 0x4e00000
 354:	636c0054 	cmnvs	ip, #84	; 0x54
 358:	5f375f64 	svcpl	0x00375f64
 35c:	61705f30 	cmnvs	r0, r0, lsr pc
 360:	736d6172 	cmnvc	sp, #-2147483620	; 0x8000001c
 364:	524f4e00 	subpl	r4, pc, #0, 28
 368:	004c414d 	subeq	r4, ip, sp, asr #2
 36c:	5f64636c 	svcpl	0x0064636c
 370:	2e305f37 	mrccs	15, 1, r5, cr0, cr7, {1}
 374:	50470063 	subpl	r0, r7, r3, rrx
 378:	5f494f49 	svcpl	0x00494f49
 37c:	4550534f 	ldrbmi	r5, [r0, #-847]	; 0xfffffcb1
 380:	00524445 	subseq	r4, r2, r5, asr #8
 384:	4344544c 	movtmi	r5, #17484	; 0x444c
 388:	3143475f 	cmpcc	r3, pc, asr r7
 38c:	434c0052 	movtmi	r0, #49234	; 0xc052
 390:	5f464944 	svcpl	0x00464944
 394:	65707954 	ldrbvs	r7, [r0, #-2388]!	; 0xfffff6ac
 398:	44544c00 	ldrbmi	r4, [r4], #-3072	; 0xfffff400
 39c:	50425f43 	subpl	r5, r2, r3, asr #30
 3a0:	53005243 	movwpl	r5, #579	; 0x243
 3a4:	32336d74 	eorscc	r6, r3, #116, 26	; 0x1d00
 3a8:	3531706d 	ldrcc	r7, [r1, #-109]!	; 0xffffff93
 3ac:	636c5f37 	cmnvs	ip, #55, 30	; 0xdc
 3b0:	6f635f64 	svcvs	0x00635f64
 3b4:	6f72746e 	svcvs	0x0072746e
 3b8:	72656c6c 	rsbvc	r6, r5, #108, 24	; 0x6c00
 3bc:	49504700 	ldmdbmi	r0, {r8, r9, sl, lr}^
 3c0:	4d5f474f 	ldclmi	7, cr4, [pc, #-316]	; 28c <_start-0xc00ffd74>
 3c4:	5245444f 	subpl	r4, r5, #1325400064	; 0x4f000000
 3c8:	44544c00 	ldrbmi	r4, [r4], #-3072	; 0xfffff400
 3cc:	314c5f43 	cmpcc	ip, r3, asr #30
 3d0:	52434650 	subpl	r4, r3, #80, 12	; 0x5000000
 3d4:	44544c00 	ldrbmi	r4, [r4], #-3072	; 0xfffff400
 3d8:	53535f43 	cmppl	r3, #268	; 0x10c
 3dc:	53005243 	movwpl	r5, #579	; 0x243
 3e0:	32336d74 	eorscc	r6, r3, #116, 26	; 0x1d00
 3e4:	3531706d 	ldrcc	r7, [r1, #-109]!	; 0xffffff93
 3e8:	636c5f37 	cmnvs	ip, #55, 30	; 0xdc
 3ec:	6f695f64 	svcvs	0x00695f64
 3f0:	696e695f 	stmdbvs	lr!, {r0, r1, r2, r3, r4, r6, r8, fp, sp, lr}^
 3f4:	45520074 	ldrbmi	r0, [r2, #-116]	; 0xffffff8c
 3f8:	56524553 			; <UNDEFINED> instruction: 0x56524553
 3fc:	375f4445 	ldrbcc	r4, [pc, -r5, asr #8]
 400:	44544c00 	ldrbmi	r4, [r4], #-3072	; 0xfffff400
 404:	314c5f43 	cmpcc	ip, r3, asr #30
 408:	52434b43 	subpl	r4, r3, #68608	; 0x10c00
 40c:	49504700 	ldmdbmi	r0, {r8, r9, sl, lr}^
 410:	4d5f444f 	cfldrdmi	mvd4, [pc, #-316]	; 2dc <_start-0xc00ffd24>
 414:	5245444f 	subpl	r4, r5, #1325400064	; 0x4f000000
 418:	44544c00 	ldrbmi	r4, [r4], #-3072	; 0xfffff400
 41c:	324c5f43 	subcc	r5, ip, #268	; 0x10c
 420:	4c424643 	mcrrmi	6, 4, r4, r2, cr3
 424:	43520052 	cmpmi	r2, #82	; 0x52
 428:	504d5f43 	subpl	r5, sp, r3, asr #30
 42c:	4250415f 	subsmi	r4, r0, #-1073741801	; 0xc0000017
 430:	534e4534 	movtpl	r4, #58676	; 0xe534
 434:	00525445 	subseq	r5, r2, r5, asr #8
 438:	4344544c 	movtmi	r5, #17484	; 0x444c
 43c:	57314c5f 			; <UNDEFINED> instruction: 0x57314c5f
 440:	52435048 	subpl	r5, r3, #72	; 0x48
 444:	6d745300 	ldclvs	3, cr5, [r4, #-0]
 448:	706d3233 	rsbvc	r3, sp, r3, lsr r2
 44c:	5f373531 	svcpl	0x00373531
 450:	2e6e6f63 	cdpcs	15, 6, cr6, cr14, cr3, {3}
 454:	544c0063 	strbpl	r0, [ip], #-99	; 0xffffff9d
 458:	535f4344 	cmppl	pc, #68, 6	; 0x10000001
 45c:	00524352 	subseq	r4, r2, r2, asr r3
 460:	4344544c 	movtmi	r5, #17484	; 0x444c
 464:	43324c5f 	teqmi	r2, #24320	; 0x5f00
 468:	52414246 	subpl	r4, r1, #1610612740	; 0x60000004
 46c:	70706200 	rsbsvc	r6, r0, r0, lsl #4
 470:	646f6d5f 	strbtvs	r6, [pc], #-3423	; 478 <_start-0xc00ffb88>
 474:	544c0065 	strbpl	r0, [ip], #-101	; 0xffffff9b
 478:	4c5f4344 	mrrcmi	3, 4, r4, pc, cr4	; <UNPREDICTABLE>
 47c:	43414331 	movtmi	r4, #4913	; 0x1331
 480:	544c0052 	strbpl	r0, [ip], #-82	; 0xffffffae
 484:	495f4344 	ldmdbmi	pc, {r2, r6, r8, r9, lr}^	; <UNPREDICTABLE>
 488:	4c005243 	sfmmi	f5, 4, [r0], {67}	; 0x43
 48c:	5f434454 	svcpl	0x00434454
 490:	52324347 	eorspl	r4, r2, #469762049	; 0x1c000001
 494:	44544c00 	ldrbmi	r4, [r4], #-3072	; 0xfffff400
 498:	314c5f43 	cmpcc	ip, r3, asr #30
 49c:	52434344 	subpl	r4, r3, #68, 6	; 0x10000001
 4a0:	44544c00 	ldrbmi	r4, [r4], #-3072	; 0xfffff400
 4a4:	314c5f43 	cmpcc	ip, r3, asr #30
 4a8:	4c424643 	mcrrmi	6, 4, r4, r2, cr3
 4ac:	4700524e 	strmi	r5, [r0, -lr, asr #4]
 4b0:	454f4950 	strbmi	r4, [pc, #-2384]	; fffffb68 <__bss_end+0x3fefc898>
 4b4:	444f4d5f 	strbmi	r4, [pc], #-3423	; 4bc <_start-0xc00ffb44>
 4b8:	47005245 	strmi	r5, [r0, -r5, asr #4]
 4bc:	474f4950 	smlsldmi	r4, pc, r0, r9	; <UNPREDICTABLE>
 4c0:	5246415f 	subpl	r4, r6, #-1073741801	; 0xc0000017
 4c4:	4352004c 	cmpmi	r2, #76	; 0x4c
 4c8:	43525f43 	cmpmi	r2, #268	; 0x10c
 4cc:	4553344b 	ldrbmi	r3, [r3, #-1099]	; 0xfffffbb5
 4d0:	4c00524c 	sfmmi	f5, 4, [r0], {76}	; 0x4c
 4d4:	5f434454 	svcpl	0x00434454
 4d8:	4c43324c 	sfmmi	f3, 2, [r3], {76}	; 0x4c
 4dc:	52575455 	subspl	r5, r7, #1426063360	; 0x55000000
 4e0:	44544c00 	ldrbmi	r4, [r4], #-3072	; 0xfffff400
 4e4:	494c5f43 	stmdbmi	ip, {r0, r1, r6, r8, r9, sl, fp, ip, lr}^
 4e8:	00524350 	subseq	r4, r2, r0, asr r3
 4ec:	336d7453 	cmncc	sp, #1392508928	; 0x53000000
 4f0:	31706d32 	cmncc	r0, r2, lsr sp
 4f4:	6c5f3735 	mrrcvs	7, 3, r3, pc, cr5	; <UNPREDICTABLE>
 4f8:	635f6463 	cmpvs	pc, #1660944384	; 0x63000000
 4fc:	72746e6f 	rsbsvc	r6, r4, #1776	; 0x6f0
 500:	656c6c6f 	strbvs	r6, [ip, #-3183]!	; 0xfffff391
 504:	6e695f72 	mcrvs	15, 3, r5, cr9, cr2, {3}
 508:	4c007469 	cfstrsmi	mvf7, [r0], {105}	; 0x69
 50c:	5f434454 	svcpl	0x00434454
 510:	4650324c 	ldrbmi	r3, [r0], -ip, asr #4
 514:	4c005243 	sfmmi	f5, 4, [r0], {67}	; 0x43
 518:	5f434454 	svcpl	0x00434454
 51c:	4642314c 	strbmi	r3, [r2], -ip, asr #2
 520:	4c005243 	sfmmi	f5, 4, [r0], {67}	; 0x43
 524:	5f434454 	svcpl	0x00434454
 528:	4b43324c 	blmi	10cce60 <_start-0xbf0331a0>
 52c:	4c005243 	sfmmi	f5, 4, [r0], {67}	; 0x43
 530:	5f434454 	svcpl	0x00434454
 534:	00524347 	subseq	r4, r2, r7, asr #6
 538:	336d7453 	cmncc	sp, #1392508928	; 0x53000000
 53c:	31706d32 	cmncc	r0, r2, lsr sp
 540:	6c5f3735 	mrrcvs	7, 3, r3, pc, cr5	; <UNPREDICTABLE>
 544:	635f6463 	cmpvs	pc, #1660944384	; 0x63000000
 548:	72746e6f 	rsbsvc	r6, r4, #1776	; 0x6f0
 54c:	656c6c6f 	strbvs	r6, [ip, #-3183]!	; 0xfffff391
 550:	6e655f72 	mcrvs	15, 3, r5, cr5, cr2, {3}
 554:	656c6261 	strbvs	r6, [ip, #-609]!	; 0xfffffd9f
 558:	49504700 	ldmdbmi	r0, {r8, r9, sl, lr}^
 55c:	4f5f444f 	svcmi	0x005f444f
 560:	45455053 	strbmi	r5, [r5, #-83]	; 0xffffffad
 564:	4c005244 	sfmmi	f5, 4, [r0], {68}	; 0x44
 568:	5f434454 	svcpl	0x00434454
 56c:	52434342 	subpl	r4, r3, #134217729	; 0x8000001
 570:	44544c00 	ldrbmi	r4, [r4], #-3072	; 0xfffff400
 574:	44495f43 	strbmi	r5, [r9], #-3907	; 0xfffff0bd
 578:	544c0052 	strbpl	r0, [ip], #-82	; 0xffffffae
 57c:	495f4344 	ldmdbmi	pc, {r2, r6, r8, r9, lr}^	; <UNPREDICTABLE>
 580:	4c005253 	sfmmi	f5, 4, [r0], {83}	; 0x53
 584:	5f434454 	svcpl	0x00434454
 588:	52535043 	subspl	r5, r3, #67	; 0x43
 58c:	44544c00 	ldrbmi	r4, [r4], #-3072	; 0xfffff400
 590:	324c5f43 	subcc	r5, ip, #268	; 0x10c
 594:	43505657 	cmpmi	r0, #91226112	; 0x5700000
 598:	544c0052 	strbpl	r0, [ip], #-82	; 0xffffffae
 59c:	4c5f4344 	mrrcmi	3, 4, r4, pc, cr4	; <UNPREDICTABLE>
 5a0:	50485732 	subpl	r5, r8, r2, lsr r7
 5a4:	47005243 	strmi	r5, [r0, -r3, asr #4]
 5a8:	444f4950 	strbmi	r4, [pc], #-2384	; 5b0 <_start-0xc00ffa50>
 5ac:	5246415f 	subpl	r4, r6, #-1073741801	; 0xc0000017
 5b0:	544c0048 	strbpl	r0, [ip], #-72	; 0xffffffb8
 5b4:	4c5f4344 	mrrcmi	3, 4, r4, pc, cr4	; <UNPREDICTABLE>
 5b8:	43414332 	movtmi	r4, #4914	; 0x1332
 5bc:	43520052 	cmpmi	r2, #82	; 0x52
 5c0:	4c505f43 	mrrcmi	15, 4, r5, r0, cr3
 5c4:	5243344c 	subpl	r3, r3, #76, 8	; 0x4c000000
 5c8:	44544c00 	ldrbmi	r4, [r4], #-3072	; 0xfffff400
 5cc:	324c5f43 	subcc	r5, ip, #268	; 0x10c
 5d0:	52434344 	subpl	r4, r3, #68, 6	; 0x10000001
 5d4:	44544c00 	ldrbmi	r4, [r4], #-3072	; 0xfffff400
 5d8:	314c5f43 	cmpcc	ip, r3, asr #30
 5dc:	4c424643 	mcrrmi	6, 4, r4, r2, cr3
 5e0:	50470052 	subpl	r0, r7, r2, asr r0
 5e4:	5f494f49 	svcpl	0x00494f49
 5e8:	45444f4d 	strbmi	r4, [r4, #-3917]	; 0xfffff0b3
 5ec:	50470052 	subpl	r0, r7, r2, asr r0
 5f0:	5f474f49 	svcpl	0x00474f49
 5f4:	4550534f 	ldrbmi	r5, [r0, #-847]	; 0xfffffcb1
 5f8:	00524445 	subseq	r4, r2, r5, asr #8
 5fc:	4f495047 	svcmi	0x00495047
 600:	444f5f45 	strbmi	r5, [pc], #-3909	; 608 <_start-0xc00ff9f8>
 604:	50470052 	subpl	r0, r7, r2, asr r0
 608:	5f474f49 	svcpl	0x00474f49
 60c:	48524641 	ldmdami	r2, {r0, r6, r9, sl, lr}^
 610:	49504700 	ldmdbmi	r0, {r8, r9, sl, lr}^
 614:	415f494f 	cmpmi	pc, pc, asr #18
 618:	00485246 	subeq	r5, r8, r6, asr #4
 61c:	4344544c 	movtmi	r5, #17484	; 0x444c
 620:	43314c5f 	teqmi	r1, #24320	; 0x5f00
 624:	52414246 	subpl	r4, r1, #1610612740	; 0x60000004
 628:	44544c00 	ldrbmi	r4, [r4], #-3072	; 0xfffff400
 62c:	324c5f43 	subcc	r5, ip, #268	; 0x10c
 630:	47005243 	strmi	r5, [r0, -r3, asr #4]
 634:	494f4950 	stmdbmi	pc, {r4, r6, r8, fp, lr}^	; <UNPREDICTABLE>
 638:	5246415f 	subpl	r4, r6, #-1073741801	; 0xc0000017
 63c:	7453004c 	ldrbvc	r0, [r3], #-76	; 0xffffffb4
 640:	6d32336d 	ldcvs	3, cr3, [r2, #-436]!	; 0xfffffe4c
 644:	37353170 			; <UNDEFINED> instruction: 0x37353170
 648:	6b6c635f 	blvs	1b193cc <_start-0xbe5e6c34>
 64c:	696e695f 	stmdbvs	lr!, {r0, r1, r2, r3, r4, r6, r8, fp, sp, lr}^
 650:	45520074 	ldrbmi	r0, [r2, #-116]	; 0xffffff8c
 654:	56524553 			; <UNDEFINED> instruction: 0x56524553
 658:	305f4445 	subscc	r4, pc, r5, asr #8
 65c:	53455200 	movtpl	r5, #20992	; 0x5200
 660:	45565245 	ldrbmi	r5, [r6, #-581]	; 0xfffffdbb
 664:	00315f44 	eorseq	r5, r1, r4, asr #30
 668:	45534552 	ldrbmi	r4, [r3, #-1362]	; 0xfffffaae
 66c:	44455652 	strbmi	r5, [r5], #-1618	; 0xfffff9ae
 670:	5200325f 	andpl	r3, r0, #-268435451	; 0xf0000005
 674:	52455345 	subpl	r5, r5, #335544321	; 0x14000001
 678:	5f444556 	svcpl	0x00444556
 67c:	45520033 	ldrbmi	r0, [r2, #-51]	; 0xffffffcd
 680:	56524553 			; <UNDEFINED> instruction: 0x56524553
 684:	345f4445 	ldrbcc	r4, [pc], #-1093	; 68c <_start-0xc00ff974>
 688:	53455200 	movtpl	r5, #20992	; 0x5200
 68c:	45565245 	ldrbmi	r5, [r6, #-581]	; 0xfffffdbb
 690:	00355f44 	eorseq	r5, r5, r4, asr #30
 694:	45534552 	ldrbmi	r4, [r3, #-1362]	; 0xfffffaae
 698:	44455652 	strbmi	r5, [r5], #-1618	; 0xfffff9ae
 69c:	4c00365f 	stcmi	6, cr3, [r0], {95}	; 0x5f
 6a0:	5f434454 	svcpl	0x00434454
 6a4:	5657314c 	ldrbpl	r3, [r7], -ip, asr #2
 6a8:	00524350 	subseq	r4, r2, r0, asr r3
 6ac:	4344544c 	movtmi	r5, #17484	; 0x444c
 6b0:	5245495f 	subpl	r4, r5, #1556480	; 0x17c000
 6b4:	44544c00 	ldrbmi	r4, [r4], #-3072	; 0xfffff400
 6b8:	314c5f43 	cmpcc	ip, r3, asr #30
 6bc:	54554c43 	ldrbpl	r4, [r5], #-3139	; 0xfffff3bd
 6c0:	53005257 	movwpl	r5, #599	; 0x257
 6c4:	32336d74 	eorscc	r6, r3, #116, 26	; 0x1d00
 6c8:	3531706d 	ldrcc	r7, [r1, #-109]!	; 0xffffff93
 6cc:	636c5f37 	cmnvs	ip, #55, 30	; 0xdc
 6d0:	6f635f64 	svcvs	0x00635f64
 6d4:	6f72746e 	svcvs	0x0072746e
 6d8:	72656c6c 	rsbvc	r6, r5, #108, 24	; 0x6c00
 6dc:	7369645f 	cmnvc	r9, #1593835520	; 0x5f000000
 6e0:	656c6261 	strbvs	r6, [ip, #-609]!	; 0xfffffd9f
 6e4:	44544c00 	ldrbmi	r4, [r4], #-3072	; 0xfffff400
 6e8:	314c5f43 	cmpcc	ip, r3, asr #30
 6ec:	47005243 	strmi	r5, [r0, -r3, asr #4]
 6f0:	484f4950 	stmdami	pc, {r4, r6, r8, fp, lr}^	; <UNPREDICTABLE>
 6f4:	5246415f 	subpl	r4, r6, #-1073741801	; 0xc0000017
 6f8:	5047004c 	subpl	r0, r7, ip, asr #32
 6fc:	5f454f49 	svcpl	0x00454f49
 700:	48524641 	ldmdami	r2, {r0, r6, r9, sl, lr}^
 704:	49504700 	ldmdbmi	r0, {r8, r9, sl, lr}^
 708:	415f454f 	cmpmi	pc, pc, asr #10
 70c:	004c5246 	subeq	r5, ip, r6, asr #4
 710:	4344544c 	movtmi	r5, #17484	; 0x444c
 714:	43324c5f 	teqmi	r2, #24320	; 0x5f00
 718:	4e4c4246 	cdpmi	2, 4, cr4, cr12, cr6, {2}
 71c:	74530052 	ldrbvc	r0, [r3], #-82	; 0xffffffae
 720:	6d32336d 	ldcvs	3, cr3, [r2, #-436]!	; 0xfffffe4c
 724:	37353170 			; <UNDEFINED> instruction: 0x37353170
 728:	64636c5f 	strbtvs	r6, [r3], #-3167	; 0xfffff3a1
 72c:	6e6f635f 	mcrvs	3, 3, r6, cr15, cr15, {2}
 730:	6c6f7274 	sfmvs	f7, 2, [pc], #-464	; 568 <_start-0xc00ffa98>
 734:	5f72656c 	svcpl	0x0072656c
 738:	00646461 	rsbeq	r6, r4, r1, ror #8
 73c:	5f434352 	svcpl	0x00434352
 740:	344c4c50 	strbcc	r4, [ip], #-3152	; 0xfffff3b0
 744:	43415246 	movtmi	r5, #4678	; 0x1246
 748:	50470052 	subpl	r0, r7, r2, asr r0
 74c:	5f454f49 	svcpl	0x00454f49
 750:	4550534f 	ldrbmi	r5, [r0, #-847]	; 0xfffffcb1
 754:	00524445 	subseq	r4, r2, r5, asr #8
 758:	5f434352 	svcpl	0x00434352
 75c:	415f504d 	cmpmi	pc, sp, asr #32
 760:	45344248 	ldrmi	r4, [r4, #-584]!	; 0xfffffdb8
 764:	5445534e 	strbpl	r5, [r5], #-846	; 0xfffffcb2
 768:	544c0052 	strbpl	r0, [ip], #-82	; 0xffffffae
 76c:	545f4344 	ldrbpl	r4, [pc], #-836	; 774 <_start-0xc00ff88c>
 770:	00524357 	subseq	r4, r2, r7, asr r3
 774:	5f434352 	svcpl	0x00434352
 778:	344c4c50 	strbcc	r4, [ip], #-3152	; 0xfffff3b0
 77c:	52474643 	subpl	r4, r7, #70254592	; 0x4300000
 780:	43520031 	cmpmi	r2, #49	; 0x31
 784:	4c505f43 	mrrcmi	15, 4, r5, r0, cr3
 788:	4643344c 	strbmi	r3, [r3], -ip, asr #8
 78c:	00325247 	eorseq	r5, r2, r7, asr #4
 790:	4f495047 	svcmi	0x00495047
 794:	46415f48 	strbmi	r5, [r1], -r8, asr #30
 798:	4c004852 	stcmi	8, cr4, [r0], {82}	; 0x52
 79c:	5f434454 	svcpl	0x00434454
 7a0:	4642324c 	strbmi	r3, [r2], -ip, asr #4
 7a4:	4c005243 	sfmmi	f5, 4, [r0], {67}	; 0x43
 7a8:	5f434454 	svcpl	0x00434454
 7ac:	0052434c 	subseq	r4, r2, ip, asr #6
 7b0:	4344544c 	movtmi	r5, #17484	; 0x444c
 7b4:	5344435f 	movtpl	r4, #17247	; 0x435f
 7b8:	50470052 	subpl	r0, r7, r2, asr r0
 7bc:	5f484f49 	svcpl	0x00484f49
 7c0:	45444f4d 	strbmi	r4, [r4, #-3917]	; 0xfffff0b3
 7c4:	544c0052 	strbpl	r0, [ip], #-82	; 0xffffffae
 7c8:	415f4344 	cmpmi	pc, r4, asr #6
 7cc:	00524357 	subseq	r4, r2, r7, asr r3
 7d0:	4f495047 	svcmi	0x00495047
 7d4:	534f5f48 	movtpl	r5, #65352	; 0xff48
 7d8:	44454550 	strbmi	r4, [r5], #-1360	; 0xfffffab0
 7dc:	Address 0x00000000000007dc is out of bounds.


Disassembly of section .debug_frame:

00000000 <.debug_frame>:
   0:	0000000c 	andeq	r0, r0, ip
   4:	ffffffff 			; <UNDEFINED> instruction: 0xffffffff
   8:	7c020001 	stcvc	0, cr0, [r2], {1}
   c:	000d0c0e 	andeq	r0, sp, lr, lsl #24
  10:	00000020 	andeq	r0, r0, r0, lsr #32
  14:	00000000 	andeq	r0, r0, r0
  18:	c010003c 	andsgt	r0, r0, ip, lsr r0
  1c:	0000056c 	andeq	r0, r0, ip, ror #10
  20:	8b080e42 	blhi	203930 <_start-0xbfefc6d0>
  24:	42018e02 	andmi	r8, r1, #2, 28
  28:	03040b0c 	movweq	r0, #19212	; 0x4b0c
  2c:	0d0c02b0 	sfmeq	f0, 4, [ip, #-704]	; 0xfffffd40
  30:	00000008 	andeq	r0, r0, r8
  34:	00000018 	andeq	r0, r0, r8, lsl r0
  38:	00000000 	andeq	r0, r0, r0
  3c:	c01005a8 	andsgt	r0, r0, r8, lsr #11
  40:	0000001c 	andeq	r0, r0, ip, lsl r0
  44:	8b080e42 	blhi	203954 <_start-0xbfefc6ac>
  48:	42018e02 	andmi	r8, r1, #2, 28
  4c:	00040b0c 	andeq	r0, r4, ip, lsl #22
  50:	0000000c 	andeq	r0, r0, ip
  54:	ffffffff 			; <UNDEFINED> instruction: 0xffffffff
  58:	7c020001 	stcvc	0, cr0, [r2], {1}
  5c:	000d0c0e 	andeq	r0, sp, lr, lsl #24
  60:	00000018 	andeq	r0, r0, r8, lsl r0
  64:	00000050 	andeq	r0, r0, r0, asr r0
  68:	c01005c4 	andsgt	r0, r0, r4, asr #11
  6c:	00000034 	andeq	r0, r0, r4, lsr r0
  70:	8b080e42 	blhi	203980 <_start-0xbfefc680>
  74:	42018e02 	andmi	r8, r1, #2, 28
  78:	00040b0c 	andeq	r0, r4, ip, lsl #22
  7c:	0000001c 	andeq	r0, r0, ip, lsl r0
  80:	00000050 	andeq	r0, r0, r0, asr r0
  84:	c01005f8 			; <UNDEFINED> instruction: 0xc01005f8
  88:	000000ec 	andeq	r0, r0, ip, ror #1
  8c:	8b080e42 	blhi	20399c <_start-0xbfefc664>
  90:	42018e02 	andmi	r8, r1, #2, 28
  94:	02040b0c 	andeq	r0, r4, #12, 22	; 0x3000
  98:	080d0c70 	stmdaeq	sp, {r4, r5, r6, sl, fp}
  9c:	0000001c 	andeq	r0, r0, ip, lsl r0
  a0:	00000050 	andeq	r0, r0, r0, asr r0
  a4:	c01006e4 	andsgt	r0, r0, r4, ror #13
  a8:	000000fc 	strdeq	r0, [r0], -ip
  ac:	8b080e42 	blhi	2039bc <_start-0xbfefc644>
  b0:	42018e02 	andmi	r8, r1, #2, 28
  b4:	02040b0c 	andeq	r0, r4, #12, 22	; 0x3000
  b8:	080d0c78 	stmdaeq	sp, {r3, r4, r5, r6, sl, fp}
  bc:	0000000c 	andeq	r0, r0, ip
  c0:	ffffffff 			; <UNDEFINED> instruction: 0xffffffff
  c4:	7c020001 	stcvc	0, cr0, [r2], {1}
  c8:	000d0c0e 	andeq	r0, sp, lr, lsl #24
  cc:	0000001c 	andeq	r0, r0, ip, lsl r0
  d0:	000000bc 	strheq	r0, [r0], -ip
  d4:	c01007e0 	andsgt	r0, r0, r0, ror #15
  d8:	000001e4 	andeq	r0, r0, r4, ror #3
  dc:	8b080e42 	blhi	2039ec <_start-0xbfefc614>
  e0:	42018e02 	andmi	r8, r1, #2, 28
  e4:	02040b0c 	andeq	r0, r4, #12, 22	; 0x3000
  e8:	080d0cec 	stmdaeq	sp, {r2, r3, r5, r6, r7, sl, fp}
  ec:	00000020 	andeq	r0, r0, r0, lsr #32
  f0:	000000bc 	strheq	r0, [r0], -ip
  f4:	c01009c4 	andsgt	r0, r0, r4, asr #19
  f8:	0000056c 	andeq	r0, r0, ip, ror #10
  fc:	8b080e42 	blhi	203a0c <_start-0xbfefc5f4>
 100:	42018e02 	andmi	r8, r1, #2, 28
 104:	03040b0c 	movweq	r0, #19212	; 0x4b0c
 108:	0d0c02b0 	sfmeq	f0, 4, [ip, #-704]	; 0xfffffd40
 10c:	00000008 	andeq	r0, r0, r8
 110:	0000000c 	andeq	r0, r0, ip
 114:	ffffffff 			; <UNDEFINED> instruction: 0xffffffff
 118:	7c020001 	stcvc	0, cr0, [r2], {1}
 11c:	000d0c0e 	andeq	r0, sp, lr, lsl #24
 120:	00000018 	andeq	r0, r0, r8, lsl r0
 124:	00000110 	andeq	r0, r0, r0, lsl r1
 128:	c0100f30 	andsgt	r0, r0, r0, lsr pc
 12c:	00000034 	andeq	r0, r0, r4, lsr r0
 130:	8b080e42 	blhi	203a40 <_start-0xbfefc5c0>
 134:	42018e02 	andmi	r8, r1, #2, 28
 138:	00040b0c 	andeq	r0, r4, ip, lsl #22
 13c:	0000001c 	andeq	r0, r0, ip, lsl r0
 140:	00000110 	andeq	r0, r0, r0, lsl r1
 144:	c0100f64 	andsgt	r0, r0, r4, ror #30
 148:	000000a4 	andeq	r0, r0, r4, lsr #1
 14c:	8b040e42 	blhi	103a5c <_start-0xbfffc5a4>
 150:	0b0d4201 	bleq	35095c <_start-0xbfdaf6a4>
 154:	0d0d4a02 	vstreq	s8, [sp, #-8]
 158:	000ecb42 	andeq	ip, lr, r2, asr #22
 15c:	0000001c 	andeq	r0, r0, ip, lsl r0
 160:	00000110 	andeq	r0, r0, r0, lsl r1
 164:	c0101008 	andsgt	r1, r0, r8
 168:	00000100 	andeq	r0, r0, r0, lsl #2
 16c:	8b080e42 	blhi	203a7c <_start-0xbfefc584>
 170:	42018e02 	andmi	r8, r1, #2, 28
 174:	02040b0c 	andeq	r0, r4, #12, 22	; 0x3000
 178:	080d0c7a 	stmdaeq	sp, {r1, r3, r4, r5, r6, sl, fp}
 17c:	0000000c 	andeq	r0, r0, ip
 180:	ffffffff 			; <UNDEFINED> instruction: 0xffffffff
 184:	7c020001 	stcvc	0, cr0, [r2], {1}
 188:	000d0c0e 	andeq	r0, sp, lr, lsl #24
 18c:	00000020 	andeq	r0, r0, r0, lsr #32
 190:	0000017c 	andeq	r0, r0, ip, ror r1
 194:	c0101108 	andsgt	r1, r0, r8, lsl #2
 198:	00000070 	andeq	r0, r0, r0, ror r0
 19c:	84080e42 	strhi	r0, [r8], #-3650	; 0xfffff1be
 1a0:	42018b02 	andmi	r8, r1, #2048	; 0x800
 1a4:	70040b0c 	andvc	r0, r4, ip, lsl #22
 1a8:	42080d0c 	andmi	r0, r8, #12, 26	; 0x300
 1ac:	000ec4cb 	andeq	ip, lr, fp, asr #9
 1b0:	0000001c 	andeq	r0, r0, ip, lsl r0
 1b4:	0000017c 	andeq	r0, r0, ip, ror r1
 1b8:	c0101178 	andsgt	r1, r0, r8, ror r1
 1bc:	0000007c 	andeq	r0, r0, ip, ror r0
 1c0:	8b040e42 	blhi	103ad0 <_start-0xbfffc530>
 1c4:	0b0d4201 	bleq	3509d0 <_start-0xbfdaf630>
 1c8:	420d0d76 	andmi	r0, sp, #7552	; 0x1d80
 1cc:	00000ecb 	andeq	r0, r0, fp, asr #29
 1d0:	0000001c 	andeq	r0, r0, ip, lsl r0
 1d4:	0000017c 	andeq	r0, r0, ip, ror r1
 1d8:	c01011f4 			; <UNDEFINED> instruction: 0xc01011f4
 1dc:	000000ac 	andeq	r0, r0, ip, lsr #1
 1e0:	8b080e42 	blhi	203af0 <_start-0xbfefc510>
 1e4:	42018e02 	andmi	r8, r1, #2, 28
 1e8:	02040b0c 	andeq	r0, r4, #12, 22	; 0x3000
 1ec:	080d0c50 	stmdaeq	sp, {r4, r6, sl, fp}
 1f0:	0000001c 	andeq	r0, r0, ip, lsl r0
 1f4:	0000017c 	andeq	r0, r0, ip, ror r1
 1f8:	c01012a0 	andsgt	r1, r0, r0, lsr #5
 1fc:	00000054 	andeq	r0, r0, r4, asr r0
 200:	8b080e42 	blhi	203b10 <_start-0xbfefc4f0>
 204:	42018e02 	andmi	r8, r1, #2, 28
 208:	64040b0c 	strvs	r0, [r4], #-2828	; 0xfffff4f4
 20c:	00080d0c 	andeq	r0, r8, ip, lsl #26
 210:	00000018 	andeq	r0, r0, r8, lsl r0
 214:	0000017c 	andeq	r0, r0, ip, ror r1
 218:	c01012f4 			; <UNDEFINED> instruction: 0xc01012f4
 21c:	00000038 	andeq	r0, r0, r8, lsr r0
 220:	8b080e42 	blhi	203b30 <_start-0xbfefc4d0>
 224:	42018e02 	andmi	r8, r1, #2, 28
 228:	00040b0c 	andeq	r0, r4, ip, lsl #22
 22c:	00000018 	andeq	r0, r0, r8, lsl r0
 230:	0000017c 	andeq	r0, r0, ip, ror r1
 234:	c010132c 	andsgt	r1, r0, ip, lsr #6
 238:	00000038 	andeq	r0, r0, r8, lsr r0
 23c:	8b080e42 	blhi	203b4c <_start-0xbfefc4b4>
 240:	42018e02 	andmi	r8, r1, #2, 28
 244:	00040b0c 	andeq	r0, r4, ip, lsl #22
 248:	00000018 	andeq	r0, r0, r8, lsl r0
 24c:	0000017c 	andeq	r0, r0, ip, ror r1
 250:	c0101364 	andsgt	r1, r0, r4, ror #6
 254:	00000014 	andeq	r0, r0, r4, lsl r0
 258:	8b080e42 	blhi	203b68 <_start-0xbfefc498>
 25c:	42018e02 	andmi	r8, r1, #2, 28
 260:	00040b0c 	andeq	r0, r4, ip, lsl #22
 264:	0000000c 	andeq	r0, r0, ip
 268:	ffffffff 			; <UNDEFINED> instruction: 0xffffffff
 26c:	7c020001 	stcvc	0, cr0, [r2], {1}
 270:	000d0c0e 	andeq	r0, sp, lr, lsl #24
 274:	0000001c 	andeq	r0, r0, ip, lsl r0
 278:	00000264 	andeq	r0, r0, r4, ror #4
 27c:	c0101378 	andsgt	r1, r0, r8, ror r3
 280:	00000038 	andeq	r0, r0, r8, lsr r0
 284:	8b040e42 	blhi	103b94 <_start-0xbfffc46c>
 288:	0b0d4201 	bleq	350a94 <_start-0xbfdaf56c>
 28c:	420d0d54 	andmi	r0, sp, #84, 26	; 0x1500
 290:	00000ecb 	andeq	r0, r0, fp, asr #29
 294:	0000001c 	andeq	r0, r0, ip, lsl r0
 298:	00000264 	andeq	r0, r0, r4, ror #4
 29c:	c01013b0 			; <UNDEFINED> instruction: 0xc01013b0
 2a0:	0000007c 	andeq	r0, r0, ip, ror r0
 2a4:	8b040e42 	blhi	103bb4 <_start-0xbfffc44c>
 2a8:	0b0d4201 	bleq	350ab4 <_start-0xbfdaf54c>
 2ac:	420d0d76 	andmi	r0, sp, #7552	; 0x1d80
 2b0:	00000ecb 	andeq	r0, r0, fp, asr #29
 2b4:	0000001c 	andeq	r0, r0, ip, lsl r0
 2b8:	00000264 	andeq	r0, r0, r4, ror #4
 2bc:	c010142c 	andsgt	r1, r0, ip, lsr #8
 2c0:	000000ac 	andeq	r0, r0, ip, lsr #1
 2c4:	8b080e42 	blhi	203bd4 <_start-0xbfefc42c>
 2c8:	42018e02 	andmi	r8, r1, #2, 28
 2cc:	02040b0c 	andeq	r0, r4, #12, 22	; 0x3000
 2d0:	080d0c50 	stmdaeq	sp, {r4, r6, sl, fp}
 2d4:	0000001c 	andeq	r0, r0, ip, lsl r0
 2d8:	00000264 	andeq	r0, r0, r4, ror #4
 2dc:	c01014d8 			; <UNDEFINED> instruction: 0xc01014d8
 2e0:	0000008c 	andeq	r0, r0, ip, lsl #1
 2e4:	8b040e42 	blhi	103bf4 <_start-0xbfffc40c>
 2e8:	0b0d4201 	bleq	350af4 <_start-0xbfdaf50c>
 2ec:	420d0d7e 	andmi	r0, sp, #8064	; 0x1f80
 2f0:	00000ecb 	andeq	r0, r0, fp, asr #29
 2f4:	00000018 	andeq	r0, r0, r8, lsl r0
 2f8:	00000264 	andeq	r0, r0, r4, ror #4
 2fc:	c0101564 	andsgt	r1, r0, r4, ror #10
 300:	00000014 	andeq	r0, r0, r4, lsl r0
 304:	8b080e42 	blhi	203c14 <_start-0xbfefc3ec>
 308:	42018e02 	andmi	r8, r1, #2, 28
 30c:	00040b0c 	andeq	r0, r4, ip, lsl #22
 310:	00000018 	andeq	r0, r0, r8, lsl r0
 314:	00000264 	andeq	r0, r0, r4, ror #4
 318:	c0101578 	andsgt	r1, r0, r8, ror r5
 31c:	00000014 	andeq	r0, r0, r4, lsl r0
 320:	8b080e42 	blhi	203c30 <_start-0xbfefc3d0>
 324:	42018e02 	andmi	r8, r1, #2, 28
 328:	00040b0c 	andeq	r0, r4, ip, lsl #22
 32c:	00000018 	andeq	r0, r0, r8, lsl r0
 330:	00000264 	andeq	r0, r0, r4, ror #4
 334:	c010158c 	andsgt	r1, r0, ip, lsl #11
 338:	00000044 	andeq	r0, r0, r4, asr #32
 33c:	8b080e42 	blhi	203c4c <_start-0xbfefc3b4>
 340:	42018e02 	andmi	r8, r1, #2, 28
 344:	00040b0c 	andeq	r0, r4, ip, lsl #22
 348:	0000000c 	andeq	r0, r0, ip
 34c:	ffffffff 			; <UNDEFINED> instruction: 0xffffffff
 350:	7c020001 	stcvc	0, cr0, [r2], {1}
 354:	000d0c0e 	andeq	r0, sp, lr, lsl #24
 358:	00000018 	andeq	r0, r0, r8, lsl r0
 35c:	00000348 	andeq	r0, r0, r8, asr #6
 360:	c01015d0 			; <UNDEFINED> instruction: 0xc01015d0
 364:	0000001c 	andeq	r0, r0, ip, lsl r0
 368:	8b080e42 	blhi	203c78 <_start-0xbfefc388>
 36c:	42018e02 	andmi	r8, r1, #2, 28
 370:	00040b0c 	andeq	r0, r4, ip, lsl #22
 374:	0000000c 	andeq	r0, r0, ip
 378:	ffffffff 			; <UNDEFINED> instruction: 0xffffffff
 37c:	7c020001 	stcvc	0, cr0, [r2], {1}
 380:	000d0c0e 	andeq	r0, sp, lr, lsl #24
 384:	00000020 	andeq	r0, r0, r0, lsr #32
 388:	00000374 	andeq	r0, r0, r4, ror r3
 38c:	c01015ec 	andsgt	r1, r0, ip, ror #11
 390:	00000240 	andeq	r0, r0, r0, asr #4
 394:	8b040e42 	blhi	103ca4 <_start-0xbfffc35c>
 398:	0b0d4201 	bleq	350ba4 <_start-0xbfdaf45c>
 39c:	0d011803 	stceq	8, cr1, [r1, #-12]
 3a0:	0ecb420d 	cdpeq	2, 12, cr4, cr11, cr13, {0}
 3a4:	00000000 	andeq	r0, r0, r0
 3a8:	00000020 	andeq	r0, r0, r0, lsr #32
 3ac:	00000374 	andeq	r0, r0, r4, ror r3
 3b0:	c010182c 	andsgt	r1, r0, ip, lsr #16
 3b4:	0000038c 	andeq	r0, r0, ip, lsl #7
 3b8:	8b040e42 	blhi	103cc8 <_start-0xbfffc338>
 3bc:	0b0d4201 	bleq	350bc8 <_start-0xbfdaf438>
 3c0:	0d01be03 	stceq	14, cr11, [r1, #-12]
 3c4:	0ecb420d 	cdpeq	2, 12, cr4, cr11, cr13, {0}
 3c8:	00000000 	andeq	r0, r0, r0
 3cc:	00000020 	andeq	r0, r0, r0, lsr #32
 3d0:	00000374 	andeq	r0, r0, r4, ror r3
 3d4:	c0101bb8 			; <UNDEFINED> instruction: 0xc0101bb8
 3d8:	000004c4 	andeq	r0, r0, r4, asr #9
 3dc:	8b080e42 	blhi	203cec <_start-0xbfefc314>
 3e0:	42018e02 	andmi	r8, r1, #2, 28
 3e4:	03040b0c 	movweq	r0, #19212	; 0x4b0c
 3e8:	0d0c025c 	sfmeq	f0, 4, [ip, #-368]	; 0xfffffe90
 3ec:	00000008 	andeq	r0, r0, r8
 3f0:	0000001c 	andeq	r0, r0, ip, lsl r0
 3f4:	00000374 	andeq	r0, r0, r4, ror r3
 3f8:	c010207c 	andsgt	r2, r0, ip, ror r0
 3fc:	00000074 	andeq	r0, r0, r4, ror r0
 400:	8b040e42 	blhi	103d10 <_start-0xbfffc2f0>
 404:	0b0d4201 	bleq	350c10 <_start-0xbfdaf3f0>
 408:	420d0d72 	andmi	r0, sp, #7296	; 0x1c80
 40c:	00000ecb 	andeq	r0, r0, fp, asr #29
 410:	0000001c 	andeq	r0, r0, ip, lsl r0
 414:	00000374 	andeq	r0, r0, r4, ror r3
 418:	c01020f0 	ldrshgt	r2, [r0], -r0
 41c:	00000058 	andeq	r0, r0, r8, asr r0
 420:	8b040e42 	blhi	103d30 <_start-0xbfffc2d0>
 424:	0b0d4201 	bleq	350c30 <_start-0xbfdaf3d0>
 428:	420d0d64 	andmi	r0, sp, #100, 26	; 0x1900
 42c:	00000ecb 	andeq	r0, r0, fp, asr #29
 430:	00000018 	andeq	r0, r0, r8, lsl r0
 434:	00000374 	andeq	r0, r0, r4, ror r3
 438:	c0102148 	andsgt	r2, r0, r8, asr #2
 43c:	0000001c 	andeq	r0, r0, ip, lsl r0
 440:	8b080e42 	blhi	203d50 <_start-0xbfefc2b0>
 444:	42018e02 	andmi	r8, r1, #2, 28
 448:	00040b0c 	andeq	r0, r4, ip, lsl #22
