
dot_line_circle.elf:     file format elf32-littlearm


Disassembly of section .text:

c0100000 <_start>:
c0100000:	e59fd028 	ldr	sp, [pc, #40]	; c0100030 <clean+0x14>
c0100004:	eb000001 	bl	c0100010 <clean_bss>
c0100008:	eb00015f 	bl	c010058c <main>

c010000c <halt>:
c010000c:	eafffffe 	b	c010000c <halt>

c0100010 <clean_bss>:
c0100010:	e59f101c 	ldr	r1, [pc, #28]	; c0100034 <clean+0x18>
c0100014:	e59f201c 	ldr	r2, [pc, #28]	; c0100038 <clean+0x1c>
c0100018:	e3a03000 	mov	r3, #0

c010001c <clean>:
c010001c:	e5813000 	str	r3, [r1]
c0100020:	e2811004 	add	r1, r1, #4
c0100024:	e1510002 	cmp	r1, r2
c0100028:	1afffffb 	bne	c010001c <clean>
c010002c:	e1a0f00e 	mov	pc, lr
c0100030:	c0200000 	eorgt	r0, r0, r0
c0100034:	c0101fa4 	andsgt	r1, r0, r4, lsr #31
c0100038:	c0102064 	andsgt	r2, r0, r4, rrx

c010003c <lcd_test>:
c010003c:	e92d4800 	push	{fp, lr}
c0100040:	e28db004 	add	fp, sp, #4
c0100044:	e24dd028 	sub	sp, sp, #40	; 0x28
c0100048:	eb0004b7 	bl	c010132c <lcd_enable>
c010004c:	e24b3024 	sub	r3, fp, #36	; 0x24
c0100050:	e24b2020 	sub	r2, fp, #32
c0100054:	e24b101c 	sub	r1, fp, #28
c0100058:	e24b0018 	sub	r0, fp, #24
c010005c:	eb00048f 	bl	c01012a0 <get_lcd_params>
c0100060:	e51b3024 	ldr	r3, [fp, #-36]	; 0xffffffdc
c0100064:	e3530010 	cmp	r3, #16
c0100068:	1a00006c 	bne	c0100220 <lcd_test+0x1e4>
c010006c:	e51b3018 	ldr	r3, [fp, #-24]	; 0xffffffe8
c0100070:	e50b3010 	str	r3, [fp, #-16]
c0100074:	e3a03000 	mov	r3, #0
c0100078:	e50b3008 	str	r3, [fp, #-8]
c010007c:	ea000011 	b	c01000c8 <lcd_test+0x8c>
c0100080:	e3a03000 	mov	r3, #0
c0100084:	e50b300c 	str	r3, [fp, #-12]
c0100088:	ea000007 	b	c01000ac <lcd_test+0x70>
c010008c:	e51b3010 	ldr	r3, [fp, #-16]
c0100090:	e2832002 	add	r2, r3, #2
c0100094:	e50b2010 	str	r2, [fp, #-16]
c0100098:	e3a02b3e 	mov	r2, #63488	; 0xf800
c010009c:	e1c320b0 	strh	r2, [r3]
c01000a0:	e51b300c 	ldr	r3, [fp, #-12]
c01000a4:	e2833001 	add	r3, r3, #1
c01000a8:	e50b300c 	str	r3, [fp, #-12]
c01000ac:	e51b3020 	ldr	r3, [fp, #-32]	; 0xffffffe0
c01000b0:	e51b200c 	ldr	r2, [fp, #-12]
c01000b4:	e1520003 	cmp	r2, r3
c01000b8:	bafffff3 	blt	c010008c <lcd_test+0x50>
c01000bc:	e51b3008 	ldr	r3, [fp, #-8]
c01000c0:	e2833001 	add	r3, r3, #1
c01000c4:	e50b3008 	str	r3, [fp, #-8]
c01000c8:	e51b301c 	ldr	r3, [fp, #-28]	; 0xffffffe4
c01000cc:	e51b2008 	ldr	r2, [fp, #-8]
c01000d0:	e1520003 	cmp	r2, r3
c01000d4:	baffffe9 	blt	c0100080 <lcd_test+0x44>
c01000d8:	e51b3018 	ldr	r3, [fp, #-24]	; 0xffffffe8
c01000dc:	e50b3010 	str	r3, [fp, #-16]
c01000e0:	e3a03000 	mov	r3, #0
c01000e4:	e50b3008 	str	r3, [fp, #-8]
c01000e8:	ea000011 	b	c0100134 <lcd_test+0xf8>
c01000ec:	e3a03000 	mov	r3, #0
c01000f0:	e50b300c 	str	r3, [fp, #-12]
c01000f4:	ea000007 	b	c0100118 <lcd_test+0xdc>
c01000f8:	e51b3010 	ldr	r3, [fp, #-16]
c01000fc:	e2832002 	add	r2, r3, #2
c0100100:	e50b2010 	str	r2, [fp, #-16]
c0100104:	e3a02e7e 	mov	r2, #2016	; 0x7e0
c0100108:	e1c320b0 	strh	r2, [r3]
c010010c:	e51b300c 	ldr	r3, [fp, #-12]
c0100110:	e2833001 	add	r3, r3, #1
c0100114:	e50b300c 	str	r3, [fp, #-12]
c0100118:	e51b3020 	ldr	r3, [fp, #-32]	; 0xffffffe0
c010011c:	e51b200c 	ldr	r2, [fp, #-12]
c0100120:	e1520003 	cmp	r2, r3
c0100124:	bafffff3 	blt	c01000f8 <lcd_test+0xbc>
c0100128:	e51b3008 	ldr	r3, [fp, #-8]
c010012c:	e2833001 	add	r3, r3, #1
c0100130:	e50b3008 	str	r3, [fp, #-8]
c0100134:	e51b301c 	ldr	r3, [fp, #-28]	; 0xffffffe4
c0100138:	e51b2008 	ldr	r2, [fp, #-8]
c010013c:	e1520003 	cmp	r2, r3
c0100140:	baffffe9 	blt	c01000ec <lcd_test+0xb0>
c0100144:	e51b3018 	ldr	r3, [fp, #-24]	; 0xffffffe8
c0100148:	e50b3010 	str	r3, [fp, #-16]
c010014c:	e3a03000 	mov	r3, #0
c0100150:	e50b3008 	str	r3, [fp, #-8]
c0100154:	ea000011 	b	c01001a0 <lcd_test+0x164>
c0100158:	e3a03000 	mov	r3, #0
c010015c:	e50b300c 	str	r3, [fp, #-12]
c0100160:	ea000007 	b	c0100184 <lcd_test+0x148>
c0100164:	e51b3010 	ldr	r3, [fp, #-16]
c0100168:	e2832002 	add	r2, r3, #2
c010016c:	e50b2010 	str	r2, [fp, #-16]
c0100170:	e3a0201f 	mov	r2, #31
c0100174:	e1c320b0 	strh	r2, [r3]
c0100178:	e51b300c 	ldr	r3, [fp, #-12]
c010017c:	e2833001 	add	r3, r3, #1
c0100180:	e50b300c 	str	r3, [fp, #-12]
c0100184:	e51b3020 	ldr	r3, [fp, #-32]	; 0xffffffe0
c0100188:	e51b200c 	ldr	r2, [fp, #-12]
c010018c:	e1520003 	cmp	r2, r3
c0100190:	bafffff3 	blt	c0100164 <lcd_test+0x128>
c0100194:	e51b3008 	ldr	r3, [fp, #-8]
c0100198:	e2833001 	add	r3, r3, #1
c010019c:	e50b3008 	str	r3, [fp, #-8]
c01001a0:	e51b301c 	ldr	r3, [fp, #-28]	; 0xffffffe4
c01001a4:	e51b2008 	ldr	r2, [fp, #-8]
c01001a8:	e1520003 	cmp	r2, r3
c01001ac:	baffffe9 	blt	c0100158 <lcd_test+0x11c>
c01001b0:	e51b3018 	ldr	r3, [fp, #-24]	; 0xffffffe8
c01001b4:	e50b3010 	str	r3, [fp, #-16]
c01001b8:	e3a03000 	mov	r3, #0
c01001bc:	e50b3008 	str	r3, [fp, #-8]
c01001c0:	ea000011 	b	c010020c <lcd_test+0x1d0>
c01001c4:	e3a03000 	mov	r3, #0
c01001c8:	e50b300c 	str	r3, [fp, #-12]
c01001cc:	ea000007 	b	c01001f0 <lcd_test+0x1b4>
c01001d0:	e51b3010 	ldr	r3, [fp, #-16]
c01001d4:	e2832002 	add	r2, r3, #2
c01001d8:	e50b2010 	str	r2, [fp, #-16]
c01001dc:	e3a02000 	mov	r2, #0
c01001e0:	e1c320b0 	strh	r2, [r3]
c01001e4:	e51b300c 	ldr	r3, [fp, #-12]
c01001e8:	e2833001 	add	r3, r3, #1
c01001ec:	e50b300c 	str	r3, [fp, #-12]
c01001f0:	e51b3020 	ldr	r3, [fp, #-32]	; 0xffffffe0
c01001f4:	e51b200c 	ldr	r2, [fp, #-12]
c01001f8:	e1520003 	cmp	r2, r3
c01001fc:	bafffff3 	blt	c01001d0 <lcd_test+0x194>
c0100200:	e51b3008 	ldr	r3, [fp, #-8]
c0100204:	e2833001 	add	r3, r3, #1
c0100208:	e50b3008 	str	r3, [fp, #-8]
c010020c:	e51b301c 	ldr	r3, [fp, #-28]	; 0xffffffe4
c0100210:	e51b2008 	ldr	r2, [fp, #-8]
c0100214:	e1520003 	cmp	r2, r3
c0100218:	baffffe9 	blt	c01001c4 <lcd_test+0x188>
c010021c:	ea00006e 	b	c01003dc <lcd_test+0x3a0>
c0100220:	e51b3024 	ldr	r3, [fp, #-36]	; 0xffffffdc
c0100224:	e3530020 	cmp	r3, #32
c0100228:	1a00006b 	bne	c01003dc <lcd_test+0x3a0>
c010022c:	e51b3018 	ldr	r3, [fp, #-24]	; 0xffffffe8
c0100230:	e50b3014 	str	r3, [fp, #-20]	; 0xffffffec
c0100234:	e3a03000 	mov	r3, #0
c0100238:	e50b3008 	str	r3, [fp, #-8]
c010023c:	ea000011 	b	c0100288 <lcd_test+0x24c>
c0100240:	e3a03000 	mov	r3, #0
c0100244:	e50b300c 	str	r3, [fp, #-12]
c0100248:	ea000007 	b	c010026c <lcd_test+0x230>
c010024c:	e51b3014 	ldr	r3, [fp, #-20]	; 0xffffffec
c0100250:	e2832004 	add	r2, r3, #4
c0100254:	e50b2014 	str	r2, [fp, #-20]	; 0xffffffec
c0100258:	e3a028ff 	mov	r2, #16711680	; 0xff0000
c010025c:	e5832000 	str	r2, [r3]
c0100260:	e51b300c 	ldr	r3, [fp, #-12]
c0100264:	e2833001 	add	r3, r3, #1
c0100268:	e50b300c 	str	r3, [fp, #-12]
c010026c:	e51b3020 	ldr	r3, [fp, #-32]	; 0xffffffe0
c0100270:	e51b200c 	ldr	r2, [fp, #-12]
c0100274:	e1520003 	cmp	r2, r3
c0100278:	bafffff3 	blt	c010024c <lcd_test+0x210>
c010027c:	e51b3008 	ldr	r3, [fp, #-8]
c0100280:	e2833001 	add	r3, r3, #1
c0100284:	e50b3008 	str	r3, [fp, #-8]
c0100288:	e51b301c 	ldr	r3, [fp, #-28]	; 0xffffffe4
c010028c:	e51b2008 	ldr	r2, [fp, #-8]
c0100290:	e1520003 	cmp	r2, r3
c0100294:	baffffe9 	blt	c0100240 <lcd_test+0x204>
c0100298:	e51b3018 	ldr	r3, [fp, #-24]	; 0xffffffe8
c010029c:	e50b3014 	str	r3, [fp, #-20]	; 0xffffffec
c01002a0:	e3a03000 	mov	r3, #0
c01002a4:	e50b3008 	str	r3, [fp, #-8]
c01002a8:	ea000011 	b	c01002f4 <lcd_test+0x2b8>
c01002ac:	e3a03000 	mov	r3, #0
c01002b0:	e50b300c 	str	r3, [fp, #-12]
c01002b4:	ea000007 	b	c01002d8 <lcd_test+0x29c>
c01002b8:	e51b3014 	ldr	r3, [fp, #-20]	; 0xffffffec
c01002bc:	e2832004 	add	r2, r3, #4
c01002c0:	e50b2014 	str	r2, [fp, #-20]	; 0xffffffec
c01002c4:	e3a02cff 	mov	r2, #65280	; 0xff00
c01002c8:	e5832000 	str	r2, [r3]
c01002cc:	e51b300c 	ldr	r3, [fp, #-12]
c01002d0:	e2833001 	add	r3, r3, #1
c01002d4:	e50b300c 	str	r3, [fp, #-12]
c01002d8:	e51b3020 	ldr	r3, [fp, #-32]	; 0xffffffe0
c01002dc:	e51b200c 	ldr	r2, [fp, #-12]
c01002e0:	e1520003 	cmp	r2, r3
c01002e4:	bafffff3 	blt	c01002b8 <lcd_test+0x27c>
c01002e8:	e51b3008 	ldr	r3, [fp, #-8]
c01002ec:	e2833001 	add	r3, r3, #1
c01002f0:	e50b3008 	str	r3, [fp, #-8]
c01002f4:	e51b301c 	ldr	r3, [fp, #-28]	; 0xffffffe4
c01002f8:	e51b2008 	ldr	r2, [fp, #-8]
c01002fc:	e1520003 	cmp	r2, r3
c0100300:	baffffe9 	blt	c01002ac <lcd_test+0x270>
c0100304:	e51b3018 	ldr	r3, [fp, #-24]	; 0xffffffe8
c0100308:	e50b3014 	str	r3, [fp, #-20]	; 0xffffffec
c010030c:	e3a03000 	mov	r3, #0
c0100310:	e50b3008 	str	r3, [fp, #-8]
c0100314:	ea000011 	b	c0100360 <lcd_test+0x324>
c0100318:	e3a03000 	mov	r3, #0
c010031c:	e50b300c 	str	r3, [fp, #-12]
c0100320:	ea000007 	b	c0100344 <lcd_test+0x308>
c0100324:	e51b3014 	ldr	r3, [fp, #-20]	; 0xffffffec
c0100328:	e2832004 	add	r2, r3, #4
c010032c:	e50b2014 	str	r2, [fp, #-20]	; 0xffffffec
c0100330:	e3a020ff 	mov	r2, #255	; 0xff
c0100334:	e5832000 	str	r2, [r3]
c0100338:	e51b300c 	ldr	r3, [fp, #-12]
c010033c:	e2833001 	add	r3, r3, #1
c0100340:	e50b300c 	str	r3, [fp, #-12]
c0100344:	e51b3020 	ldr	r3, [fp, #-32]	; 0xffffffe0
c0100348:	e51b200c 	ldr	r2, [fp, #-12]
c010034c:	e1520003 	cmp	r2, r3
c0100350:	bafffff3 	blt	c0100324 <lcd_test+0x2e8>
c0100354:	e51b3008 	ldr	r3, [fp, #-8]
c0100358:	e2833001 	add	r3, r3, #1
c010035c:	e50b3008 	str	r3, [fp, #-8]
c0100360:	e51b301c 	ldr	r3, [fp, #-28]	; 0xffffffe4
c0100364:	e51b2008 	ldr	r2, [fp, #-8]
c0100368:	e1520003 	cmp	r2, r3
c010036c:	baffffe9 	blt	c0100318 <lcd_test+0x2dc>
c0100370:	e51b3018 	ldr	r3, [fp, #-24]	; 0xffffffe8
c0100374:	e50b3014 	str	r3, [fp, #-20]	; 0xffffffec
c0100378:	e3a03000 	mov	r3, #0
c010037c:	e50b3008 	str	r3, [fp, #-8]
c0100380:	ea000011 	b	c01003cc <lcd_test+0x390>
c0100384:	e3a03000 	mov	r3, #0
c0100388:	e50b300c 	str	r3, [fp, #-12]
c010038c:	ea000007 	b	c01003b0 <lcd_test+0x374>
c0100390:	e51b3014 	ldr	r3, [fp, #-20]	; 0xffffffec
c0100394:	e2832004 	add	r2, r3, #4
c0100398:	e50b2014 	str	r2, [fp, #-20]	; 0xffffffec
c010039c:	e3a02000 	mov	r2, #0
c01003a0:	e5832000 	str	r2, [r3]
c01003a4:	e51b300c 	ldr	r3, [fp, #-12]
c01003a8:	e2833001 	add	r3, r3, #1
c01003ac:	e50b300c 	str	r3, [fp, #-12]
c01003b0:	e51b3020 	ldr	r3, [fp, #-32]	; 0xffffffe0
c01003b4:	e51b200c 	ldr	r2, [fp, #-12]
c01003b8:	e1520003 	cmp	r2, r3
c01003bc:	bafffff3 	blt	c0100390 <lcd_test+0x354>
c01003c0:	e51b3008 	ldr	r3, [fp, #-8]
c01003c4:	e2833001 	add	r3, r3, #1
c01003c8:	e50b3008 	str	r3, [fp, #-8]
c01003cc:	e51b301c 	ldr	r3, [fp, #-28]	; 0xffffffe4
c01003d0:	e51b2008 	ldr	r2, [fp, #-8]
c01003d4:	e1520003 	cmp	r2, r3
c01003d8:	baffffe9 	blt	c0100384 <lcd_test+0x348>
c01003dc:	eb000245 	bl	c0100cf8 <fb_get_lcd_params>
c01003e0:	e30806a0 	movw	r0, #34464	; 0x86a0
c01003e4:	e3400001 	movt	r0, #1
c01003e8:	eb000354 	bl	c0101140 <delay>
c01003ec:	e51b301c 	ldr	r3, [fp, #-28]	; 0xffffffe4
c01003f0:	e2432001 	sub	r2, r3, #1
c01003f4:	e3a038ff 	mov	r3, #16711680	; 0xff0000
c01003f8:	e58d3000 	str	r3, [sp]
c01003fc:	e3a03000 	mov	r3, #0
c0100400:	e3a01000 	mov	r1, #0
c0100404:	e3a00000 	mov	r0, #0
c0100408:	eb0000df 	bl	c010078c <draw_line>
c010040c:	e30806a0 	movw	r0, #34464	; 0x86a0
c0100410:	e3400001 	movt	r0, #1
c0100414:	eb000349 	bl	c0101140 <delay>
c0100418:	e51b301c 	ldr	r3, [fp, #-28]	; 0xffffffe4
c010041c:	e2430001 	sub	r0, r3, #1
c0100420:	e51b301c 	ldr	r3, [fp, #-28]	; 0xffffffe4
c0100424:	e2432001 	sub	r2, r3, #1
c0100428:	e51b3020 	ldr	r3, [fp, #-32]	; 0xffffffe0
c010042c:	e2431001 	sub	r1, r3, #1
c0100430:	e3a03cff 	mov	r3, #65280	; 0xff00
c0100434:	e34030ff 	movt	r3, #255	; 0xff
c0100438:	e58d3000 	str	r3, [sp]
c010043c:	e1a03001 	mov	r3, r1
c0100440:	e3a01000 	mov	r1, #0
c0100444:	eb0000d0 	bl	c010078c <draw_line>
c0100448:	e30806a0 	movw	r0, #34464	; 0x86a0
c010044c:	e3400001 	movt	r0, #1
c0100450:	eb00033a 	bl	c0101140 <delay>
c0100454:	e51b3020 	ldr	r3, [fp, #-32]	; 0xffffffe0
c0100458:	e2431001 	sub	r1, r3, #1
c010045c:	e51b301c 	ldr	r3, [fp, #-28]	; 0xffffffe4
c0100460:	e2432001 	sub	r2, r3, #1
c0100464:	e51b3020 	ldr	r3, [fp, #-32]	; 0xffffffe0
c0100468:	e2430001 	sub	r0, r3, #1
c010046c:	e3a030aa 	mov	r3, #170	; 0xaa
c0100470:	e34030ff 	movt	r3, #255	; 0xff
c0100474:	e58d3000 	str	r3, [sp]
c0100478:	e1a03000 	mov	r3, r0
c010047c:	e3a00000 	mov	r0, #0
c0100480:	eb0000c1 	bl	c010078c <draw_line>
c0100484:	e30806a0 	movw	r0, #34464	; 0x86a0
c0100488:	e3400001 	movt	r0, #1
c010048c:	eb00032b 	bl	c0101140 <delay>
c0100490:	e51b3020 	ldr	r3, [fp, #-32]	; 0xffffffe0
c0100494:	e2432001 	sub	r2, r3, #1
c0100498:	e3a030ef 	mov	r3, #239	; 0xef
c010049c:	e34030ff 	movt	r3, #255	; 0xff
c01004a0:	e58d3000 	str	r3, [sp]
c01004a4:	e1a03002 	mov	r3, r2
c01004a8:	e3a02000 	mov	r2, #0
c01004ac:	e3a01000 	mov	r1, #0
c01004b0:	e3a00000 	mov	r0, #0
c01004b4:	eb0000b4 	bl	c010078c <draw_line>
c01004b8:	e30806a0 	movw	r0, #34464	; 0x86a0
c01004bc:	e3400001 	movt	r0, #1
c01004c0:	eb00031e 	bl	c0101140 <delay>
c01004c4:	e51b301c 	ldr	r3, [fp, #-28]	; 0xffffffe4
c01004c8:	e2432001 	sub	r2, r3, #1
c01004cc:	e51b3020 	ldr	r3, [fp, #-32]	; 0xffffffe0
c01004d0:	e2431001 	sub	r1, r3, #1
c01004d4:	e3a03c45 	mov	r3, #17664	; 0x4500
c01004d8:	e34030ff 	movt	r3, #255	; 0xff
c01004dc:	e58d3000 	str	r3, [sp]
c01004e0:	e1a03001 	mov	r3, r1
c01004e4:	e3a01000 	mov	r1, #0
c01004e8:	e3a00000 	mov	r0, #0
c01004ec:	eb0000a6 	bl	c010078c <draw_line>
c01004f0:	e30806a0 	movw	r0, #34464	; 0x86a0
c01004f4:	e3400001 	movt	r0, #1
c01004f8:	eb000310 	bl	c0101140 <delay>
c01004fc:	e51b301c 	ldr	r3, [fp, #-28]	; 0xffffffe4
c0100500:	e2430001 	sub	r0, r3, #1
c0100504:	e51b3020 	ldr	r3, [fp, #-32]	; 0xffffffe0
c0100508:	e2432001 	sub	r2, r3, #1
c010050c:	e3a03d1e 	mov	r3, #1920	; 0x780
c0100510:	e34030ff 	movt	r3, #255	; 0xff
c0100514:	e58d3000 	str	r3, [sp]
c0100518:	e1a03002 	mov	r3, r2
c010051c:	e3a02000 	mov	r2, #0
c0100520:	e3a01000 	mov	r1, #0
c0100524:	eb000098 	bl	c010078c <draw_line>
c0100528:	e30806a0 	movw	r0, #34464	; 0x86a0
c010052c:	e3400001 	movt	r0, #1
c0100530:	eb000302 	bl	c0101140 <delay>
c0100534:	e51b301c 	ldr	r3, [fp, #-28]	; 0xffffffe4
c0100538:	e1a02fa3 	lsr	r2, r3, #31
c010053c:	e0823003 	add	r3, r2, r3
c0100540:	e1a030c3 	asr	r3, r3, #1
c0100544:	e1a00003 	mov	r0, r3
c0100548:	e51b3020 	ldr	r3, [fp, #-32]	; 0xffffffe0
c010054c:	e1a02fa3 	lsr	r2, r3, #31
c0100550:	e0823003 	add	r3, r2, r3
c0100554:	e1a030c3 	asr	r3, r3, #1
c0100558:	e1a01003 	mov	r1, r3
c010055c:	e51b3020 	ldr	r3, [fp, #-32]	; 0xffffffe0
c0100560:	e2832003 	add	r2, r3, #3
c0100564:	e3530000 	cmp	r3, #0
c0100568:	b1a03002 	movlt	r3, r2
c010056c:	a1a03003 	movge	r3, r3
c0100570:	e1a03143 	asr	r3, r3, #2
c0100574:	e1a02003 	mov	r2, r3
c0100578:	e3a03cff 	mov	r3, #65280	; 0xff00
c010057c:	eb000009 	bl	c01005a8 <draw_circle>
c0100580:	e320f000 	nop	{0}
c0100584:	e24bd004 	sub	sp, fp, #4
c0100588:	e8bd8800 	pop	{fp, pc}

c010058c <main>:
c010058c:	e92d4800 	push	{fp, lr}
c0100590:	e28db004 	add	fp, sp, #4
c0100594:	eb00036e 	bl	c0101354 <lcd_init>
c0100598:	ebfffea7 	bl	c010003c <lcd_test>
c010059c:	e3a03000 	mov	r3, #0
c01005a0:	e1a00003 	mov	r0, r3
c01005a4:	e8bd8800 	pop	{fp, pc}

c01005a8 <draw_circle>:
c01005a8:	e92d4800 	push	{fp, lr}
c01005ac:	e28db004 	add	fp, sp, #4
c01005b0:	e24dd020 	sub	sp, sp, #32
c01005b4:	e50b0018 	str	r0, [fp, #-24]	; 0xffffffe8
c01005b8:	e50b101c 	str	r1, [fp, #-28]	; 0xffffffe4
c01005bc:	e50b2020 	str	r2, [fp, #-32]	; 0xffffffe0
c01005c0:	e50b3024 	str	r3, [fp, #-36]	; 0xffffffdc
c01005c4:	e3a03000 	mov	r3, #0
c01005c8:	e50b3008 	str	r3, [fp, #-8]
c01005cc:	e51b3020 	ldr	r3, [fp, #-32]	; 0xffffffe0
c01005d0:	e50b300c 	str	r3, [fp, #-12]
c01005d4:	ea00005f 	b	c0100758 <draw_circle+0x1b0>
c01005d8:	e51b2018 	ldr	r2, [fp, #-24]	; 0xffffffe8
c01005dc:	e51b3008 	ldr	r3, [fp, #-8]
c01005e0:	e0820003 	add	r0, r2, r3
c01005e4:	e51b201c 	ldr	r2, [fp, #-28]	; 0xffffffe4
c01005e8:	e51b300c 	ldr	r3, [fp, #-12]
c01005ec:	e0423003 	sub	r3, r2, r3
c01005f0:	e51b2024 	ldr	r2, [fp, #-36]	; 0xffffffdc
c01005f4:	e1a01003 	mov	r1, r3
c01005f8:	eb0001f4 	bl	c0100dd0 <fb_put_pixel>
c01005fc:	e51b2018 	ldr	r2, [fp, #-24]	; 0xffffffe8
c0100600:	e51b3008 	ldr	r3, [fp, #-8]
c0100604:	e0420003 	sub	r0, r2, r3
c0100608:	e51b201c 	ldr	r2, [fp, #-28]	; 0xffffffe4
c010060c:	e51b300c 	ldr	r3, [fp, #-12]
c0100610:	e0423003 	sub	r3, r2, r3
c0100614:	e51b2024 	ldr	r2, [fp, #-36]	; 0xffffffdc
c0100618:	e1a01003 	mov	r1, r3
c010061c:	eb0001eb 	bl	c0100dd0 <fb_put_pixel>
c0100620:	e51b2018 	ldr	r2, [fp, #-24]	; 0xffffffe8
c0100624:	e51b3008 	ldr	r3, [fp, #-8]
c0100628:	e0420003 	sub	r0, r2, r3
c010062c:	e51b201c 	ldr	r2, [fp, #-28]	; 0xffffffe4
c0100630:	e51b300c 	ldr	r3, [fp, #-12]
c0100634:	e0823003 	add	r3, r2, r3
c0100638:	e51b2024 	ldr	r2, [fp, #-36]	; 0xffffffdc
c010063c:	e1a01003 	mov	r1, r3
c0100640:	eb0001e2 	bl	c0100dd0 <fb_put_pixel>
c0100644:	e51b2018 	ldr	r2, [fp, #-24]	; 0xffffffe8
c0100648:	e51b3008 	ldr	r3, [fp, #-8]
c010064c:	e0820003 	add	r0, r2, r3
c0100650:	e51b201c 	ldr	r2, [fp, #-28]	; 0xffffffe4
c0100654:	e51b300c 	ldr	r3, [fp, #-12]
c0100658:	e0823003 	add	r3, r2, r3
c010065c:	e51b2024 	ldr	r2, [fp, #-36]	; 0xffffffdc
c0100660:	e1a01003 	mov	r1, r3
c0100664:	eb0001d9 	bl	c0100dd0 <fb_put_pixel>
c0100668:	e51b2018 	ldr	r2, [fp, #-24]	; 0xffffffe8
c010066c:	e51b300c 	ldr	r3, [fp, #-12]
c0100670:	e0820003 	add	r0, r2, r3
c0100674:	e51b201c 	ldr	r2, [fp, #-28]	; 0xffffffe4
c0100678:	e51b3008 	ldr	r3, [fp, #-8]
c010067c:	e0823003 	add	r3, r2, r3
c0100680:	e51b2024 	ldr	r2, [fp, #-36]	; 0xffffffdc
c0100684:	e1a01003 	mov	r1, r3
c0100688:	eb0001d0 	bl	c0100dd0 <fb_put_pixel>
c010068c:	e51b2018 	ldr	r2, [fp, #-24]	; 0xffffffe8
c0100690:	e51b300c 	ldr	r3, [fp, #-12]
c0100694:	e0820003 	add	r0, r2, r3
c0100698:	e51b201c 	ldr	r2, [fp, #-28]	; 0xffffffe4
c010069c:	e51b3008 	ldr	r3, [fp, #-8]
c01006a0:	e0423003 	sub	r3, r2, r3
c01006a4:	e51b2024 	ldr	r2, [fp, #-36]	; 0xffffffdc
c01006a8:	e1a01003 	mov	r1, r3
c01006ac:	eb0001c7 	bl	c0100dd0 <fb_put_pixel>
c01006b0:	e51b2018 	ldr	r2, [fp, #-24]	; 0xffffffe8
c01006b4:	e51b300c 	ldr	r3, [fp, #-12]
c01006b8:	e0420003 	sub	r0, r2, r3
c01006bc:	e51b201c 	ldr	r2, [fp, #-28]	; 0xffffffe4
c01006c0:	e51b3008 	ldr	r3, [fp, #-8]
c01006c4:	e0423003 	sub	r3, r2, r3
c01006c8:	e51b2024 	ldr	r2, [fp, #-36]	; 0xffffffdc
c01006cc:	e1a01003 	mov	r1, r3
c01006d0:	eb0001be 	bl	c0100dd0 <fb_put_pixel>
c01006d4:	e51b2018 	ldr	r2, [fp, #-24]	; 0xffffffe8
c01006d8:	e51b300c 	ldr	r3, [fp, #-12]
c01006dc:	e0420003 	sub	r0, r2, r3
c01006e0:	e51b201c 	ldr	r2, [fp, #-28]	; 0xffffffe4
c01006e4:	e51b3008 	ldr	r3, [fp, #-8]
c01006e8:	e0823003 	add	r3, r2, r3
c01006ec:	e51b2024 	ldr	r2, [fp, #-36]	; 0xffffffdc
c01006f0:	e1a01003 	mov	r1, r3
c01006f4:	eb0001b5 	bl	c0100dd0 <fb_put_pixel>
c01006f8:	e51b3008 	ldr	r3, [fp, #-8]
c01006fc:	e2833001 	add	r3, r3, #1
c0100700:	e50b3008 	str	r3, [fp, #-8]
c0100704:	e51b3008 	ldr	r3, [fp, #-8]
c0100708:	e51b2008 	ldr	r2, [fp, #-8]
c010070c:	e0020392 	mul	r2, r2, r3
c0100710:	e51b300c 	ldr	r3, [fp, #-12]
c0100714:	e51b100c 	ldr	r1, [fp, #-12]
c0100718:	e0030391 	mul	r3, r1, r3
c010071c:	e0822003 	add	r2, r2, r3
c0100720:	e51b3020 	ldr	r3, [fp, #-32]	; 0xffffffe0
c0100724:	e51b1020 	ldr	r1, [fp, #-32]	; 0xffffffe0
c0100728:	e0030391 	mul	r3, r1, r3
c010072c:	e0423003 	sub	r3, r2, r3
c0100730:	e50b3010 	str	r3, [fp, #-16]
c0100734:	e51b3010 	ldr	r3, [fp, #-16]
c0100738:	e3530000 	cmp	r3, #0
c010073c:	da000005 	ble	c0100758 <draw_circle+0x1b0>
c0100740:	e51b300c 	ldr	r3, [fp, #-12]
c0100744:	e2433001 	sub	r3, r3, #1
c0100748:	e50b300c 	str	r3, [fp, #-12]
c010074c:	e51b3008 	ldr	r3, [fp, #-8]
c0100750:	e2433001 	sub	r3, r3, #1
c0100754:	e50b3008 	str	r3, [fp, #-8]
c0100758:	e51b300c 	ldr	r3, [fp, #-12]
c010075c:	e51b200c 	ldr	r2, [fp, #-12]
c0100760:	e0030392 	mul	r3, r2, r3
c0100764:	e3a02016 	mov	r2, #22
c0100768:	e0020392 	mul	r2, r2, r3
c010076c:	e51b3020 	ldr	r3, [fp, #-32]	; 0xffffffe0
c0100770:	e51b1020 	ldr	r1, [fp, #-32]	; 0xffffffe0
c0100774:	e0030391 	mul	r3, r1, r3
c0100778:	e1520003 	cmp	r2, r3
c010077c:	aaffff95 	bge	c01005d8 <draw_circle+0x30>
c0100780:	e320f000 	nop	{0}
c0100784:	e24bd004 	sub	sp, fp, #4
c0100788:	e8bd8800 	pop	{fp, pc}

c010078c <draw_line>:
c010078c:	e92d4800 	push	{fp, lr}
c0100790:	e28db004 	add	fp, sp, #4
c0100794:	e24dd020 	sub	sp, sp, #32
c0100798:	e50b0018 	str	r0, [fp, #-24]	; 0xffffffe8
c010079c:	e50b101c 	str	r1, [fp, #-28]	; 0xffffffe4
c01007a0:	e50b2020 	str	r2, [fp, #-32]	; 0xffffffe0
c01007a4:	e50b3024 	str	r3, [fp, #-36]	; 0xffffffdc
c01007a8:	e51b2020 	ldr	r2, [fp, #-32]	; 0xffffffe0
c01007ac:	e51b3018 	ldr	r3, [fp, #-24]	; 0xffffffe8
c01007b0:	e0423003 	sub	r3, r2, r3
c01007b4:	e50b300c 	str	r3, [fp, #-12]
c01007b8:	e51b2024 	ldr	r2, [fp, #-36]	; 0xffffffdc
c01007bc:	e51b301c 	ldr	r3, [fp, #-28]	; 0xffffffe4
c01007c0:	e0423003 	sub	r3, r2, r3
c01007c4:	e50b3010 	str	r3, [fp, #-16]
c01007c8:	e51b300c 	ldr	r3, [fp, #-12]
c01007cc:	e3530000 	cmp	r3, #0
c01007d0:	ba0000a1 	blt	c0100a5c <draw_line+0x2d0>
c01007d4:	e51b3010 	ldr	r3, [fp, #-16]
c01007d8:	e3530000 	cmp	r3, #0
c01007dc:	ba00004d 	blt	c0100918 <draw_line+0x18c>
c01007e0:	e51b200c 	ldr	r2, [fp, #-12]
c01007e4:	e51b3010 	ldr	r3, [fp, #-16]
c01007e8:	e1520003 	cmp	r2, r3
c01007ec:	ba000024 	blt	c0100884 <draw_line+0xf8>
c01007f0:	e51b300c 	ldr	r3, [fp, #-12]
c01007f4:	e1a02fa3 	lsr	r2, r3, #31
c01007f8:	e0823003 	add	r3, r2, r3
c01007fc:	e1a030c3 	asr	r3, r3, #1
c0100800:	e2633000 	rsb	r3, r3, #0
c0100804:	e1a02003 	mov	r2, r3
c0100808:	e51b3010 	ldr	r3, [fp, #-16]
c010080c:	e0833002 	add	r3, r3, r2
c0100810:	e50b3008 	str	r3, [fp, #-8]
c0100814:	ea000015 	b	c0100870 <draw_line+0xe4>
c0100818:	e59b3004 	ldr	r3, [fp, #4]
c010081c:	e1a02003 	mov	r2, r3
c0100820:	e51b101c 	ldr	r1, [fp, #-28]	; 0xffffffe4
c0100824:	e51b0018 	ldr	r0, [fp, #-24]	; 0xffffffe8
c0100828:	eb000168 	bl	c0100dd0 <fb_put_pixel>
c010082c:	e51b3008 	ldr	r3, [fp, #-8]
c0100830:	e3530000 	cmp	r3, #0
c0100834:	da000006 	ble	c0100854 <draw_line+0xc8>
c0100838:	e51b301c 	ldr	r3, [fp, #-28]	; 0xffffffe4
c010083c:	e2833001 	add	r3, r3, #1
c0100840:	e50b301c 	str	r3, [fp, #-28]	; 0xffffffe4
c0100844:	e51b2008 	ldr	r2, [fp, #-8]
c0100848:	e51b300c 	ldr	r3, [fp, #-12]
c010084c:	e0423003 	sub	r3, r2, r3
c0100850:	e50b3008 	str	r3, [fp, #-8]
c0100854:	e51b3018 	ldr	r3, [fp, #-24]	; 0xffffffe8
c0100858:	e2833001 	add	r3, r3, #1
c010085c:	e50b3018 	str	r3, [fp, #-24]	; 0xffffffe8
c0100860:	e51b2008 	ldr	r2, [fp, #-8]
c0100864:	e51b3010 	ldr	r3, [fp, #-16]
c0100868:	e0823003 	add	r3, r2, r3
c010086c:	e50b3008 	str	r3, [fp, #-8]
c0100870:	e51b2018 	ldr	r2, [fp, #-24]	; 0xffffffe8
c0100874:	e51b3020 	ldr	r3, [fp, #-32]	; 0xffffffe0
c0100878:	e1520003 	cmp	r2, r3
c010087c:	daffffe5 	ble	c0100818 <draw_line+0x8c>
c0100880:	ea000119 	b	c0100cec <draw_line+0x560>
c0100884:	e51b3010 	ldr	r3, [fp, #-16]
c0100888:	e1a02fa3 	lsr	r2, r3, #31
c010088c:	e0823003 	add	r3, r2, r3
c0100890:	e1a030c3 	asr	r3, r3, #1
c0100894:	e2633000 	rsb	r3, r3, #0
c0100898:	e1a02003 	mov	r2, r3
c010089c:	e51b300c 	ldr	r3, [fp, #-12]
c01008a0:	e0833002 	add	r3, r3, r2
c01008a4:	e50b3008 	str	r3, [fp, #-8]
c01008a8:	ea000015 	b	c0100904 <draw_line+0x178>
c01008ac:	e59b3004 	ldr	r3, [fp, #4]
c01008b0:	e1a02003 	mov	r2, r3
c01008b4:	e51b101c 	ldr	r1, [fp, #-28]	; 0xffffffe4
c01008b8:	e51b0018 	ldr	r0, [fp, #-24]	; 0xffffffe8
c01008bc:	eb000143 	bl	c0100dd0 <fb_put_pixel>
c01008c0:	e51b3008 	ldr	r3, [fp, #-8]
c01008c4:	e3530000 	cmp	r3, #0
c01008c8:	da000006 	ble	c01008e8 <draw_line+0x15c>
c01008cc:	e51b3018 	ldr	r3, [fp, #-24]	; 0xffffffe8
c01008d0:	e2833001 	add	r3, r3, #1
c01008d4:	e50b3018 	str	r3, [fp, #-24]	; 0xffffffe8
c01008d8:	e51b2008 	ldr	r2, [fp, #-8]
c01008dc:	e51b3010 	ldr	r3, [fp, #-16]
c01008e0:	e0423003 	sub	r3, r2, r3
c01008e4:	e50b3008 	str	r3, [fp, #-8]
c01008e8:	e51b301c 	ldr	r3, [fp, #-28]	; 0xffffffe4
c01008ec:	e2833001 	add	r3, r3, #1
c01008f0:	e50b301c 	str	r3, [fp, #-28]	; 0xffffffe4
c01008f4:	e51b2008 	ldr	r2, [fp, #-8]
c01008f8:	e51b300c 	ldr	r3, [fp, #-12]
c01008fc:	e0823003 	add	r3, r2, r3
c0100900:	e50b3008 	str	r3, [fp, #-8]
c0100904:	e51b201c 	ldr	r2, [fp, #-28]	; 0xffffffe4
c0100908:	e51b3024 	ldr	r3, [fp, #-36]	; 0xffffffdc
c010090c:	e1520003 	cmp	r2, r3
c0100910:	daffffe5 	ble	c01008ac <draw_line+0x120>
c0100914:	ea0000f4 	b	c0100cec <draw_line+0x560>
c0100918:	e51b3010 	ldr	r3, [fp, #-16]
c010091c:	e2633000 	rsb	r3, r3, #0
c0100920:	e50b3010 	str	r3, [fp, #-16]
c0100924:	e51b200c 	ldr	r2, [fp, #-12]
c0100928:	e51b3010 	ldr	r3, [fp, #-16]
c010092c:	e1520003 	cmp	r2, r3
c0100930:	ba000024 	blt	c01009c8 <draw_line+0x23c>
c0100934:	e51b300c 	ldr	r3, [fp, #-12]
c0100938:	e1a02fa3 	lsr	r2, r3, #31
c010093c:	e0823003 	add	r3, r2, r3
c0100940:	e1a030c3 	asr	r3, r3, #1
c0100944:	e2633000 	rsb	r3, r3, #0
c0100948:	e1a02003 	mov	r2, r3
c010094c:	e51b3010 	ldr	r3, [fp, #-16]
c0100950:	e0833002 	add	r3, r3, r2
c0100954:	e50b3008 	str	r3, [fp, #-8]
c0100958:	ea000015 	b	c01009b4 <draw_line+0x228>
c010095c:	e59b3004 	ldr	r3, [fp, #4]
c0100960:	e1a02003 	mov	r2, r3
c0100964:	e51b101c 	ldr	r1, [fp, #-28]	; 0xffffffe4
c0100968:	e51b0018 	ldr	r0, [fp, #-24]	; 0xffffffe8
c010096c:	eb000117 	bl	c0100dd0 <fb_put_pixel>
c0100970:	e51b3008 	ldr	r3, [fp, #-8]
c0100974:	e3530000 	cmp	r3, #0
c0100978:	da000006 	ble	c0100998 <draw_line+0x20c>
c010097c:	e51b301c 	ldr	r3, [fp, #-28]	; 0xffffffe4
c0100980:	e2433001 	sub	r3, r3, #1
c0100984:	e50b301c 	str	r3, [fp, #-28]	; 0xffffffe4
c0100988:	e51b2008 	ldr	r2, [fp, #-8]
c010098c:	e51b300c 	ldr	r3, [fp, #-12]
c0100990:	e0423003 	sub	r3, r2, r3
c0100994:	e50b3008 	str	r3, [fp, #-8]
c0100998:	e51b3018 	ldr	r3, [fp, #-24]	; 0xffffffe8
c010099c:	e2833001 	add	r3, r3, #1
c01009a0:	e50b3018 	str	r3, [fp, #-24]	; 0xffffffe8
c01009a4:	e51b2008 	ldr	r2, [fp, #-8]
c01009a8:	e51b3010 	ldr	r3, [fp, #-16]
c01009ac:	e0823003 	add	r3, r2, r3
c01009b0:	e50b3008 	str	r3, [fp, #-8]
c01009b4:	e51b2018 	ldr	r2, [fp, #-24]	; 0xffffffe8
c01009b8:	e51b3020 	ldr	r3, [fp, #-32]	; 0xffffffe0
c01009bc:	e1520003 	cmp	r2, r3
c01009c0:	daffffe5 	ble	c010095c <draw_line+0x1d0>
c01009c4:	ea0000c8 	b	c0100cec <draw_line+0x560>
c01009c8:	e51b3010 	ldr	r3, [fp, #-16]
c01009cc:	e1a02fa3 	lsr	r2, r3, #31
c01009d0:	e0823003 	add	r3, r2, r3
c01009d4:	e1a030c3 	asr	r3, r3, #1
c01009d8:	e2633000 	rsb	r3, r3, #0
c01009dc:	e1a02003 	mov	r2, r3
c01009e0:	e51b300c 	ldr	r3, [fp, #-12]
c01009e4:	e0833002 	add	r3, r3, r2
c01009e8:	e50b3008 	str	r3, [fp, #-8]
c01009ec:	ea000015 	b	c0100a48 <draw_line+0x2bc>
c01009f0:	e59b3004 	ldr	r3, [fp, #4]
c01009f4:	e1a02003 	mov	r2, r3
c01009f8:	e51b101c 	ldr	r1, [fp, #-28]	; 0xffffffe4
c01009fc:	e51b0018 	ldr	r0, [fp, #-24]	; 0xffffffe8
c0100a00:	eb0000f2 	bl	c0100dd0 <fb_put_pixel>
c0100a04:	e51b3008 	ldr	r3, [fp, #-8]
c0100a08:	e3530000 	cmp	r3, #0
c0100a0c:	da000006 	ble	c0100a2c <draw_line+0x2a0>
c0100a10:	e51b3018 	ldr	r3, [fp, #-24]	; 0xffffffe8
c0100a14:	e2833001 	add	r3, r3, #1
c0100a18:	e50b3018 	str	r3, [fp, #-24]	; 0xffffffe8
c0100a1c:	e51b2008 	ldr	r2, [fp, #-8]
c0100a20:	e51b3010 	ldr	r3, [fp, #-16]
c0100a24:	e0423003 	sub	r3, r2, r3
c0100a28:	e50b3008 	str	r3, [fp, #-8]
c0100a2c:	e51b301c 	ldr	r3, [fp, #-28]	; 0xffffffe4
c0100a30:	e2433001 	sub	r3, r3, #1
c0100a34:	e50b301c 	str	r3, [fp, #-28]	; 0xffffffe4
c0100a38:	e51b2008 	ldr	r2, [fp, #-8]
c0100a3c:	e51b300c 	ldr	r3, [fp, #-12]
c0100a40:	e0823003 	add	r3, r2, r3
c0100a44:	e50b3008 	str	r3, [fp, #-8]
c0100a48:	e51b201c 	ldr	r2, [fp, #-28]	; 0xffffffe4
c0100a4c:	e51b3024 	ldr	r3, [fp, #-36]	; 0xffffffdc
c0100a50:	e1520003 	cmp	r2, r3
c0100a54:	aaffffe5 	bge	c01009f0 <draw_line+0x264>
c0100a58:	ea0000a3 	b	c0100cec <draw_line+0x560>
c0100a5c:	e51b300c 	ldr	r3, [fp, #-12]
c0100a60:	e2633000 	rsb	r3, r3, #0
c0100a64:	e50b300c 	str	r3, [fp, #-12]
c0100a68:	e51b3010 	ldr	r3, [fp, #-16]
c0100a6c:	e3530000 	cmp	r3, #0
c0100a70:	ba00004d 	blt	c0100bac <draw_line+0x420>
c0100a74:	e51b200c 	ldr	r2, [fp, #-12]
c0100a78:	e51b3010 	ldr	r3, [fp, #-16]
c0100a7c:	e1520003 	cmp	r2, r3
c0100a80:	ba000024 	blt	c0100b18 <draw_line+0x38c>
c0100a84:	e51b300c 	ldr	r3, [fp, #-12]
c0100a88:	e1a02fa3 	lsr	r2, r3, #31
c0100a8c:	e0823003 	add	r3, r2, r3
c0100a90:	e1a030c3 	asr	r3, r3, #1
c0100a94:	e2633000 	rsb	r3, r3, #0
c0100a98:	e1a02003 	mov	r2, r3
c0100a9c:	e51b3010 	ldr	r3, [fp, #-16]
c0100aa0:	e0833002 	add	r3, r3, r2
c0100aa4:	e50b3008 	str	r3, [fp, #-8]
c0100aa8:	ea000015 	b	c0100b04 <draw_line+0x378>
c0100aac:	e59b3004 	ldr	r3, [fp, #4]
c0100ab0:	e1a02003 	mov	r2, r3
c0100ab4:	e51b101c 	ldr	r1, [fp, #-28]	; 0xffffffe4
c0100ab8:	e51b0018 	ldr	r0, [fp, #-24]	; 0xffffffe8
c0100abc:	eb0000c3 	bl	c0100dd0 <fb_put_pixel>
c0100ac0:	e51b3008 	ldr	r3, [fp, #-8]
c0100ac4:	e3530000 	cmp	r3, #0
c0100ac8:	da000006 	ble	c0100ae8 <draw_line+0x35c>
c0100acc:	e51b301c 	ldr	r3, [fp, #-28]	; 0xffffffe4
c0100ad0:	e2833001 	add	r3, r3, #1
c0100ad4:	e50b301c 	str	r3, [fp, #-28]	; 0xffffffe4
c0100ad8:	e51b2008 	ldr	r2, [fp, #-8]
c0100adc:	e51b300c 	ldr	r3, [fp, #-12]
c0100ae0:	e0423003 	sub	r3, r2, r3
c0100ae4:	e50b3008 	str	r3, [fp, #-8]
c0100ae8:	e51b3018 	ldr	r3, [fp, #-24]	; 0xffffffe8
c0100aec:	e2433001 	sub	r3, r3, #1
c0100af0:	e50b3018 	str	r3, [fp, #-24]	; 0xffffffe8
c0100af4:	e51b2008 	ldr	r2, [fp, #-8]
c0100af8:	e51b3010 	ldr	r3, [fp, #-16]
c0100afc:	e0823003 	add	r3, r2, r3
c0100b00:	e50b3008 	str	r3, [fp, #-8]
c0100b04:	e51b2018 	ldr	r2, [fp, #-24]	; 0xffffffe8
c0100b08:	e51b3020 	ldr	r3, [fp, #-32]	; 0xffffffe0
c0100b0c:	e1520003 	cmp	r2, r3
c0100b10:	aaffffe5 	bge	c0100aac <draw_line+0x320>
c0100b14:	ea000074 	b	c0100cec <draw_line+0x560>
c0100b18:	e51b3010 	ldr	r3, [fp, #-16]
c0100b1c:	e1a02fa3 	lsr	r2, r3, #31
c0100b20:	e0823003 	add	r3, r2, r3
c0100b24:	e1a030c3 	asr	r3, r3, #1
c0100b28:	e2633000 	rsb	r3, r3, #0
c0100b2c:	e1a02003 	mov	r2, r3
c0100b30:	e51b300c 	ldr	r3, [fp, #-12]
c0100b34:	e0833002 	add	r3, r3, r2
c0100b38:	e50b3008 	str	r3, [fp, #-8]
c0100b3c:	ea000015 	b	c0100b98 <draw_line+0x40c>
c0100b40:	e59b3004 	ldr	r3, [fp, #4]
c0100b44:	e1a02003 	mov	r2, r3
c0100b48:	e51b101c 	ldr	r1, [fp, #-28]	; 0xffffffe4
c0100b4c:	e51b0018 	ldr	r0, [fp, #-24]	; 0xffffffe8
c0100b50:	eb00009e 	bl	c0100dd0 <fb_put_pixel>
c0100b54:	e51b3008 	ldr	r3, [fp, #-8]
c0100b58:	e3530000 	cmp	r3, #0
c0100b5c:	da000006 	ble	c0100b7c <draw_line+0x3f0>
c0100b60:	e51b3018 	ldr	r3, [fp, #-24]	; 0xffffffe8
c0100b64:	e2433001 	sub	r3, r3, #1
c0100b68:	e50b3018 	str	r3, [fp, #-24]	; 0xffffffe8
c0100b6c:	e51b2008 	ldr	r2, [fp, #-8]
c0100b70:	e51b3010 	ldr	r3, [fp, #-16]
c0100b74:	e0423003 	sub	r3, r2, r3
c0100b78:	e50b3008 	str	r3, [fp, #-8]
c0100b7c:	e51b301c 	ldr	r3, [fp, #-28]	; 0xffffffe4
c0100b80:	e2833001 	add	r3, r3, #1
c0100b84:	e50b301c 	str	r3, [fp, #-28]	; 0xffffffe4
c0100b88:	e51b2008 	ldr	r2, [fp, #-8]
c0100b8c:	e51b300c 	ldr	r3, [fp, #-12]
c0100b90:	e0823003 	add	r3, r2, r3
c0100b94:	e50b3008 	str	r3, [fp, #-8]
c0100b98:	e51b201c 	ldr	r2, [fp, #-28]	; 0xffffffe4
c0100b9c:	e51b3024 	ldr	r3, [fp, #-36]	; 0xffffffdc
c0100ba0:	e1520003 	cmp	r2, r3
c0100ba4:	daffffe5 	ble	c0100b40 <draw_line+0x3b4>
c0100ba8:	ea00004f 	b	c0100cec <draw_line+0x560>
c0100bac:	e51b3010 	ldr	r3, [fp, #-16]
c0100bb0:	e2633000 	rsb	r3, r3, #0
c0100bb4:	e50b3010 	str	r3, [fp, #-16]
c0100bb8:	e51b200c 	ldr	r2, [fp, #-12]
c0100bbc:	e51b3010 	ldr	r3, [fp, #-16]
c0100bc0:	e1520003 	cmp	r2, r3
c0100bc4:	ba000024 	blt	c0100c5c <draw_line+0x4d0>
c0100bc8:	e51b300c 	ldr	r3, [fp, #-12]
c0100bcc:	e1a02fa3 	lsr	r2, r3, #31
c0100bd0:	e0823003 	add	r3, r2, r3
c0100bd4:	e1a030c3 	asr	r3, r3, #1
c0100bd8:	e2633000 	rsb	r3, r3, #0
c0100bdc:	e1a02003 	mov	r2, r3
c0100be0:	e51b3010 	ldr	r3, [fp, #-16]
c0100be4:	e0833002 	add	r3, r3, r2
c0100be8:	e50b3008 	str	r3, [fp, #-8]
c0100bec:	ea000015 	b	c0100c48 <draw_line+0x4bc>
c0100bf0:	e59b3004 	ldr	r3, [fp, #4]
c0100bf4:	e1a02003 	mov	r2, r3
c0100bf8:	e51b101c 	ldr	r1, [fp, #-28]	; 0xffffffe4
c0100bfc:	e51b0018 	ldr	r0, [fp, #-24]	; 0xffffffe8
c0100c00:	eb000072 	bl	c0100dd0 <fb_put_pixel>
c0100c04:	e51b3008 	ldr	r3, [fp, #-8]
c0100c08:	e3530000 	cmp	r3, #0
c0100c0c:	da000006 	ble	c0100c2c <draw_line+0x4a0>
c0100c10:	e51b301c 	ldr	r3, [fp, #-28]	; 0xffffffe4
c0100c14:	e2433001 	sub	r3, r3, #1
c0100c18:	e50b301c 	str	r3, [fp, #-28]	; 0xffffffe4
c0100c1c:	e51b2008 	ldr	r2, [fp, #-8]
c0100c20:	e51b300c 	ldr	r3, [fp, #-12]
c0100c24:	e0423003 	sub	r3, r2, r3
c0100c28:	e50b3008 	str	r3, [fp, #-8]
c0100c2c:	e51b3018 	ldr	r3, [fp, #-24]	; 0xffffffe8
c0100c30:	e2433001 	sub	r3, r3, #1
c0100c34:	e50b3018 	str	r3, [fp, #-24]	; 0xffffffe8
c0100c38:	e51b2008 	ldr	r2, [fp, #-8]
c0100c3c:	e51b3010 	ldr	r3, [fp, #-16]
c0100c40:	e0823003 	add	r3, r2, r3
c0100c44:	e50b3008 	str	r3, [fp, #-8]
c0100c48:	e51b2018 	ldr	r2, [fp, #-24]	; 0xffffffe8
c0100c4c:	e51b3020 	ldr	r3, [fp, #-32]	; 0xffffffe0
c0100c50:	e1520003 	cmp	r2, r3
c0100c54:	aaffffe5 	bge	c0100bf0 <draw_line+0x464>
c0100c58:	ea000023 	b	c0100cec <draw_line+0x560>
c0100c5c:	e51b3010 	ldr	r3, [fp, #-16]
c0100c60:	e1a02fa3 	lsr	r2, r3, #31
c0100c64:	e0823003 	add	r3, r2, r3
c0100c68:	e1a030c3 	asr	r3, r3, #1
c0100c6c:	e2633000 	rsb	r3, r3, #0
c0100c70:	e1a02003 	mov	r2, r3
c0100c74:	e51b300c 	ldr	r3, [fp, #-12]
c0100c78:	e0833002 	add	r3, r3, r2
c0100c7c:	e50b3008 	str	r3, [fp, #-8]
c0100c80:	ea000015 	b	c0100cdc <draw_line+0x550>
c0100c84:	e59b3004 	ldr	r3, [fp, #4]
c0100c88:	e1a02003 	mov	r2, r3
c0100c8c:	e51b101c 	ldr	r1, [fp, #-28]	; 0xffffffe4
c0100c90:	e51b0018 	ldr	r0, [fp, #-24]	; 0xffffffe8
c0100c94:	eb00004d 	bl	c0100dd0 <fb_put_pixel>
c0100c98:	e51b3008 	ldr	r3, [fp, #-8]
c0100c9c:	e3530000 	cmp	r3, #0
c0100ca0:	da000006 	ble	c0100cc0 <draw_line+0x534>
c0100ca4:	e51b3018 	ldr	r3, [fp, #-24]	; 0xffffffe8
c0100ca8:	e2433001 	sub	r3, r3, #1
c0100cac:	e50b3018 	str	r3, [fp, #-24]	; 0xffffffe8
c0100cb0:	e51b2008 	ldr	r2, [fp, #-8]
c0100cb4:	e51b3010 	ldr	r3, [fp, #-16]
c0100cb8:	e0423003 	sub	r3, r2, r3
c0100cbc:	e50b3008 	str	r3, [fp, #-8]
c0100cc0:	e51b301c 	ldr	r3, [fp, #-28]	; 0xffffffe4
c0100cc4:	e2433001 	sub	r3, r3, #1
c0100cc8:	e50b301c 	str	r3, [fp, #-28]	; 0xffffffe4
c0100ccc:	e51b2008 	ldr	r2, [fp, #-8]
c0100cd0:	e51b300c 	ldr	r3, [fp, #-12]
c0100cd4:	e0823003 	add	r3, r2, r3
c0100cd8:	e50b3008 	str	r3, [fp, #-8]
c0100cdc:	e51b201c 	ldr	r2, [fp, #-28]	; 0xffffffe4
c0100ce0:	e51b3024 	ldr	r3, [fp, #-36]	; 0xffffffdc
c0100ce4:	e1520003 	cmp	r2, r3
c0100ce8:	aaffffe5 	bge	c0100c84 <draw_line+0x4f8>
c0100cec:	e320f000 	nop	{0}
c0100cf0:	e24bd004 	sub	sp, fp, #4
c0100cf4:	e8bd8800 	pop	{fp, pc}

c0100cf8 <fb_get_lcd_params>:
c0100cf8:	e92d4800 	push	{fp, lr}
c0100cfc:	e28db004 	add	fp, sp, #4
c0100d00:	e3013fb0 	movw	r3, #8112	; 0x1fb0
c0100d04:	e34c3010 	movt	r3, #49168	; 0xc010
c0100d08:	e3012fac 	movw	r2, #8108	; 0x1fac
c0100d0c:	e34c2010 	movt	r2, #49168	; 0xc010
c0100d10:	e3011fa8 	movw	r1, #8104	; 0x1fa8
c0100d14:	e34c1010 	movt	r1, #49168	; 0xc010
c0100d18:	e3010fa4 	movw	r0, #8100	; 0x1fa4
c0100d1c:	e34c0010 	movt	r0, #49168	; 0xc010
c0100d20:	eb00015e 	bl	c01012a0 <get_lcd_params>
c0100d24:	e320f000 	nop	{0}
c0100d28:	e8bd8800 	pop	{fp, pc}

c0100d2c <convert32bppto16bpp>:
c0100d2c:	e52db004 	push	{fp}		; (str fp, [sp, #-4]!)
c0100d30:	e28db000 	add	fp, sp, #0
c0100d34:	e24dd01c 	sub	sp, sp, #28
c0100d38:	e50b0018 	str	r0, [fp, #-24]	; 0xffffffe8
c0100d3c:	e51b3018 	ldr	r3, [fp, #-24]	; 0xffffffe8
c0100d40:	e1a03823 	lsr	r3, r3, #16
c0100d44:	e6ef3073 	uxtb	r3, r3
c0100d48:	e50b3008 	str	r3, [fp, #-8]
c0100d4c:	e51b3018 	ldr	r3, [fp, #-24]	; 0xffffffe8
c0100d50:	e1a03423 	lsr	r3, r3, #8
c0100d54:	e6ef3073 	uxtb	r3, r3
c0100d58:	e50b300c 	str	r3, [fp, #-12]
c0100d5c:	e51b3018 	ldr	r3, [fp, #-24]	; 0xffffffe8
c0100d60:	e6ef3073 	uxtb	r3, r3
c0100d64:	e50b3010 	str	r3, [fp, #-16]
c0100d68:	e51b3008 	ldr	r3, [fp, #-8]
c0100d6c:	e1a031c3 	asr	r3, r3, #3
c0100d70:	e50b3008 	str	r3, [fp, #-8]
c0100d74:	e51b300c 	ldr	r3, [fp, #-12]
c0100d78:	e1a03143 	asr	r3, r3, #2
c0100d7c:	e50b300c 	str	r3, [fp, #-12]
c0100d80:	e51b3010 	ldr	r3, [fp, #-16]
c0100d84:	e1a031c3 	asr	r3, r3, #3
c0100d88:	e50b3010 	str	r3, [fp, #-16]
c0100d8c:	e51b3008 	ldr	r3, [fp, #-8]
c0100d90:	e1a03583 	lsl	r3, r3, #11
c0100d94:	e6bf2073 	sxth	r2, r3
c0100d98:	e51b300c 	ldr	r3, [fp, #-12]
c0100d9c:	e1a03283 	lsl	r3, r3, #5
c0100da0:	e6bf3073 	sxth	r3, r3
c0100da4:	e1823003 	orr	r3, r2, r3
c0100da8:	e6bf2073 	sxth	r2, r3
c0100dac:	e51b3010 	ldr	r3, [fp, #-16]
c0100db0:	e6bf3073 	sxth	r3, r3
c0100db4:	e1823003 	orr	r3, r2, r3
c0100db8:	e6bf3073 	sxth	r3, r3
c0100dbc:	e6ff3073 	uxth	r3, r3
c0100dc0:	e1a00003 	mov	r0, r3
c0100dc4:	e28bd000 	add	sp, fp, #0
c0100dc8:	e49db004 	pop	{fp}		; (ldr fp, [sp], #4)
c0100dcc:	e12fff1e 	bx	lr

c0100dd0 <fb_put_pixel>:
c0100dd0:	e92d4800 	push	{fp, lr}
c0100dd4:	e28db004 	add	fp, sp, #4
c0100dd8:	e24dd020 	sub	sp, sp, #32
c0100ddc:	e50b0018 	str	r0, [fp, #-24]	; 0xffffffe8
c0100de0:	e50b101c 	str	r1, [fp, #-28]	; 0xffffffe4
c0100de4:	e50b2020 	str	r2, [fp, #-32]	; 0xffffffe0
c0100de8:	e3013fa8 	movw	r3, #8104	; 0x1fa8
c0100dec:	e34c3010 	movt	r3, #49168	; 0xc010
c0100df0:	e5932000 	ldr	r2, [r3]
c0100df4:	e3013fb0 	movw	r3, #8112	; 0x1fb0
c0100df8:	e34c3010 	movt	r3, #49168	; 0xc010
c0100dfc:	e5933000 	ldr	r3, [r3]
c0100e00:	e0030293 	mul	r3, r3, r2
c0100e04:	e2832007 	add	r2, r3, #7
c0100e08:	e3530000 	cmp	r3, #0
c0100e0c:	b1a03002 	movlt	r3, r2
c0100e10:	a1a03003 	movge	r3, r3
c0100e14:	e1a031c3 	asr	r3, r3, #3
c0100e18:	e1a02003 	mov	r2, r3
c0100e1c:	e51b301c 	ldr	r3, [fp, #-28]	; 0xffffffe4
c0100e20:	e0030293 	mul	r3, r3, r2
c0100e24:	e1a02003 	mov	r2, r3
c0100e28:	e3013fa4 	movw	r3, #8100	; 0x1fa4
c0100e2c:	e34c3010 	movt	r3, #49168	; 0xc010
c0100e30:	e5933000 	ldr	r3, [r3]
c0100e34:	e0822003 	add	r2, r2, r3
c0100e38:	e3013fb0 	movw	r3, #8112	; 0x1fb0
c0100e3c:	e34c3010 	movt	r3, #49168	; 0xc010
c0100e40:	e5933000 	ldr	r3, [r3]
c0100e44:	e51b1018 	ldr	r1, [fp, #-24]	; 0xffffffe8
c0100e48:	e0030391 	mul	r3, r1, r3
c0100e4c:	e2831007 	add	r1, r3, #7
c0100e50:	e3530000 	cmp	r3, #0
c0100e54:	b1a03001 	movlt	r3, r1
c0100e58:	a1a03003 	movge	r3, r3
c0100e5c:	e1a031c3 	asr	r3, r3, #3
c0100e60:	e0823003 	add	r3, r2, r3
c0100e64:	e50b3008 	str	r3, [fp, #-8]
c0100e68:	e3013fb0 	movw	r3, #8112	; 0x1fb0
c0100e6c:	e34c3010 	movt	r3, #49168	; 0xc010
c0100e70:	e5933000 	ldr	r3, [r3]
c0100e74:	e3530010 	cmp	r3, #16
c0100e78:	0a000002 	beq	c0100e88 <fb_put_pixel+0xb8>
c0100e7c:	e3530020 	cmp	r3, #32
c0100e80:	0a000009 	beq	c0100eac <fb_put_pixel+0xdc>
c0100e84:	ea00000e 	b	c0100ec4 <fb_put_pixel+0xf4>
c0100e88:	e51b3008 	ldr	r3, [fp, #-8]
c0100e8c:	e50b300c 	str	r3, [fp, #-12]
c0100e90:	e51b0020 	ldr	r0, [fp, #-32]	; 0xffffffe0
c0100e94:	ebffffa4 	bl	c0100d2c <convert32bppto16bpp>
c0100e98:	e1a03000 	mov	r3, r0
c0100e9c:	e1a02003 	mov	r2, r3
c0100ea0:	e51b300c 	ldr	r3, [fp, #-12]
c0100ea4:	e1c320b0 	strh	r2, [r3]
c0100ea8:	ea000005 	b	c0100ec4 <fb_put_pixel+0xf4>
c0100eac:	e51b3008 	ldr	r3, [fp, #-8]
c0100eb0:	e50b3010 	str	r3, [fp, #-16]
c0100eb4:	e51b3010 	ldr	r3, [fp, #-16]
c0100eb8:	e51b2020 	ldr	r2, [fp, #-32]	; 0xffffffe0
c0100ebc:	e5832000 	str	r2, [r3]
c0100ec0:	e320f000 	nop	{0}
c0100ec4:	e320f000 	nop	{0}
c0100ec8:	e24bd004 	sub	sp, fp, #4
c0100ecc:	e8bd8800 	pop	{fp, pc}

c0100ed0 <strcmp>:
c0100ed0:	e92d0810 	push	{r4, fp}
c0100ed4:	e28db004 	add	fp, sp, #4
c0100ed8:	e24dd008 	sub	sp, sp, #8
c0100edc:	e50b0008 	str	r0, [fp, #-8]
c0100ee0:	e50b100c 	str	r1, [fp, #-12]
c0100ee4:	e51b3008 	ldr	r3, [fp, #-8]
c0100ee8:	e5d32000 	ldrb	r2, [r3]
c0100eec:	e51b300c 	ldr	r3, [fp, #-12]
c0100ef0:	e2831001 	add	r1, r3, #1
c0100ef4:	e50b100c 	str	r1, [fp, #-12]
c0100ef8:	e5d33000 	ldrb	r3, [r3]
c0100efc:	e0423003 	sub	r3, r2, r3
c0100f00:	e6ef3073 	uxtb	r3, r3
c0100f04:	e6af4073 	sxtb	r4, r3
c0100f08:	e3540000 	cmp	r4, #0
c0100f0c:	1a000006 	bne	c0100f2c <strcmp+0x5c>
c0100f10:	e51b3008 	ldr	r3, [fp, #-8]
c0100f14:	e2832001 	add	r2, r3, #1
c0100f18:	e50b2008 	str	r2, [fp, #-8]
c0100f1c:	e5d33000 	ldrb	r3, [r3]
c0100f20:	e3530000 	cmp	r3, #0
c0100f24:	0a000000 	beq	c0100f2c <strcmp+0x5c>
c0100f28:	eaffffed 	b	c0100ee4 <strcmp+0x14>
c0100f2c:	e1a03004 	mov	r3, r4
c0100f30:	e1a00003 	mov	r0, r3
c0100f34:	e24bd004 	sub	sp, fp, #4
c0100f38:	e8bd0810 	pop	{r4, fp}
c0100f3c:	e12fff1e 	bx	lr

c0100f40 <register_lcd_controller>:
c0100f40:	e52db004 	push	{fp}		; (str fp, [sp, #-4]!)
c0100f44:	e28db000 	add	fp, sp, #0
c0100f48:	e24dd014 	sub	sp, sp, #20
c0100f4c:	e50b0010 	str	r0, [fp, #-16]
c0100f50:	e3a03000 	mov	r3, #0
c0100f54:	e50b3008 	str	r3, [fp, #-8]
c0100f58:	ea00000f 	b	c0100f9c <register_lcd_controller+0x5c>
c0100f5c:	e3013fb4 	movw	r3, #8116	; 0x1fb4
c0100f60:	e34c3010 	movt	r3, #49168	; 0xc010
c0100f64:	e51b2008 	ldr	r2, [fp, #-8]
c0100f68:	e7933102 	ldr	r3, [r3, r2, lsl #2]
c0100f6c:	e3530000 	cmp	r3, #0
c0100f70:	1a000006 	bne	c0100f90 <register_lcd_controller+0x50>
c0100f74:	e3013fb4 	movw	r3, #8116	; 0x1fb4
c0100f78:	e34c3010 	movt	r3, #49168	; 0xc010
c0100f7c:	e51b2008 	ldr	r2, [fp, #-8]
c0100f80:	e51b1010 	ldr	r1, [fp, #-16]
c0100f84:	e7831102 	str	r1, [r3, r2, lsl #2]
c0100f88:	e51b3008 	ldr	r3, [fp, #-8]
c0100f8c:	ea000006 	b	c0100fac <register_lcd_controller+0x6c>
c0100f90:	e51b3008 	ldr	r3, [fp, #-8]
c0100f94:	e2833001 	add	r3, r3, #1
c0100f98:	e50b3008 	str	r3, [fp, #-8]
c0100f9c:	e51b3008 	ldr	r3, [fp, #-8]
c0100fa0:	e3530009 	cmp	r3, #9
c0100fa4:	daffffec 	ble	c0100f5c <register_lcd_controller+0x1c>
c0100fa8:	e3e03000 	mvn	r3, #0
c0100fac:	e1a00003 	mov	r0, r3
c0100fb0:	e28bd000 	add	sp, fp, #0
c0100fb4:	e49db004 	pop	{fp}		; (ldr fp, [sp], #4)
c0100fb8:	e12fff1e 	bx	lr

c0100fbc <select_lcd_controller>:
c0100fbc:	e92d4800 	push	{fp, lr}
c0100fc0:	e28db004 	add	fp, sp, #4
c0100fc4:	e24dd010 	sub	sp, sp, #16
c0100fc8:	e50b0010 	str	r0, [fp, #-16]
c0100fcc:	e3a03000 	mov	r3, #0
c0100fd0:	e50b3008 	str	r3, [fp, #-8]
c0100fd4:	ea00001c 	b	c010104c <select_lcd_controller+0x90>
c0100fd8:	e3013fb4 	movw	r3, #8116	; 0x1fb4
c0100fdc:	e34c3010 	movt	r3, #49168	; 0xc010
c0100fe0:	e51b2008 	ldr	r2, [fp, #-8]
c0100fe4:	e7933102 	ldr	r3, [r3, r2, lsl #2]
c0100fe8:	e3530000 	cmp	r3, #0
c0100fec:	0a000013 	beq	c0101040 <select_lcd_controller+0x84>
c0100ff0:	e3013fb4 	movw	r3, #8116	; 0x1fb4
c0100ff4:	e34c3010 	movt	r3, #49168	; 0xc010
c0100ff8:	e51b2008 	ldr	r2, [fp, #-8]
c0100ffc:	e7933102 	ldr	r3, [r3, r2, lsl #2]
c0101000:	e5933000 	ldr	r3, [r3]
c0101004:	e51b1010 	ldr	r1, [fp, #-16]
c0101008:	e1a00003 	mov	r0, r3
c010100c:	ebffffaf 	bl	c0100ed0 <strcmp>
c0101010:	e1a03000 	mov	r3, r0
c0101014:	e3530000 	cmp	r3, #0
c0101018:	1a000008 	bne	c0101040 <select_lcd_controller+0x84>
c010101c:	e3013fb4 	movw	r3, #8116	; 0x1fb4
c0101020:	e34c3010 	movt	r3, #49168	; 0xc010
c0101024:	e51b2008 	ldr	r2, [fp, #-8]
c0101028:	e7932102 	ldr	r2, [r3, r2, lsl #2]
c010102c:	e3013fdc 	movw	r3, #8156	; 0x1fdc
c0101030:	e34c3010 	movt	r3, #49168	; 0xc010
c0101034:	e5832000 	str	r2, [r3]
c0101038:	e51b3008 	ldr	r3, [fp, #-8]
c010103c:	ea000006 	b	c010105c <select_lcd_controller+0xa0>
c0101040:	e51b3008 	ldr	r3, [fp, #-8]
c0101044:	e2833001 	add	r3, r3, #1
c0101048:	e50b3008 	str	r3, [fp, #-8]
c010104c:	e51b3008 	ldr	r3, [fp, #-8]
c0101050:	e3530009 	cmp	r3, #9
c0101054:	daffffdf 	ble	c0100fd8 <select_lcd_controller+0x1c>
c0101058:	e3e03000 	mvn	r3, #0
c010105c:	e1a00003 	mov	r0, r3
c0101060:	e24bd004 	sub	sp, fp, #4
c0101064:	e8bd8800 	pop	{fp, pc}

c0101068 <lcd_controller_init>:
c0101068:	e92d4800 	push	{fp, lr}
c010106c:	e28db004 	add	fp, sp, #4
c0101070:	e24dd008 	sub	sp, sp, #8
c0101074:	e50b0008 	str	r0, [fp, #-8]
c0101078:	e3013fdc 	movw	r3, #8156	; 0x1fdc
c010107c:	e34c3010 	movt	r3, #49168	; 0xc010
c0101080:	e5933000 	ldr	r3, [r3]
c0101084:	e3530000 	cmp	r3, #0
c0101088:	0a000007 	beq	c01010ac <lcd_controller_init+0x44>
c010108c:	e3013fdc 	movw	r3, #8156	; 0x1fdc
c0101090:	e34c3010 	movt	r3, #49168	; 0xc010
c0101094:	e5933000 	ldr	r3, [r3]
c0101098:	e5933004 	ldr	r3, [r3, #4]
c010109c:	e51b0008 	ldr	r0, [fp, #-8]
c01010a0:	e12fff33 	blx	r3
c01010a4:	e3a03000 	mov	r3, #0
c01010a8:	ea000000 	b	c01010b0 <lcd_controller_init+0x48>
c01010ac:	e3e03000 	mvn	r3, #0
c01010b0:	e1a00003 	mov	r0, r3
c01010b4:	e24bd004 	sub	sp, fp, #4
c01010b8:	e8bd8800 	pop	{fp, pc}

c01010bc <lcd_controller_enable>:
c01010bc:	e92d4800 	push	{fp, lr}
c01010c0:	e28db004 	add	fp, sp, #4
c01010c4:	e3013fdc 	movw	r3, #8156	; 0x1fdc
c01010c8:	e34c3010 	movt	r3, #49168	; 0xc010
c01010cc:	e5933000 	ldr	r3, [r3]
c01010d0:	e3530000 	cmp	r3, #0
c01010d4:	0a000004 	beq	c01010ec <lcd_controller_enable+0x30>
c01010d8:	e3013fdc 	movw	r3, #8156	; 0x1fdc
c01010dc:	e34c3010 	movt	r3, #49168	; 0xc010
c01010e0:	e5933000 	ldr	r3, [r3]
c01010e4:	e5933008 	ldr	r3, [r3, #8]
c01010e8:	e12fff33 	blx	r3
c01010ec:	e320f000 	nop	{0}
c01010f0:	e8bd8800 	pop	{fp, pc}

c01010f4 <lcd_controller_disable>:
c01010f4:	e92d4800 	push	{fp, lr}
c01010f8:	e28db004 	add	fp, sp, #4
c01010fc:	e3013fdc 	movw	r3, #8156	; 0x1fdc
c0101100:	e34c3010 	movt	r3, #49168	; 0xc010
c0101104:	e5933000 	ldr	r3, [r3]
c0101108:	e3530000 	cmp	r3, #0
c010110c:	0a000004 	beq	c0101124 <lcd_controller_disable+0x30>
c0101110:	e3013fdc 	movw	r3, #8156	; 0x1fdc
c0101114:	e34c3010 	movt	r3, #49168	; 0xc010
c0101118:	e5933000 	ldr	r3, [r3]
c010111c:	e593300c 	ldr	r3, [r3, #12]
c0101120:	e12fff33 	blx	r3
c0101124:	e320f000 	nop	{0}
c0101128:	e8bd8800 	pop	{fp, pc}

c010112c <lcd_contoller_add>:
c010112c:	e92d4800 	push	{fp, lr}
c0101130:	e28db004 	add	fp, sp, #4
c0101134:	eb000375 	bl	c0101f10 <Stm32mp157_lcd_controller_add>
c0101138:	e320f000 	nop	{0}
c010113c:	e8bd8800 	pop	{fp, pc}

c0101140 <delay>:
c0101140:	e52db004 	push	{fp}		; (str fp, [sp, #-4]!)
c0101144:	e28db000 	add	fp, sp, #0
c0101148:	e24dd00c 	sub	sp, sp, #12
c010114c:	e50b0008 	str	r0, [fp, #-8]
c0101150:	e320f000 	nop	{0}
c0101154:	e51b3008 	ldr	r3, [fp, #-8]
c0101158:	e2432001 	sub	r2, r3, #1
c010115c:	e50b2008 	str	r2, [fp, #-8]
c0101160:	e3530000 	cmp	r3, #0
c0101164:	1afffffa 	bne	c0101154 <delay+0x14>
c0101168:	e320f000 	nop	{0}
c010116c:	e28bd000 	add	sp, fp, #0
c0101170:	e49db004 	pop	{fp}		; (ldr fp, [sp], #4)
c0101174:	e12fff1e 	bx	lr

c0101178 <register_lcd>:
c0101178:	e52db004 	push	{fp}		; (str fp, [sp, #-4]!)
c010117c:	e28db000 	add	fp, sp, #0
c0101180:	e24dd014 	sub	sp, sp, #20
c0101184:	e50b0010 	str	r0, [fp, #-16]
c0101188:	e3a03000 	mov	r3, #0
c010118c:	e50b3008 	str	r3, [fp, #-8]
c0101190:	ea00000f 	b	c01011d4 <register_lcd+0x5c>
c0101194:	e3013fe0 	movw	r3, #8160	; 0x1fe0
c0101198:	e34c3010 	movt	r3, #49168	; 0xc010
c010119c:	e51b2008 	ldr	r2, [fp, #-8]
c01011a0:	e7933102 	ldr	r3, [r3, r2, lsl #2]
c01011a4:	e3530000 	cmp	r3, #0
c01011a8:	1a000006 	bne	c01011c8 <register_lcd+0x50>
c01011ac:	e3013fe0 	movw	r3, #8160	; 0x1fe0
c01011b0:	e34c3010 	movt	r3, #49168	; 0xc010
c01011b4:	e51b2008 	ldr	r2, [fp, #-8]
c01011b8:	e51b1010 	ldr	r1, [fp, #-16]
c01011bc:	e7831102 	str	r1, [r3, r2, lsl #2]
c01011c0:	e51b3008 	ldr	r3, [fp, #-8]
c01011c4:	ea000006 	b	c01011e4 <register_lcd+0x6c>
c01011c8:	e51b3008 	ldr	r3, [fp, #-8]
c01011cc:	e2833001 	add	r3, r3, #1
c01011d0:	e50b3008 	str	r3, [fp, #-8]
c01011d4:	e51b3008 	ldr	r3, [fp, #-8]
c01011d8:	e3530004 	cmp	r3, #4
c01011dc:	daffffec 	ble	c0101194 <register_lcd+0x1c>
c01011e0:	e3e03000 	mvn	r3, #0
c01011e4:	e1a00003 	mov	r0, r3
c01011e8:	e28bd000 	add	sp, fp, #0
c01011ec:	e49db004 	pop	{fp}		; (ldr fp, [sp], #4)
c01011f0:	e12fff1e 	bx	lr

c01011f4 <select_lcd>:
c01011f4:	e92d4800 	push	{fp, lr}
c01011f8:	e28db004 	add	fp, sp, #4
c01011fc:	e24dd010 	sub	sp, sp, #16
c0101200:	e50b0010 	str	r0, [fp, #-16]
c0101204:	e3a03000 	mov	r3, #0
c0101208:	e50b3008 	str	r3, [fp, #-8]
c010120c:	ea00001c 	b	c0101284 <select_lcd+0x90>
c0101210:	e3013fe0 	movw	r3, #8160	; 0x1fe0
c0101214:	e34c3010 	movt	r3, #49168	; 0xc010
c0101218:	e51b2008 	ldr	r2, [fp, #-8]
c010121c:	e7933102 	ldr	r3, [r3, r2, lsl #2]
c0101220:	e3530000 	cmp	r3, #0
c0101224:	0a000013 	beq	c0101278 <select_lcd+0x84>
c0101228:	e3013fe0 	movw	r3, #8160	; 0x1fe0
c010122c:	e34c3010 	movt	r3, #49168	; 0xc010
c0101230:	e51b2008 	ldr	r2, [fp, #-8]
c0101234:	e7933102 	ldr	r3, [r3, r2, lsl #2]
c0101238:	e5933000 	ldr	r3, [r3]
c010123c:	e51b1010 	ldr	r1, [fp, #-16]
c0101240:	e1a00003 	mov	r0, r3
c0101244:	ebffff21 	bl	c0100ed0 <strcmp>
c0101248:	e1a03000 	mov	r3, r0
c010124c:	e3530000 	cmp	r3, #0
c0101250:	1a000008 	bne	c0101278 <select_lcd+0x84>
c0101254:	e3013fe0 	movw	r3, #8160	; 0x1fe0
c0101258:	e34c3010 	movt	r3, #49168	; 0xc010
c010125c:	e51b2008 	ldr	r2, [fp, #-8]
c0101260:	e7932102 	ldr	r2, [r3, r2, lsl #2]
c0101264:	e3013ff4 	movw	r3, #8180	; 0x1ff4
c0101268:	e34c3010 	movt	r3, #49168	; 0xc010
c010126c:	e5832000 	str	r2, [r3]
c0101270:	e51b3008 	ldr	r3, [fp, #-8]
c0101274:	ea000006 	b	c0101294 <select_lcd+0xa0>
c0101278:	e51b3008 	ldr	r3, [fp, #-8]
c010127c:	e2833001 	add	r3, r3, #1
c0101280:	e50b3008 	str	r3, [fp, #-8]
c0101284:	e51b3008 	ldr	r3, [fp, #-8]
c0101288:	e3530004 	cmp	r3, #4
c010128c:	daffffdf 	ble	c0101210 <select_lcd+0x1c>
c0101290:	e3e03000 	mvn	r3, #0
c0101294:	e1a00003 	mov	r0, r3
c0101298:	e24bd004 	sub	sp, fp, #4
c010129c:	e8bd8800 	pop	{fp, pc}

c01012a0 <get_lcd_params>:
c01012a0:	e52db004 	push	{fp}		; (str fp, [sp, #-4]!)
c01012a4:	e28db000 	add	fp, sp, #0
c01012a8:	e24dd014 	sub	sp, sp, #20
c01012ac:	e50b0008 	str	r0, [fp, #-8]
c01012b0:	e50b100c 	str	r1, [fp, #-12]
c01012b4:	e50b2010 	str	r2, [fp, #-16]
c01012b8:	e50b3014 	str	r3, [fp, #-20]	; 0xffffffec
c01012bc:	e3013ff4 	movw	r3, #8180	; 0x1ff4
c01012c0:	e34c3010 	movt	r3, #49168	; 0xc010
c01012c4:	e5933000 	ldr	r3, [r3]
c01012c8:	e593203c 	ldr	r2, [r3, #60]	; 0x3c
c01012cc:	e51b3008 	ldr	r3, [fp, #-8]
c01012d0:	e5832000 	str	r2, [r3]
c01012d4:	e3013ff4 	movw	r3, #8180	; 0x1ff4
c01012d8:	e34c3010 	movt	r3, #49168	; 0xc010
c01012dc:	e5933000 	ldr	r3, [r3]
c01012e0:	e5932030 	ldr	r2, [r3, #48]	; 0x30
c01012e4:	e51b300c 	ldr	r3, [fp, #-12]
c01012e8:	e5832000 	str	r2, [r3]
c01012ec:	e3013ff4 	movw	r3, #8180	; 0x1ff4
c01012f0:	e34c3010 	movt	r3, #49168	; 0xc010
c01012f4:	e5933000 	ldr	r3, [r3]
c01012f8:	e5932034 	ldr	r2, [r3, #52]	; 0x34
c01012fc:	e51b3010 	ldr	r3, [fp, #-16]
c0101300:	e5832000 	str	r2, [r3]
c0101304:	e3013ff4 	movw	r3, #8180	; 0x1ff4
c0101308:	e34c3010 	movt	r3, #49168	; 0xc010
c010130c:	e5933000 	ldr	r3, [r3]
c0101310:	e5932038 	ldr	r2, [r3, #56]	; 0x38
c0101314:	e51b3014 	ldr	r3, [fp, #-20]	; 0xffffffec
c0101318:	e5832000 	str	r2, [r3]
c010131c:	e320f000 	nop	{0}
c0101320:	e28bd000 	add	sp, fp, #0
c0101324:	e49db004 	pop	{fp}		; (ldr fp, [sp], #4)
c0101328:	e12fff1e 	bx	lr

c010132c <lcd_enable>:
c010132c:	e92d4800 	push	{fp, lr}
c0101330:	e28db004 	add	fp, sp, #4
c0101334:	ebffff60 	bl	c01010bc <lcd_controller_enable>
c0101338:	e320f000 	nop	{0}
c010133c:	e8bd8800 	pop	{fp, pc}

c0101340 <lcd_disable>:
c0101340:	e92d4800 	push	{fp, lr}
c0101344:	e28db004 	add	fp, sp, #4
c0101348:	ebffff69 	bl	c01010f4 <lcd_controller_disable>
c010134c:	e320f000 	nop	{0}
c0101350:	e8bd8800 	pop	{fp, pc}

c0101354 <lcd_init>:
c0101354:	e92d4800 	push	{fp, lr}
c0101358:	e28db004 	add	fp, sp, #4
c010135c:	eb00000d 	bl	c0101398 <lcd_7_0_add>
c0101360:	ebffff71 	bl	c010112c <lcd_contoller_add>
c0101364:	e3010f2c 	movw	r0, #7980	; 0x1f2c
c0101368:	e34c0010 	movt	r0, #49168	; 0xc010
c010136c:	ebffff12 	bl	c0100fbc <select_lcd_controller>
c0101370:	e3010f38 	movw	r0, #7992	; 0x1f38
c0101374:	e34c0010 	movt	r0, #49168	; 0xc010
c0101378:	ebffff9d 	bl	c01011f4 <select_lcd>
c010137c:	e3013ff4 	movw	r3, #8180	; 0x1ff4
c0101380:	e34c3010 	movt	r3, #49168	; 0xc010
c0101384:	e5933000 	ldr	r3, [r3]
c0101388:	e1a00003 	mov	r0, r3
c010138c:	ebffff35 	bl	c0101068 <lcd_controller_init>
c0101390:	e320f000 	nop	{0}
c0101394:	e8bd8800 	pop	{fp, pc}

c0101398 <lcd_7_0_add>:
c0101398:	e92d4800 	push	{fp, lr}
c010139c:	e28db004 	add	fp, sp, #4
c01013a0:	e3010f54 	movw	r0, #8020	; 0x1f54
c01013a4:	e34c0010 	movt	r0, #49168	; 0xc010
c01013a8:	ebffff72 	bl	c0101178 <register_lcd>
c01013ac:	e320f000 	nop	{0}
c01013b0:	e8bd8800 	pop	{fp, pc}

c01013b4 <Stm32mp157_clk_init>:
c01013b4:	e52db004 	push	{fp}		; (str fp, [sp, #-4]!)
c01013b8:	e28db000 	add	fp, sp, #0
c01013bc:	e3012ffc 	movw	r2, #8188	; 0x1ffc
c01013c0:	e34c2010 	movt	r2, #49168	; 0xc010
c01013c4:	e3003824 	movw	r3, #2084	; 0x824
c01013c8:	e3453000 	movt	r3, #20480	; 0x5000
c01013cc:	e5823000 	str	r3, [r2]
c01013d0:	e3022000 	movw	r2, #8192	; 0x2000
c01013d4:	e34c2010 	movt	r2, #49168	; 0xc010
c01013d8:	e3003898 	movw	r3, #2200	; 0x898
c01013dc:	e3453000 	movt	r3, #20480	; 0x5000
c01013e0:	e5823000 	str	r3, [r2]
c01013e4:	e3022004 	movw	r2, #8196	; 0x2004
c01013e8:	e34c2010 	movt	r2, #49168	; 0xc010
c01013ec:	e300389c 	movw	r3, #2204	; 0x89c
c01013f0:	e3453000 	movt	r3, #20480	; 0x5000
c01013f4:	e5823000 	str	r3, [r2]
c01013f8:	e3022008 	movw	r2, #8200	; 0x2008
c01013fc:	e34c2010 	movt	r2, #49168	; 0xc010
c0101400:	e3003894 	movw	r3, #2196	; 0x894
c0101404:	e3453000 	movt	r3, #20480	; 0x5000
c0101408:	e5823000 	str	r3, [r2]
c010140c:	e302200c 	movw	r2, #8204	; 0x200c
c0101410:	e34c2010 	movt	r2, #49168	; 0xc010
c0101414:	e3003a28 	movw	r3, #2600	; 0xa28
c0101418:	e3453000 	movt	r3, #20480	; 0x5000
c010141c:	e5823000 	str	r3, [r2]
c0101420:	e3022010 	movw	r2, #8208	; 0x2010
c0101424:	e34c2010 	movt	r2, #49168	; 0xc010
c0101428:	e3a03c02 	mov	r3, #512	; 0x200
c010142c:	e3453000 	movt	r3, #20480	; 0x5000
c0101430:	e5823000 	str	r3, [r2]
c0101434:	e3013ffc 	movw	r3, #8188	; 0x1ffc
c0101438:	e34c3010 	movt	r3, #49168	; 0xc010
c010143c:	e5933000 	ldr	r3, [r3]
c0101440:	e5932000 	ldr	r2, [r3]
c0101444:	e3013ffc 	movw	r3, #8188	; 0x1ffc
c0101448:	e34c3010 	movt	r3, #49168	; 0xc010
c010144c:	e5933000 	ldr	r3, [r3]
c0101450:	e3c22003 	bic	r2, r2, #3
c0101454:	e5832000 	str	r2, [r3]
c0101458:	e3013ffc 	movw	r3, #8188	; 0x1ffc
c010145c:	e34c3010 	movt	r3, #49168	; 0xc010
c0101460:	e5933000 	ldr	r3, [r3]
c0101464:	e5932000 	ldr	r2, [r3]
c0101468:	e3013ffc 	movw	r3, #8188	; 0x1ffc
c010146c:	e34c3010 	movt	r3, #49168	; 0xc010
c0101470:	e5933000 	ldr	r3, [r3]
c0101474:	e3822001 	orr	r2, r2, #1
c0101478:	e5832000 	str	r2, [r3]
c010147c:	e3023000 	movw	r3, #8192	; 0x2000
c0101480:	e34c3010 	movt	r3, #49168	; 0xc010
c0101484:	e5933000 	ldr	r3, [r3]
c0101488:	e5932000 	ldr	r2, [r3]
c010148c:	e3023000 	movw	r3, #8192	; 0x2000
c0101490:	e34c3010 	movt	r3, #49168	; 0xc010
c0101494:	e5933000 	ldr	r3, [r3]
c0101498:	e3c220c7 	bic	r2, r2, #199	; 0xc7
c010149c:	e5832000 	str	r2, [r3]
c01014a0:	e3023000 	movw	r3, #8192	; 0x2000
c01014a4:	e34c3010 	movt	r3, #49168	; 0xc010
c01014a8:	e5933000 	ldr	r3, [r3]
c01014ac:	e5932000 	ldr	r2, [r3]
c01014b0:	e3023000 	movw	r3, #8192	; 0x2000
c01014b4:	e34c3010 	movt	r3, #49168	; 0xc010
c01014b8:	e5933000 	ldr	r3, [r3]
c01014bc:	e3c2283f 	bic	r2, r2, #4128768	; 0x3f0000
c01014c0:	e5832000 	str	r2, [r3]
c01014c4:	e3023000 	movw	r3, #8192	; 0x2000
c01014c8:	e34c3010 	movt	r3, #49168	; 0xc010
c01014cc:	e5933000 	ldr	r3, [r3]
c01014d0:	e5931000 	ldr	r1, [r3]
c01014d4:	e3023000 	movw	r3, #8192	; 0x2000
c01014d8:	e34c3010 	movt	r3, #49168	; 0xc010
c01014dc:	e5932000 	ldr	r2, [r3]
c01014e0:	e3813801 	orr	r3, r1, #65536	; 0x10000
c01014e4:	e383303f 	orr	r3, r3, #63	; 0x3f
c01014e8:	e5823000 	str	r3, [r2]
c01014ec:	e3023004 	movw	r3, #8196	; 0x2004
c01014f0:	e34c3010 	movt	r3, #49168	; 0xc010
c01014f4:	e5933000 	ldr	r3, [r3]
c01014f8:	e5932000 	ldr	r2, [r3]
c01014fc:	e3023004 	movw	r3, #8196	; 0x2004
c0101500:	e34c3010 	movt	r3, #49168	; 0xc010
c0101504:	e5933000 	ldr	r3, [r3]
c0101508:	e3c22c7f 	bic	r2, r2, #32512	; 0x7f00
c010150c:	e5832000 	str	r2, [r3]
c0101510:	e3023004 	movw	r3, #8196	; 0x2004
c0101514:	e34c3010 	movt	r3, #49168	; 0xc010
c0101518:	e5933000 	ldr	r3, [r3]
c010151c:	e5932000 	ldr	r2, [r3]
c0101520:	e3023004 	movw	r3, #8196	; 0x2004
c0101524:	e34c3010 	movt	r3, #49168	; 0xc010
c0101528:	e5933000 	ldr	r3, [r3]
c010152c:	e3822c0e 	orr	r2, r2, #3584	; 0xe00
c0101530:	e5832000 	str	r2, [r3]
c0101534:	e3023008 	movw	r3, #8200	; 0x2008
c0101538:	e34c3010 	movt	r3, #49168	; 0xc010
c010153c:	e5933000 	ldr	r3, [r3]
c0101540:	e5932000 	ldr	r2, [r3]
c0101544:	e3023008 	movw	r3, #8200	; 0x2008
c0101548:	e34c3010 	movt	r3, #49168	; 0xc010
c010154c:	e5933000 	ldr	r3, [r3]
c0101550:	e3822001 	orr	r2, r2, #1
c0101554:	e5832000 	str	r2, [r3]
c0101558:	e320f000 	nop	{0}
c010155c:	e3023008 	movw	r3, #8200	; 0x2008
c0101560:	e34c3010 	movt	r3, #49168	; 0xc010
c0101564:	e5933000 	ldr	r3, [r3]
c0101568:	e5933000 	ldr	r3, [r3]
c010156c:	e2033002 	and	r3, r3, #2
c0101570:	e3530000 	cmp	r3, #0
c0101574:	0afffff8 	beq	c010155c <Stm32mp157_clk_init+0x1a8>
c0101578:	e3023008 	movw	r3, #8200	; 0x2008
c010157c:	e34c3010 	movt	r3, #49168	; 0xc010
c0101580:	e5933000 	ldr	r3, [r3]
c0101584:	e5932000 	ldr	r2, [r3]
c0101588:	e3023008 	movw	r3, #8200	; 0x2008
c010158c:	e34c3010 	movt	r3, #49168	; 0xc010
c0101590:	e5933000 	ldr	r3, [r3]
c0101594:	e3822020 	orr	r2, r2, #32
c0101598:	e5832000 	str	r2, [r3]
c010159c:	e302300c 	movw	r3, #8204	; 0x200c
c01015a0:	e34c3010 	movt	r3, #49168	; 0xc010
c01015a4:	e5933000 	ldr	r3, [r3]
c01015a8:	e5932000 	ldr	r2, [r3]
c01015ac:	e302300c 	movw	r3, #8204	; 0x200c
c01015b0:	e34c3010 	movt	r3, #49168	; 0xc010
c01015b4:	e5933000 	ldr	r3, [r3]
c01015b8:	e3822f76 	orr	r2, r2, #472	; 0x1d8
c01015bc:	e5832000 	str	r2, [r3]
c01015c0:	e3023010 	movw	r3, #8208	; 0x2010
c01015c4:	e34c3010 	movt	r3, #49168	; 0xc010
c01015c8:	e5933000 	ldr	r3, [r3]
c01015cc:	e5932000 	ldr	r2, [r3]
c01015d0:	e3023010 	movw	r3, #8208	; 0x2010
c01015d4:	e34c3010 	movt	r3, #49168	; 0xc010
c01015d8:	e5933000 	ldr	r3, [r3]
c01015dc:	e3822001 	orr	r2, r2, #1
c01015e0:	e5832000 	str	r2, [r3]
c01015e4:	e320f000 	nop	{0}
c01015e8:	e28bd000 	add	sp, fp, #0
c01015ec:	e49db004 	pop	{fp}		; (ldr fp, [sp], #4)
c01015f0:	e12fff1e 	bx	lr

c01015f4 <Stm32mp157_lcd_io_init>:
c01015f4:	e52db004 	push	{fp}		; (str fp, [sp, #-4]!)
c01015f8:	e28db000 	add	fp, sp, #0
c01015fc:	e3022018 	movw	r2, #8216	; 0x2018
c0101600:	e34c2010 	movt	r2, #49168	; 0xc010
c0101604:	e3a03a05 	mov	r3, #20480	; 0x5000
c0101608:	e3453000 	movt	r3, #20480	; 0x5000
c010160c:	e5823000 	str	r3, [r2]
c0101610:	e3022014 	movw	r2, #8212	; 0x2014
c0101614:	e34c2010 	movt	r2, #49168	; 0xc010
c0101618:	e3053024 	movw	r3, #20516	; 0x5024
c010161c:	e3453000 	movt	r3, #20480	; 0x5000
c0101620:	e5823000 	str	r3, [r2]
c0101624:	e3022050 	movw	r2, #8272	; 0x2050
c0101628:	e34c2010 	movt	r2, #49168	; 0xc010
c010162c:	e3053008 	movw	r3, #20488	; 0x5008
c0101630:	e3453000 	movt	r3, #20480	; 0x5000
c0101634:	e5823000 	str	r3, [r2]
c0101638:	e3022024 	movw	r2, #8228	; 0x2024
c010163c:	e34c2010 	movt	r2, #49168	; 0xc010
c0101640:	e3a03a06 	mov	r3, #24576	; 0x6000
c0101644:	e3453000 	movt	r3, #20480	; 0x5000
c0101648:	e5823000 	str	r3, [r2]
c010164c:	e3022020 	movw	r2, #8224	; 0x2020
c0101650:	e34c2010 	movt	r2, #49168	; 0xc010
c0101654:	e3063024 	movw	r3, #24612	; 0x6024
c0101658:	e3453000 	movt	r3, #20480	; 0x5000
c010165c:	e5823000 	str	r3, [r2]
c0101660:	e302201c 	movw	r2, #8220	; 0x201c
c0101664:	e34c2010 	movt	r2, #49168	; 0xc010
c0101668:	e3063020 	movw	r3, #24608	; 0x6020
c010166c:	e3453000 	movt	r3, #20480	; 0x5000
c0101670:	e5823000 	str	r3, [r2]
c0101674:	e3022028 	movw	r2, #8232	; 0x2028
c0101678:	e34c2010 	movt	r2, #49168	; 0xc010
c010167c:	e3063014 	movw	r3, #24596	; 0x6014
c0101680:	e3453000 	movt	r3, #20480	; 0x5000
c0101684:	e5823000 	str	r3, [r2]
c0101688:	e3022054 	movw	r2, #8276	; 0x2054
c010168c:	e34c2010 	movt	r2, #49168	; 0xc010
c0101690:	e3063008 	movw	r3, #24584	; 0x6008
c0101694:	e3453000 	movt	r3, #20480	; 0x5000
c0101698:	e5823000 	str	r3, [r2]
c010169c:	e3022034 	movw	r2, #8244	; 0x2034
c01016a0:	e34c2010 	movt	r2, #49168	; 0xc010
c01016a4:	e3a03902 	mov	r3, #32768	; 0x8000
c01016a8:	e3453000 	movt	r3, #20480	; 0x5000
c01016ac:	e5823000 	str	r3, [r2]
c01016b0:	e302202c 	movw	r2, #8236	; 0x202c
c01016b4:	e34c2010 	movt	r2, #49168	; 0xc010
c01016b8:	e3083024 	movw	r3, #32804	; 0x8024
c01016bc:	e3453000 	movt	r3, #20480	; 0x5000
c01016c0:	e5823000 	str	r3, [r2]
c01016c4:	e3022030 	movw	r2, #8240	; 0x2030
c01016c8:	e34c2010 	movt	r2, #49168	; 0xc010
c01016cc:	e3083020 	movw	r3, #32800	; 0x8020
c01016d0:	e3453000 	movt	r3, #20480	; 0x5000
c01016d4:	e5823000 	str	r3, [r2]
c01016d8:	e3022058 	movw	r2, #8280	; 0x2058
c01016dc:	e34c2010 	movt	r2, #49168	; 0xc010
c01016e0:	e3083008 	movw	r3, #32776	; 0x8008
c01016e4:	e3453000 	movt	r3, #20480	; 0x5000
c01016e8:	e5823000 	str	r3, [r2]
c01016ec:	e3022040 	movw	r2, #8256	; 0x2040
c01016f0:	e34c2010 	movt	r2, #49168	; 0xc010
c01016f4:	e3a03a09 	mov	r3, #36864	; 0x9000
c01016f8:	e3453000 	movt	r3, #20480	; 0x5000
c01016fc:	e5823000 	str	r3, [r2]
c0101700:	e302203c 	movw	r2, #8252	; 0x203c
c0101704:	e34c2010 	movt	r2, #49168	; 0xc010
c0101708:	e3093024 	movw	r3, #36900	; 0x9024
c010170c:	e3453000 	movt	r3, #20480	; 0x5000
c0101710:	e5823000 	str	r3, [r2]
c0101714:	e3022038 	movw	r2, #8248	; 0x2038
c0101718:	e34c2010 	movt	r2, #49168	; 0xc010
c010171c:	e3093020 	movw	r3, #36896	; 0x9020
c0101720:	e3453000 	movt	r3, #20480	; 0x5000
c0101724:	e5823000 	str	r3, [r2]
c0101728:	e302205c 	movw	r2, #8284	; 0x205c
c010172c:	e34c2010 	movt	r2, #49168	; 0xc010
c0101730:	e3093008 	movw	r3, #36872	; 0x9008
c0101734:	e3453000 	movt	r3, #20480	; 0x5000
c0101738:	e5823000 	str	r3, [r2]
c010173c:	e302204c 	movw	r2, #8268	; 0x204c
c0101740:	e34c2010 	movt	r2, #49168	; 0xc010
c0101744:	e3a03a0a 	mov	r3, #40960	; 0xa000
c0101748:	e3453000 	movt	r3, #20480	; 0x5000
c010174c:	e5823000 	str	r3, [r2]
c0101750:	e3022048 	movw	r2, #8264	; 0x2048
c0101754:	e34c2010 	movt	r2, #49168	; 0xc010
c0101758:	e30a3024 	movw	r3, #40996	; 0xa024
c010175c:	e3453000 	movt	r3, #20480	; 0x5000
c0101760:	e5823000 	str	r3, [r2]
c0101764:	e3022044 	movw	r2, #8260	; 0x2044
c0101768:	e34c2010 	movt	r2, #49168	; 0xc010
c010176c:	e30a3020 	movw	r3, #40992	; 0xa020
c0101770:	e3453000 	movt	r3, #20480	; 0x5000
c0101774:	e5823000 	str	r3, [r2]
c0101778:	e3022060 	movw	r2, #8288	; 0x2060
c010177c:	e34c2010 	movt	r2, #49168	; 0xc010
c0101780:	e30a3008 	movw	r3, #40968	; 0xa008
c0101784:	e3453000 	movt	r3, #20480	; 0x5000
c0101788:	e5823000 	str	r3, [r2]
c010178c:	e3023050 	movw	r3, #8272	; 0x2050
c0101790:	e34c3010 	movt	r3, #49168	; 0xc010
c0101794:	e5933000 	ldr	r3, [r3]
c0101798:	e3e02000 	mvn	r2, #0
c010179c:	e5832000 	str	r2, [r3]
c01017a0:	e3023054 	movw	r3, #8276	; 0x2054
c01017a4:	e34c3010 	movt	r3, #49168	; 0xc010
c01017a8:	e5933000 	ldr	r3, [r3]
c01017ac:	e3e02000 	mvn	r2, #0
c01017b0:	e5832000 	str	r2, [r3]
c01017b4:	e3023058 	movw	r3, #8280	; 0x2058
c01017b8:	e34c3010 	movt	r3, #49168	; 0xc010
c01017bc:	e5933000 	ldr	r3, [r3]
c01017c0:	e3e02000 	mvn	r2, #0
c01017c4:	e5832000 	str	r2, [r3]
c01017c8:	e302305c 	movw	r3, #8284	; 0x205c
c01017cc:	e34c3010 	movt	r3, #49168	; 0xc010
c01017d0:	e5933000 	ldr	r3, [r3]
c01017d4:	e3e02000 	mvn	r2, #0
c01017d8:	e5832000 	str	r2, [r3]
c01017dc:	e3023060 	movw	r3, #8288	; 0x2060
c01017e0:	e34c3010 	movt	r3, #49168	; 0xc010
c01017e4:	e5933000 	ldr	r3, [r3]
c01017e8:	e3e02000 	mvn	r2, #0
c01017ec:	e5832000 	str	r2, [r3]
c01017f0:	e3023018 	movw	r3, #8216	; 0x2018
c01017f4:	e34c3010 	movt	r3, #49168	; 0xc010
c01017f8:	e5933000 	ldr	r3, [r3]
c01017fc:	e3a02602 	mov	r2, #2097152	; 0x200000
c0101800:	e5832000 	str	r2, [r3]
c0101804:	e3023014 	movw	r3, #8212	; 0x2014
c0101808:	e34c3010 	movt	r3, #49168	; 0xc010
c010180c:	e5933000 	ldr	r3, [r3]
c0101810:	e3a02c0e 	mov	r2, #3584	; 0xe00
c0101814:	e5832000 	str	r2, [r3]
c0101818:	e3023024 	movw	r3, #8228	; 0x2024
c010181c:	e34c3010 	movt	r3, #49168	; 0xc010
c0101820:	e5932000 	ldr	r2, [r3]
c0101824:	e3a03a02 	mov	r3, #8192	; 0x2000
c0101828:	e34a3800 	movt	r3, #43008	; 0xa800
c010182c:	e5823000 	str	r3, [r2]
c0101830:	e3023020 	movw	r3, #8224	; 0x2020
c0101834:	e34c3010 	movt	r3, #49168	; 0xc010
c0101838:	e5932000 	ldr	r2, [r3]
c010183c:	e3a03000 	mov	r3, #0
c0101840:	e34e3ee0 	movt	r3, #61152	; 0xeee0
c0101844:	e5823000 	str	r3, [r2]
c0101848:	e302301c 	movw	r3, #8220	; 0x201c
c010184c:	e34c3010 	movt	r3, #49168	; 0xc010
c0101850:	e5933000 	ldr	r3, [r3]
c0101854:	e3a0240e 	mov	r2, #234881024	; 0xe000000
c0101858:	e5832000 	str	r2, [r3]
c010185c:	e3023034 	movw	r3, #8244	; 0x2034
c0101860:	e34c3010 	movt	r3, #49168	; 0xc010
c0101864:	e5932000 	ldr	r2, [r3]
c0101868:	e3a03902 	mov	r3, #32768	; 0x8000
c010186c:	e3403220 	movt	r3, #544	; 0x220
c0101870:	e5823000 	str	r3, [r2]
c0101874:	e302302c 	movw	r3, #8236	; 0x202c
c0101878:	e34c3010 	movt	r3, #49168	; 0xc010
c010187c:	e5932000 	ldr	r2, [r3]
c0101880:	e3a03c0e 	mov	r3, #3584	; 0xe00
c0101884:	e340300e 	movt	r3, #14
c0101888:	e5823000 	str	r3, [r2]
c010188c:	e3023030 	movw	r3, #8240	; 0x2030
c0101890:	e34c3010 	movt	r3, #49168	; 0xc010
c0101894:	e5933000 	ldr	r3, [r3]
c0101898:	e3a0220e 	mov	r2, #-536870912	; 0xe0000000
c010189c:	e5832000 	str	r2, [r3]
c01018a0:	e3023040 	movw	r3, #8256	; 0x2040
c01018a4:	e34c3010 	movt	r3, #49168	; 0xc010
c01018a8:	e5932000 	ldr	r2, [r3]
c01018ac:	e3a030a0 	mov	r3, #160	; 0xa0
c01018b0:	e34a3aaa 	movt	r3, #43690	; 0xaaaa
c01018b4:	e5823000 	str	r3, [r2]
c01018b8:	e302303c 	movw	r3, #8252	; 0x203c
c01018bc:	e34c3010 	movt	r3, #49168	; 0xc010
c01018c0:	e5932000 	ldr	r2, [r3]
c01018c4:	e30e3eee 	movw	r3, #61166	; 0xeeee
c01018c8:	e34e3eee 	movt	r3, #61166	; 0xeeee
c01018cc:	e5823000 	str	r3, [r2]
c01018d0:	e3023038 	movw	r3, #8248	; 0x2038
c01018d4:	e34c3010 	movt	r3, #49168	; 0xc010
c01018d8:	e5933000 	ldr	r3, [r3]
c01018dc:	e3a02cee 	mov	r2, #60928	; 0xee00
c01018e0:	e5832000 	str	r2, [r3]
c01018e4:	e302304c 	movw	r3, #8268	; 0x204c
c01018e8:	e34c3010 	movt	r3, #49168	; 0xc010
c01018ec:	e5932000 	ldr	r2, [r3]
c01018f0:	e30a3a2a 	movw	r3, #43562	; 0xaa2a
c01018f4:	e3403028 	movt	r3, #40	; 0x28
c01018f8:	e5823000 	str	r3, [r2]
c01018fc:	e3023048 	movw	r3, #8264	; 0x2048
c0101900:	e34c3010 	movt	r3, #49168	; 0xc010
c0101904:	e5933000 	ldr	r3, [r3]
c0101908:	e3a02eee 	mov	r2, #3808	; 0xee0
c010190c:	e5832000 	str	r2, [r3]
c0101910:	e3023044 	movw	r3, #8260	; 0x2044
c0101914:	e34c3010 	movt	r3, #49168	; 0xc010
c0101918:	e5932000 	ldr	r2, [r3]
c010191c:	e3003eee 	movw	r3, #3822	; 0xeee
c0101920:	e34e3eee 	movt	r3, #61166	; 0xeeee
c0101924:	e5823000 	str	r3, [r2]
c0101928:	e3023024 	movw	r3, #8228	; 0x2024
c010192c:	e34c3010 	movt	r3, #49168	; 0xc010
c0101930:	e5933000 	ldr	r3, [r3]
c0101934:	e5932000 	ldr	r2, [r3]
c0101938:	e3023024 	movw	r3, #8228	; 0x2024
c010193c:	e34c3010 	movt	r3, #49168	; 0xc010
c0101940:	e5933000 	ldr	r3, [r3]
c0101944:	e3c22503 	bic	r2, r2, #12582912	; 0xc00000
c0101948:	e5832000 	str	r2, [r3]
c010194c:	e3023024 	movw	r3, #8228	; 0x2024
c0101950:	e34c3010 	movt	r3, #49168	; 0xc010
c0101954:	e5933000 	ldr	r3, [r3]
c0101958:	e5932000 	ldr	r2, [r3]
c010195c:	e3023024 	movw	r3, #8228	; 0x2024
c0101960:	e34c3010 	movt	r3, #49168	; 0xc010
c0101964:	e5933000 	ldr	r3, [r3]
c0101968:	e3822501 	orr	r2, r2, #4194304	; 0x400000
c010196c:	e5832000 	str	r2, [r3]
c0101970:	e320f000 	nop	{0}
c0101974:	e28bd000 	add	sp, fp, #0
c0101978:	e49db004 	pop	{fp}		; (ldr fp, [sp], #4)
c010197c:	e12fff1e 	bx	lr

c0101980 <Stm32mp157_lcd_controller_init>:
c0101980:	e92d4800 	push	{fp, lr}
c0101984:	e28db004 	add	fp, sp, #4
c0101988:	e24dd010 	sub	sp, sp, #16
c010198c:	e50b0010 	str	r0, [fp, #-16]
c0101990:	ebfffe87 	bl	c01013b4 <Stm32mp157_clk_init>
c0101994:	ebffff16 	bl	c01015f4 <Stm32mp157_lcd_io_init>
c0101998:	e51b3010 	ldr	r3, [fp, #-16]
c010199c:	e5932014 	ldr	r2, [r3, #20]
c01019a0:	e51b3010 	ldr	r3, [fp, #-16]
c01019a4:	e5933020 	ldr	r3, [r3, #32]
c01019a8:	e1a03803 	lsl	r3, r3, #16
c01019ac:	e1822003 	orr	r2, r2, r3
c01019b0:	e3a03a01 	mov	r3, #4096	; 0x1000
c01019b4:	e3453a00 	movt	r3, #23040	; 0x5a00
c01019b8:	e5832008 	str	r2, [r3, #8]
c01019bc:	e3a03a01 	mov	r3, #4096	; 0x1000
c01019c0:	e3453a00 	movt	r3, #23040	; 0x5a00
c01019c4:	e3a02000 	mov	r2, #0
c01019c8:	e583200c 	str	r2, [r3, #12]
c01019cc:	e3a03a01 	mov	r3, #4096	; 0x1000
c01019d0:	e3453a00 	movt	r3, #23040	; 0x5a00
c01019d4:	e593200c 	ldr	r2, [r3, #12]
c01019d8:	e51b3010 	ldr	r3, [fp, #-16]
c01019dc:	e5931014 	ldr	r1, [r3, #20]
c01019e0:	e51b3010 	ldr	r3, [fp, #-16]
c01019e4:	e5933018 	ldr	r3, [r3, #24]
c01019e8:	e0813003 	add	r3, r1, r3
c01019ec:	e2433001 	sub	r3, r3, #1
c01019f0:	e1a01003 	mov	r1, r3
c01019f4:	e3a03a01 	mov	r3, #4096	; 0x1000
c01019f8:	e3453a00 	movt	r3, #23040	; 0x5a00
c01019fc:	e1822001 	orr	r2, r2, r1
c0101a00:	e583200c 	str	r2, [r3, #12]
c0101a04:	e3a03a01 	mov	r3, #4096	; 0x1000
c0101a08:	e3453a00 	movt	r3, #23040	; 0x5a00
c0101a0c:	e593200c 	ldr	r2, [r3, #12]
c0101a10:	e51b3010 	ldr	r3, [fp, #-16]
c0101a14:	e5931020 	ldr	r1, [r3, #32]
c0101a18:	e51b3010 	ldr	r3, [fp, #-16]
c0101a1c:	e5933024 	ldr	r3, [r3, #36]	; 0x24
c0101a20:	e0813003 	add	r3, r1, r3
c0101a24:	e2433001 	sub	r3, r3, #1
c0101a28:	e1a03803 	lsl	r3, r3, #16
c0101a2c:	e1a01003 	mov	r1, r3
c0101a30:	e3a03a01 	mov	r3, #4096	; 0x1000
c0101a34:	e3453a00 	movt	r3, #23040	; 0x5a00
c0101a38:	e1822001 	orr	r2, r2, r1
c0101a3c:	e583200c 	str	r2, [r3, #12]
c0101a40:	e3a03a01 	mov	r3, #4096	; 0x1000
c0101a44:	e3453a00 	movt	r3, #23040	; 0x5a00
c0101a48:	e3a02000 	mov	r2, #0
c0101a4c:	e5832010 	str	r2, [r3, #16]
c0101a50:	e3a03a01 	mov	r3, #4096	; 0x1000
c0101a54:	e3453a00 	movt	r3, #23040	; 0x5a00
c0101a58:	e5932010 	ldr	r2, [r3, #16]
c0101a5c:	e51b3010 	ldr	r3, [fp, #-16]
c0101a60:	e5931014 	ldr	r1, [r3, #20]
c0101a64:	e51b3010 	ldr	r3, [fp, #-16]
c0101a68:	e5933018 	ldr	r3, [r3, #24]
c0101a6c:	e0811003 	add	r1, r1, r3
c0101a70:	e51b3010 	ldr	r3, [fp, #-16]
c0101a74:	e5933034 	ldr	r3, [r3, #52]	; 0x34
c0101a78:	e0813003 	add	r3, r1, r3
c0101a7c:	e2433001 	sub	r3, r3, #1
c0101a80:	e1a01003 	mov	r1, r3
c0101a84:	e3a03a01 	mov	r3, #4096	; 0x1000
c0101a88:	e3453a00 	movt	r3, #23040	; 0x5a00
c0101a8c:	e1822001 	orr	r2, r2, r1
c0101a90:	e5832010 	str	r2, [r3, #16]
c0101a94:	e3a03a01 	mov	r3, #4096	; 0x1000
c0101a98:	e3453a00 	movt	r3, #23040	; 0x5a00
c0101a9c:	e5932010 	ldr	r2, [r3, #16]
c0101aa0:	e51b3010 	ldr	r3, [fp, #-16]
c0101aa4:	e5931020 	ldr	r1, [r3, #32]
c0101aa8:	e51b3010 	ldr	r3, [fp, #-16]
c0101aac:	e5933024 	ldr	r3, [r3, #36]	; 0x24
c0101ab0:	e0811003 	add	r1, r1, r3
c0101ab4:	e51b3010 	ldr	r3, [fp, #-16]
c0101ab8:	e5933030 	ldr	r3, [r3, #48]	; 0x30
c0101abc:	e0813003 	add	r3, r1, r3
c0101ac0:	e2433001 	sub	r3, r3, #1
c0101ac4:	e1a03803 	lsl	r3, r3, #16
c0101ac8:	e1a01003 	mov	r1, r3
c0101acc:	e3a03a01 	mov	r3, #4096	; 0x1000
c0101ad0:	e3453a00 	movt	r3, #23040	; 0x5a00
c0101ad4:	e1822001 	orr	r2, r2, r1
c0101ad8:	e5832010 	str	r2, [r3, #16]
c0101adc:	e3a03a01 	mov	r3, #4096	; 0x1000
c0101ae0:	e3453a00 	movt	r3, #23040	; 0x5a00
c0101ae4:	e3a02000 	mov	r2, #0
c0101ae8:	e5832014 	str	r2, [r3, #20]
c0101aec:	e3a03a01 	mov	r3, #4096	; 0x1000
c0101af0:	e3453a00 	movt	r3, #23040	; 0x5a00
c0101af4:	e5932014 	ldr	r2, [r3, #20]
c0101af8:	e51b3010 	ldr	r3, [fp, #-16]
c0101afc:	e5931014 	ldr	r1, [r3, #20]
c0101b00:	e51b3010 	ldr	r3, [fp, #-16]
c0101b04:	e5933018 	ldr	r3, [r3, #24]
c0101b08:	e0811003 	add	r1, r1, r3
c0101b0c:	e51b3010 	ldr	r3, [fp, #-16]
c0101b10:	e5933034 	ldr	r3, [r3, #52]	; 0x34
c0101b14:	e0811003 	add	r1, r1, r3
c0101b18:	e51b3010 	ldr	r3, [fp, #-16]
c0101b1c:	e593301c 	ldr	r3, [r3, #28]
c0101b20:	e0813003 	add	r3, r1, r3
c0101b24:	e2433001 	sub	r3, r3, #1
c0101b28:	e1a01003 	mov	r1, r3
c0101b2c:	e3a03a01 	mov	r3, #4096	; 0x1000
c0101b30:	e3453a00 	movt	r3, #23040	; 0x5a00
c0101b34:	e1822001 	orr	r2, r2, r1
c0101b38:	e5832014 	str	r2, [r3, #20]
c0101b3c:	e3a03a01 	mov	r3, #4096	; 0x1000
c0101b40:	e3453a00 	movt	r3, #23040	; 0x5a00
c0101b44:	e5932014 	ldr	r2, [r3, #20]
c0101b48:	e51b3010 	ldr	r3, [fp, #-16]
c0101b4c:	e5931020 	ldr	r1, [r3, #32]
c0101b50:	e51b3010 	ldr	r3, [fp, #-16]
c0101b54:	e5933024 	ldr	r3, [r3, #36]	; 0x24
c0101b58:	e0811003 	add	r1, r1, r3
c0101b5c:	e51b3010 	ldr	r3, [fp, #-16]
c0101b60:	e5933030 	ldr	r3, [r3, #48]	; 0x30
c0101b64:	e0811003 	add	r1, r1, r3
c0101b68:	e51b3010 	ldr	r3, [fp, #-16]
c0101b6c:	e5933028 	ldr	r3, [r3, #40]	; 0x28
c0101b70:	e0813003 	add	r3, r1, r3
c0101b74:	e2433001 	sub	r3, r3, #1
c0101b78:	e1a03803 	lsl	r3, r3, #16
c0101b7c:	e1a01003 	mov	r1, r3
c0101b80:	e3a03a01 	mov	r3, #4096	; 0x1000
c0101b84:	e3453a00 	movt	r3, #23040	; 0x5a00
c0101b88:	e1822001 	orr	r2, r2, r1
c0101b8c:	e5832014 	str	r2, [r3, #20]
c0101b90:	e3a03a01 	mov	r3, #4096	; 0x1000
c0101b94:	e3453a00 	movt	r3, #23040	; 0x5a00
c0101b98:	e5932018 	ldr	r2, [r3, #24]
c0101b9c:	e3a03a01 	mov	r3, #4096	; 0x1000
c0101ba0:	e3453a00 	movt	r3, #23040	; 0x5a00
c0101ba4:	e3c2220f 	bic	r2, r2, #-268435456	; 0xf0000000
c0101ba8:	e5832018 	str	r2, [r3, #24]
c0101bac:	e3a03a01 	mov	r3, #4096	; 0x1000
c0101bb0:	e3453a00 	movt	r3, #23040	; 0x5a00
c0101bb4:	e5932018 	ldr	r2, [r3, #24]
c0101bb8:	e51b3010 	ldr	r3, [fp, #-16]
c0101bbc:	e5933008 	ldr	r3, [r3, #8]
c0101bc0:	e1a03e03 	lsl	r3, r3, #28
c0101bc4:	e1a01003 	mov	r1, r3
c0101bc8:	e3a03a01 	mov	r3, #4096	; 0x1000
c0101bcc:	e3453a00 	movt	r3, #23040	; 0x5a00
c0101bd0:	e1822001 	orr	r2, r2, r1
c0101bd4:	e5832018 	str	r2, [r3, #24]
c0101bd8:	e3a03a01 	mov	r3, #4096	; 0x1000
c0101bdc:	e3453a00 	movt	r3, #23040	; 0x5a00
c0101be0:	e5932018 	ldr	r2, [r3, #24]
c0101be4:	e51b3010 	ldr	r3, [fp, #-16]
c0101be8:	e5933004 	ldr	r3, [r3, #4]
c0101bec:	e1a03e83 	lsl	r3, r3, #29
c0101bf0:	e1a01003 	mov	r1, r3
c0101bf4:	e3a03a01 	mov	r3, #4096	; 0x1000
c0101bf8:	e3453a00 	movt	r3, #23040	; 0x5a00
c0101bfc:	e1822001 	orr	r2, r2, r1
c0101c00:	e5832018 	str	r2, [r3, #24]
c0101c04:	e3a03a01 	mov	r3, #4096	; 0x1000
c0101c08:	e3453a00 	movt	r3, #23040	; 0x5a00
c0101c0c:	e5932018 	ldr	r2, [r3, #24]
c0101c10:	e51b3010 	ldr	r3, [fp, #-16]
c0101c14:	e5933010 	ldr	r3, [r3, #16]
c0101c18:	e1a03f03 	lsl	r3, r3, #30
c0101c1c:	e1a01003 	mov	r1, r3
c0101c20:	e3a03a01 	mov	r3, #4096	; 0x1000
c0101c24:	e3453a00 	movt	r3, #23040	; 0x5a00
c0101c28:	e1822001 	orr	r2, r2, r1
c0101c2c:	e5832018 	str	r2, [r3, #24]
c0101c30:	e3a03a01 	mov	r3, #4096	; 0x1000
c0101c34:	e3453a00 	movt	r3, #23040	; 0x5a00
c0101c38:	e5932018 	ldr	r2, [r3, #24]
c0101c3c:	e51b3010 	ldr	r3, [fp, #-16]
c0101c40:	e593300c 	ldr	r3, [r3, #12]
c0101c44:	e1a03f83 	lsl	r3, r3, #31
c0101c48:	e1a01003 	mov	r1, r3
c0101c4c:	e3a03a01 	mov	r3, #4096	; 0x1000
c0101c50:	e3453a00 	movt	r3, #23040	; 0x5a00
c0101c54:	e1822001 	orr	r2, r2, r1
c0101c58:	e5832018 	str	r2, [r3, #24]
c0101c5c:	e3a03a01 	mov	r3, #4096	; 0x1000
c0101c60:	e3453a00 	movt	r3, #23040	; 0x5a00
c0101c64:	e5932088 	ldr	r2, [r3, #136]	; 0x88
c0101c68:	e51b3010 	ldr	r3, [fp, #-16]
c0101c6c:	e5931020 	ldr	r1, [r3, #32]
c0101c70:	e51b3010 	ldr	r3, [fp, #-16]
c0101c74:	e5933024 	ldr	r3, [r3, #36]	; 0x24
c0101c78:	e0811003 	add	r1, r1, r3
c0101c7c:	e51b3010 	ldr	r3, [fp, #-16]
c0101c80:	e5933030 	ldr	r3, [r3, #48]	; 0x30
c0101c84:	e0813003 	add	r3, r1, r3
c0101c88:	e2433001 	sub	r3, r3, #1
c0101c8c:	e1a01803 	lsl	r1, r3, #16
c0101c90:	e51b3010 	ldr	r3, [fp, #-16]
c0101c94:	e5930020 	ldr	r0, [r3, #32]
c0101c98:	e51b3010 	ldr	r3, [fp, #-16]
c0101c9c:	e5933024 	ldr	r3, [r3, #36]	; 0x24
c0101ca0:	e0803003 	add	r3, r0, r3
c0101ca4:	e1813003 	orr	r3, r1, r3
c0101ca8:	e1a01003 	mov	r1, r3
c0101cac:	e3a03a01 	mov	r3, #4096	; 0x1000
c0101cb0:	e3453a00 	movt	r3, #23040	; 0x5a00
c0101cb4:	e1822001 	orr	r2, r2, r1
c0101cb8:	e5832088 	str	r2, [r3, #136]	; 0x88
c0101cbc:	e3a03a01 	mov	r3, #4096	; 0x1000
c0101cc0:	e3453a00 	movt	r3, #23040	; 0x5a00
c0101cc4:	e593208c 	ldr	r2, [r3, #140]	; 0x8c
c0101cc8:	e51b3010 	ldr	r3, [fp, #-16]
c0101ccc:	e5931014 	ldr	r1, [r3, #20]
c0101cd0:	e51b3010 	ldr	r3, [fp, #-16]
c0101cd4:	e5933018 	ldr	r3, [r3, #24]
c0101cd8:	e0811003 	add	r1, r1, r3
c0101cdc:	e51b3010 	ldr	r3, [fp, #-16]
c0101ce0:	e5933034 	ldr	r3, [r3, #52]	; 0x34
c0101ce4:	e0813003 	add	r3, r1, r3
c0101ce8:	e2433001 	sub	r3, r3, #1
c0101cec:	e1a01803 	lsl	r1, r3, #16
c0101cf0:	e51b3010 	ldr	r3, [fp, #-16]
c0101cf4:	e5930014 	ldr	r0, [r3, #20]
c0101cf8:	e51b3010 	ldr	r3, [fp, #-16]
c0101cfc:	e5933018 	ldr	r3, [r3, #24]
c0101d00:	e0803003 	add	r3, r0, r3
c0101d04:	e1813003 	orr	r3, r1, r3
c0101d08:	e1a01003 	mov	r1, r3
c0101d0c:	e3a03a01 	mov	r3, #4096	; 0x1000
c0101d10:	e3453a00 	movt	r3, #23040	; 0x5a00
c0101d14:	e1822001 	orr	r2, r2, r1
c0101d18:	e583208c 	str	r2, [r3, #140]	; 0x8c
c0101d1c:	e51b3010 	ldr	r3, [fp, #-16]
c0101d20:	e5933030 	ldr	r3, [r3, #48]	; 0x30
c0101d24:	e51b2010 	ldr	r2, [fp, #-16]
c0101d28:	e5922038 	ldr	r2, [r2, #56]	; 0x38
c0101d2c:	e1a021c2 	asr	r2, r2, #3
c0101d30:	e0030392 	mul	r3, r2, r3
c0101d34:	e2832007 	add	r2, r3, #7
c0101d38:	e51b3010 	ldr	r3, [fp, #-16]
c0101d3c:	e5933030 	ldr	r3, [r3, #48]	; 0x30
c0101d40:	e51b1010 	ldr	r1, [fp, #-16]
c0101d44:	e5911038 	ldr	r1, [r1, #56]	; 0x38
c0101d48:	e1a011c1 	asr	r1, r1, #3
c0101d4c:	e0030391 	mul	r3, r1, r3
c0101d50:	e1a03803 	lsl	r3, r3, #16
c0101d54:	e1822003 	orr	r2, r2, r3
c0101d58:	e3a03a01 	mov	r3, #4096	; 0x1000
c0101d5c:	e3453a00 	movt	r3, #23040	; 0x5a00
c0101d60:	e58320b0 	str	r2, [r3, #176]	; 0xb0
c0101d64:	e51b3010 	ldr	r3, [fp, #-16]
c0101d68:	e5932034 	ldr	r2, [r3, #52]	; 0x34
c0101d6c:	e3a03a01 	mov	r3, #4096	; 0x1000
c0101d70:	e3453a00 	movt	r3, #23040	; 0x5a00
c0101d74:	e58320b4 	str	r2, [r3, #180]	; 0xb4
c0101d78:	e3a03a01 	mov	r3, #4096	; 0x1000
c0101d7c:	e3453a00 	movt	r3, #23040	; 0x5a00
c0101d80:	e3a020ff 	mov	r2, #255	; 0xff
c0101d84:	e5832098 	str	r2, [r3, #152]	; 0x98
c0101d88:	e3a03a01 	mov	r3, #4096	; 0x1000
c0101d8c:	e3453a00 	movt	r3, #23040	; 0x5a00
c0101d90:	e3002405 	movw	r2, #1029	; 0x405
c0101d94:	e58320a0 	str	r2, [r3, #160]	; 0xa0
c0101d98:	e51b3010 	ldr	r3, [fp, #-16]
c0101d9c:	e5933038 	ldr	r3, [r3, #56]	; 0x38
c0101da0:	e3530010 	cmp	r3, #16
c0101da4:	0a000002 	beq	c0101db4 <Stm32mp157_lcd_controller_init+0x434>
c0101da8:	e3530020 	cmp	r3, #32
c0101dac:	0a000003 	beq	c0101dc0 <Stm32mp157_lcd_controller_init+0x440>
c0101db0:	ea000005 	b	c0101dcc <Stm32mp157_lcd_controller_init+0x44c>
c0101db4:	e3a03002 	mov	r3, #2
c0101db8:	e50b3008 	str	r3, [fp, #-8]
c0101dbc:	ea000005 	b	c0101dd8 <Stm32mp157_lcd_controller_init+0x458>
c0101dc0:	e3a03000 	mov	r3, #0
c0101dc4:	e50b3008 	str	r3, [fp, #-8]
c0101dc8:	ea000002 	b	c0101dd8 <Stm32mp157_lcd_controller_init+0x458>
c0101dcc:	e3a03000 	mov	r3, #0
c0101dd0:	e50b3008 	str	r3, [fp, #-8]
c0101dd4:	e320f000 	nop	{0}
c0101dd8:	e3a03a01 	mov	r3, #4096	; 0x1000
c0101ddc:	e3453a00 	movt	r3, #23040	; 0x5a00
c0101de0:	e3a02000 	mov	r2, #0
c0101de4:	e5832094 	str	r2, [r3, #148]	; 0x94
c0101de8:	e3a03a01 	mov	r3, #4096	; 0x1000
c0101dec:	e3453a00 	movt	r3, #23040	; 0x5a00
c0101df0:	e5931094 	ldr	r1, [r3, #148]	; 0x94
c0101df4:	e51b2008 	ldr	r2, [fp, #-8]
c0101df8:	e3a03a01 	mov	r3, #4096	; 0x1000
c0101dfc:	e3453a00 	movt	r3, #23040	; 0x5a00
c0101e00:	e1812002 	orr	r2, r1, r2
c0101e04:	e5832094 	str	r2, [r3, #148]	; 0x94
c0101e08:	e3a03a01 	mov	r3, #4096	; 0x1000
c0101e0c:	e3453a00 	movt	r3, #23040	; 0x5a00
c0101e10:	e51b2010 	ldr	r2, [fp, #-16]
c0101e14:	e592203c 	ldr	r2, [r2, #60]	; 0x3c
c0101e18:	e58320ac 	str	r2, [r3, #172]	; 0xac
c0101e1c:	e3a03a01 	mov	r3, #4096	; 0x1000
c0101e20:	e3453a00 	movt	r3, #23040	; 0x5a00
c0101e24:	e5932084 	ldr	r2, [r3, #132]	; 0x84
c0101e28:	e3a03a01 	mov	r3, #4096	; 0x1000
c0101e2c:	e3453a00 	movt	r3, #23040	; 0x5a00
c0101e30:	e3822001 	orr	r2, r2, #1
c0101e34:	e5832084 	str	r2, [r3, #132]	; 0x84
c0101e38:	e320f000 	nop	{0}
c0101e3c:	e24bd004 	sub	sp, fp, #4
c0101e40:	e8bd8800 	pop	{fp, pc}

c0101e44 <Stm32mp157_lcd_controller_enable>:
c0101e44:	e52db004 	push	{fp}		; (str fp, [sp, #-4]!)
c0101e48:	e28db000 	add	fp, sp, #0
c0101e4c:	e3a03a01 	mov	r3, #4096	; 0x1000
c0101e50:	e3453a00 	movt	r3, #23040	; 0x5a00
c0101e54:	e5932024 	ldr	r2, [r3, #36]	; 0x24
c0101e58:	e3a03a01 	mov	r3, #4096	; 0x1000
c0101e5c:	e3453a00 	movt	r3, #23040	; 0x5a00
c0101e60:	e3822001 	orr	r2, r2, #1
c0101e64:	e5832024 	str	r2, [r3, #36]	; 0x24
c0101e68:	e3a03a01 	mov	r3, #4096	; 0x1000
c0101e6c:	e3453a00 	movt	r3, #23040	; 0x5a00
c0101e70:	e5932018 	ldr	r2, [r3, #24]
c0101e74:	e3a03a01 	mov	r3, #4096	; 0x1000
c0101e78:	e3453a00 	movt	r3, #23040	; 0x5a00
c0101e7c:	e3822001 	orr	r2, r2, #1
c0101e80:	e5832018 	str	r2, [r3, #24]
c0101e84:	e3023028 	movw	r3, #8232	; 0x2028
c0101e88:	e34c3010 	movt	r3, #49168	; 0xc010
c0101e8c:	e5933000 	ldr	r3, [r3]
c0101e90:	e5932000 	ldr	r2, [r3]
c0101e94:	e3023028 	movw	r3, #8232	; 0x2028
c0101e98:	e34c3010 	movt	r3, #49168	; 0xc010
c0101e9c:	e5933000 	ldr	r3, [r3]
c0101ea0:	e3822b02 	orr	r2, r2, #2048	; 0x800
c0101ea4:	e5832000 	str	r2, [r3]
c0101ea8:	e320f000 	nop	{0}
c0101eac:	e28bd000 	add	sp, fp, #0
c0101eb0:	e49db004 	pop	{fp}		; (ldr fp, [sp], #4)
c0101eb4:	e12fff1e 	bx	lr

c0101eb8 <Stm32mp157_lcd_controller_disable>:
c0101eb8:	e52db004 	push	{fp}		; (str fp, [sp, #-4]!)
c0101ebc:	e28db000 	add	fp, sp, #0
c0101ec0:	e3a03a01 	mov	r3, #4096	; 0x1000
c0101ec4:	e3453a00 	movt	r3, #23040	; 0x5a00
c0101ec8:	e5932018 	ldr	r2, [r3, #24]
c0101ecc:	e3a03a01 	mov	r3, #4096	; 0x1000
c0101ed0:	e3453a00 	movt	r3, #23040	; 0x5a00
c0101ed4:	e3c22001 	bic	r2, r2, #1
c0101ed8:	e5832018 	str	r2, [r3, #24]
c0101edc:	e3023028 	movw	r3, #8232	; 0x2028
c0101ee0:	e34c3010 	movt	r3, #49168	; 0xc010
c0101ee4:	e5933000 	ldr	r3, [r3]
c0101ee8:	e5932000 	ldr	r2, [r3]
c0101eec:	e3023028 	movw	r3, #8232	; 0x2028
c0101ef0:	e34c3010 	movt	r3, #49168	; 0xc010
c0101ef4:	e5933000 	ldr	r3, [r3]
c0101ef8:	e3c22b02 	bic	r2, r2, #2048	; 0x800
c0101efc:	e5832000 	str	r2, [r3]
c0101f00:	e320f000 	nop	{0}
c0101f04:	e28bd000 	add	sp, fp, #0
c0101f08:	e49db004 	pop	{fp}		; (ldr fp, [sp], #4)
c0101f0c:	e12fff1e 	bx	lr

c0101f10 <Stm32mp157_lcd_controller_add>:
c0101f10:	e92d4800 	push	{fp, lr}
c0101f14:	e28db004 	add	fp, sp, #4
c0101f18:	e3010f94 	movw	r0, #8084	; 0x1f94
c0101f1c:	e34c0010 	movt	r0, #49168	; 0xc010
c0101f20:	ebfffc06 	bl	c0100f40 <register_lcd_controller>
c0101f24:	e320f000 	nop	{0}
c0101f28:	e8bd8800 	pop	{fp, pc}

Disassembly of section .rodata:

c0101f2c <.LC0>:
c0101f2c:	336d7453 	cmncc	sp, #1392508928	; 0x53000000
c0101f30:	31706d32 	cmncc	r0, r2, lsr sp
c0101f34:	00003735 	andeq	r3, r0, r5, lsr r7

c0101f38 <.LC1>:
c0101f38:	5f64636c 	svcpl	0x0064636c
c0101f3c:	00302e37 	eorseq	r2, r0, r7, lsr lr
c0101f40:	5f64636c 	svcpl	0x0064636c
c0101f44:	00302e37 	eorseq	r2, r0, r7, lsr lr
c0101f48:	336d7453 	cmncc	sp, #1392508928	; 0x53000000
c0101f4c:	31706d32 	cmncc	r0, r2, lsr sp
c0101f50:	Address 0x00000000c0101f50 is out of bounds.


Disassembly of section .data:

c0101f54 <lcd_7_0_params>:
c0101f54:	c0101f40 	andsgt	r1, r0, r0, asr #30
c0101f58:	00000001 	andeq	r0, r0, r1
c0101f5c:	00000001 	andeq	r0, r0, r1
	...
c0101f68:	00000003 	andeq	r0, r0, r3
c0101f6c:	00000014 	andeq	r0, r0, r4, lsl r0
c0101f70:	0000000c 	andeq	r0, r0, ip
c0101f74:	00000014 	andeq	r0, r0, r4, lsl r0
c0101f78:	0000008c 	andeq	r0, r0, ip, lsl #1
c0101f7c:	000000a0 	andeq	r0, r0, r0, lsr #1
c0101f80:	00000033 	andeq	r0, r0, r3, lsr r0
c0101f84:	00000400 	andeq	r0, r0, r0, lsl #8
c0101f88:	00000258 	andeq	r0, r0, r8, asr r2
c0101f8c:	00000020 	andeq	r0, r0, r0, lsr #32
c0101f90:	df000000 	svcle	0x00000000

c0101f94 <Stm32mp157_lcd_controller>:
c0101f94:	c0101f48 	andsgt	r1, r0, r8, asr #30
c0101f98:	c0101980 	andsgt	r1, r0, r0, lsl #19
c0101f9c:	c0101e44 	andsgt	r1, r0, r4, asr #28
c0101fa0:	c0101eb8 			; <UNDEFINED> instruction: 0xc0101eb8

Disassembly of section .bss:

c0101fa4 <__bss_start>:
c0101fa4:	00000000 	andeq	r0, r0, r0

c0101fa8 <xres>:
c0101fa8:	00000000 	andeq	r0, r0, r0

c0101fac <yres>:
c0101fac:	00000000 	andeq	r0, r0, r0

c0101fb0 <bpp>:
c0101fb0:	00000000 	andeq	r0, r0, r0

c0101fb4 <p_array_lcd_controller>:
	...

c0101fdc <g_p_lcd_controller_selected>:
c0101fdc:	00000000 	andeq	r0, r0, r0

c0101fe0 <p_array_lcd>:
	...

c0101ff4 <g_p_lcd_selected>:
c0101ff4:	00000000 	andeq	r0, r0, r0

c0101ff8 <RCC_PLL4FRACR>:
c0101ff8:	00000000 	andeq	r0, r0, r0

c0101ffc <RCC_RCK4SELR>:
c0101ffc:	00000000 	andeq	r0, r0, r0

c0102000 <RCC_PLL4CFGR1>:
c0102000:	00000000 	andeq	r0, r0, r0

c0102004 <RCC_PLL4CFGR2>:
c0102004:	00000000 	andeq	r0, r0, r0

c0102008 <RCC_PLL4CR>:
c0102008:	00000000 	andeq	r0, r0, r0

c010200c <RCC_MP_AHB4ENSETR>:
c010200c:	00000000 	andeq	r0, r0, r0

c0102010 <RCC_MP_APB4ENSETR>:
c0102010:	00000000 	andeq	r0, r0, r0

c0102014 <GPIOD_AFRH>:
c0102014:	00000000 	andeq	r0, r0, r0

c0102018 <GPIOD_MODER>:
c0102018:	00000000 	andeq	r0, r0, r0

c010201c <GPIOE_AFRL>:
c010201c:	00000000 	andeq	r0, r0, r0

c0102020 <GPIOE_AFRH>:
c0102020:	00000000 	andeq	r0, r0, r0

c0102024 <GPIOE_MODER>:
c0102024:	00000000 	andeq	r0, r0, r0

c0102028 <GPIOE_ODR>:
c0102028:	00000000 	andeq	r0, r0, r0

c010202c <GPIOG_AFRH>:
c010202c:	00000000 	andeq	r0, r0, r0

c0102030 <GPIOG_AFRL>:
c0102030:	00000000 	andeq	r0, r0, r0

c0102034 <GPIOG_MODER>:
c0102034:	00000000 	andeq	r0, r0, r0

c0102038 <GPIOH_AFRL>:
c0102038:	00000000 	andeq	r0, r0, r0

c010203c <GPIOH_AFRH>:
c010203c:	00000000 	andeq	r0, r0, r0

c0102040 <GPIOH_MODER>:
c0102040:	00000000 	andeq	r0, r0, r0

c0102044 <GPIOI_AFRL>:
c0102044:	00000000 	andeq	r0, r0, r0

c0102048 <GPIOI_AFRH>:
c0102048:	00000000 	andeq	r0, r0, r0

c010204c <GPIOI_MODER>:
c010204c:	00000000 	andeq	r0, r0, r0

c0102050 <GPIOD_OSPEEDR>:
c0102050:	00000000 	andeq	r0, r0, r0

c0102054 <GPIOE_OSPEEDR>:
c0102054:	00000000 	andeq	r0, r0, r0

c0102058 <GPIOG_OSPEEDR>:
c0102058:	00000000 	andeq	r0, r0, r0

c010205c <GPIOH_OSPEEDR>:
c010205c:	00000000 	andeq	r0, r0, r0

c0102060 <GPIOI_OSPEEDR>:
c0102060:	00000000 	andeq	r0, r0, r0

Disassembly of section .ARM.attributes:

00000000 <.ARM.attributes>:
   0:	00003441 	andeq	r3, r0, r1, asr #8
   4:	61656100 	cmnvs	r5, r0, lsl #2
   8:	01006962 	tsteq	r0, r2, ror #18
   c:	0000002a 	andeq	r0, r0, sl, lsr #32
  10:	45563705 	ldrbmi	r3, [r6, #-1797]	; 0xfffff8fb
  14:	070a0600 	streq	r0, [sl, -r0, lsl #12]
  18:	09010841 	stmdbeq	r1, {r0, r6, fp}
  1c:	12060a02 	andne	r0, r6, #8192	; 0x2000
  20:	15011404 	strne	r1, [r1, #-1028]	; 0xfffffbfc
  24:	18031701 	stmdane	r3, {r0, r8, r9, sl, ip}
  28:	1c021a01 			; <UNDEFINED> instruction: 0x1c021a01
  2c:	2a012201 	bcs	48838 <_start-0xc00b77c8>
  30:	44022c01 	strmi	r2, [r2], #-3073	; 0xfffff3ff
  34:	Address 0x0000000000000034 is out of bounds.


Disassembly of section .comment:

00000000 <.comment>:
   0:	3a434347 	bcc	10d0d24 <_start-0xbf02f2dc>
   4:	75422820 	strbvc	r2, [r2, #-2080]	; 0xfffff7e0
   8:	72646c69 	rsbvc	r6, r4, #26880	; 0x6900
   c:	20746f6f 	rsbscs	r6, r4, pc, ror #30
  10:	30323032 	eorscc	r3, r2, r2, lsr r0
  14:	2d32302e 	ldccs	0, cr3, [r2, #-184]!	; 0xffffff48
  18:	31353667 	teqcc	r5, r7, ror #12
  1c:	31356635 	teqcc	r5, r5, lsr r6
  20:	7269642d 	rsbvc	r6, r9, #754974720	; 0x2d000000
  24:	20297974 	eorcs	r7, r9, r4, ror r9
  28:	2e342e38 	mrccs	14, 1, r2, cr4, cr8, {1}
  2c:	Address 0x000000000000002c is out of bounds.


Disassembly of section .debug_line:

00000000 <.debug_line>:
   0:	00000043 	andeq	r0, r0, r3, asr #32
   4:	001e0003 	andseq	r0, lr, r3
   8:	01020000 	mrseq	r0, (UNDEF: 2)
   c:	000d0efb 	strdeq	r0, [sp], -fp
  10:	01010101 	tsteq	r1, r1, lsl #2
  14:	01000000 	mrseq	r0, (UNDEF: 0)
  18:	00010000 	andeq	r0, r1, r0
  1c:	72617473 	rsbvc	r7, r1, #1929379840	; 0x73000000
  20:	00532e74 	subseq	r2, r3, r4, ror lr
  24:	00000000 	andeq	r0, r0, r0
  28:	00020500 	andeq	r0, r2, r0, lsl #10
  2c:	18c01000 	stmiane	r0, {ip}^
  30:	32313030 	eorscc	r3, r1, #48	; 0x30
  34:	2f302f2f 	svccs	0x00302f2f
  38:	03302f2f 	teqeq	r0, #47, 30	; 0xbc
  3c:	0b032e6c 	bleq	cb9f4 <_start-0xc003460c>
  40:	02022f2e 	andeq	r2, r2, #46, 30	; 0xb8
  44:	b5010100 	strlt	r0, [r1, #-256]	; 0xffffff00
  48:	03000002 	movweq	r0, #2
  4c:	00001d00 	andeq	r1, r0, r0, lsl #26
  50:	fb010200 	blx	4085a <_start-0xc00bf7a6>
  54:	01000d0e 	tsteq	r0, lr, lsl #26
  58:	00010101 	andeq	r0, r1, r1, lsl #2
  5c:	00010000 	andeq	r0, r1, r0
  60:	6d000100 	stfvss	f0, [r0, #-0]
  64:	2e6e6961 	vnmulcs.f16	s13, s28, s3	; <UNPREDICTABLE>
  68:	00000063 	andeq	r0, r0, r3, rrx
  6c:	01050000 	mrseq	r0, (UNDEF: 5)
  70:	3c020500 	cfstr32cc	mvfx0, [r2], {-0}
  74:	18c01000 	stmiane	r0, {ip}^
  78:	316e0205 	cmncc	lr, r5, lsl #4
  7c:	05a10a05 	streq	r0, [r1, #2565]!	; 0xa05
  80:	07052e05 	streq	r2, [r5, -r5, lsl #28]
  84:	2e050550 	cfrshl32cs	mvfx5, mvfx0, r0
  88:	052f0a05 	streq	r0, [pc, #-2565]!	; fffff68b <__bss_end+0x3fefd627>
  8c:	0b054a03 	bleq	1528a0 <_start-0xbffad760>
  90:	4a04052f 	bmi	101554 <_start-0xbfffeaac>
  94:	02000705 	andeq	r0, r0, #1310720	; 0x140000
  98:	052f0304 	streq	r0, [pc, #-772]!	; fffffd9c <__bss_end+0x3fefdd38>
  9c:	0402000a 	streq	r0, [r2], #-10
  a0:	1b056603 	blne	1598b4 <_start-0xbffa674c>
  a4:	03040200 	movweq	r0, #16896	; 0x4200
  a8:	00120549 	andseq	r0, r2, r9, asr #10
  ac:	66010402 	strvs	r0, [r1], -r2, lsl #8
  b0:	02000405 	andeq	r0, r0, #83886080	; 0x5000000
  b4:	052e0104 	streq	r0, [lr, #-260]!	; 0xfffffefc
  b8:	0402001a 	streq	r0, [r2], #-26	; 0xffffffe6
  bc:	11056502 	tstne	r5, r2, lsl #10
  c0:	01040200 	mrseq	r0, R12_usr
  c4:	00030566 	andeq	r0, r3, r6, ror #10
  c8:	2e010402 	cdpcs	4, 0, cr0, cr1, cr2, {0}
  cc:	056b0705 	strbeq	r0, [fp, #-1797]!	; 0xfffff8fb
  d0:	0a052e05 	beq	14b8ec <_start-0xbffb4714>
  d4:	4a03052f 	bmi	c1598 <_start-0xc003ea68>
  d8:	052f0b05 	streq	r0, [pc, #-2821]!	; fffff5db <__bss_end+0x3fefd577>
  dc:	07054a04 	streq	r4, [r5, -r4, lsl #20]
  e0:	03040200 	movweq	r0, #16896	; 0x4200
  e4:	000a052f 	andeq	r0, sl, pc, lsr #10
  e8:	66030402 	strvs	r0, [r3], -r2, lsl #8
  ec:	02001b05 	andeq	r1, r0, #5120	; 0x1400
  f0:	05490304 	strbeq	r0, [r9, #-772]	; 0xfffffcfc
  f4:	04020012 	streq	r0, [r2], #-18	; 0xffffffee
  f8:	04056601 	streq	r6, [r5], #-1537	; 0xfffff9ff
  fc:	01040200 	mrseq	r0, R12_usr
 100:	001a052e 	andseq	r0, sl, lr, lsr #10
 104:	65020402 	strvs	r0, [r2, #-1026]	; 0xfffffbfe
 108:	02001105 	andeq	r1, r0, #1073741825	; 0x40000001
 10c:	05660104 	strbeq	r0, [r6, #-260]!	; 0xfffffefc
 110:	04020003 	streq	r0, [r2], #-3
 114:	07052e01 	streq	r2, [r5, -r1, lsl #28]
 118:	2e05056b 	cfsh32cs	mvfx0, mvfx5, #59
 11c:	052f0a05 	streq	r0, [pc, #-2565]!	; fffff71f <__bss_end+0x3fefd6bb>
 120:	0b054a03 	bleq	152934 <_start-0xbffad6cc>
 124:	4a04052f 	bmi	1015e8 <_start-0xbfffea18>
 128:	02000705 	andeq	r0, r0, #1310720	; 0x140000
 12c:	052f0304 	streq	r0, [pc, #-772]!	; fffffe30 <__bss_end+0x3fefddcc>
 130:	0402000a 	streq	r0, [r2], #-10
 134:	1b056603 	blne	159948 <_start-0xbffa66b8>
 138:	03040200 	movweq	r0, #16896	; 0x4200
 13c:	00120549 	andseq	r0, r2, r9, asr #10
 140:	66010402 	strvs	r0, [r1], -r2, lsl #8
 144:	02000405 	andeq	r0, r0, #83886080	; 0x5000000
 148:	052e0104 	streq	r0, [lr, #-260]!	; 0xfffffefc
 14c:	0402001a 	streq	r0, [r2], #-26	; 0xffffffe6
 150:	11056502 	tstne	r5, r2, lsl #10
 154:	01040200 	mrseq	r0, R12_usr
 158:	00030566 	andeq	r0, r3, r6, ror #10
 15c:	2e010402 	cdpcs	4, 0, cr0, cr1, cr2, {0}
 160:	056b0705 	strbeq	r0, [fp, #-1797]!	; 0xfffff8fb
 164:	0a052e05 	beq	14b980 <_start-0xbffb4680>
 168:	4a03052f 	bmi	c162c <_start-0xc003e9d4>
 16c:	052f0b05 	streq	r0, [pc, #-2821]!	; fffff66f <__bss_end+0x3fefd60b>
 170:	07054a04 	streq	r4, [r5, -r4, lsl #20]
 174:	03040200 	movweq	r0, #16896	; 0x4200
 178:	000a052f 	andeq	r0, sl, pc, lsr #10
 17c:	66030402 	strvs	r0, [r3], -r2, lsl #8
 180:	02001b05 	andeq	r1, r0, #5120	; 0x1400
 184:	05490304 	strbeq	r0, [r9, #-772]	; 0xfffffcfc
 188:	04020012 	streq	r0, [r2], #-18	; 0xffffffee
 18c:	04056601 	streq	r6, [r5], #-1537	; 0xfffff9ff
 190:	01040200 	mrseq	r0, R12_usr
 194:	001a052e 	andseq	r0, sl, lr, lsr #10
 198:	65020402 	strvs	r0, [r2, #-1026]	; 0xfffffbfe
 19c:	02001105 	andeq	r1, r0, #1073741825	; 0x40000001
 1a0:	05660104 	strbeq	r0, [r6, #-260]!	; 0xfffffefc
 1a4:	04020003 	streq	r0, [r2], #-3
 1a8:	0f052e01 	svceq	0x00052e01
 1ac:	2e0a0586 	cfsh32cs	mvfx0, mvfx10, #-58
 1b0:	05500805 	ldrbeq	r0, [r0, #-2053]	; 0xfffff7fb
 1b4:	0a052e06 	beq	14b9d4 <_start-0xbffb462c>
 1b8:	4a03052f 	bmi	c167c <_start-0xc003e984>
 1bc:	052f0b05 	streq	r0, [pc, #-2821]!	; fffff6bf <__bss_end+0x3fefd65b>
 1c0:	08054a04 	stmdaeq	r5, {r2, r9, fp, lr}
 1c4:	03040200 	movweq	r0, #16896	; 0x4200
 1c8:	000b052f 	andeq	r0, fp, pc, lsr #10
 1cc:	66030402 	strvs	r0, [r3], -r2, lsl #8
 1d0:	02001b05 	andeq	r1, r0, #5120	; 0x1400
 1d4:	05490304 	strbeq	r0, [r9, #-772]	; 0xfffffcfc
 1d8:	04020012 	streq	r0, [r2], #-18	; 0xffffffee
 1dc:	04056601 	streq	r6, [r5], #-1537	; 0xfffff9ff
 1e0:	01040200 	mrseq	r0, R12_usr
 1e4:	001a052e 	andseq	r0, sl, lr, lsr #10
 1e8:	65020402 	strvs	r0, [r2, #-1026]	; 0xfffffbfe
 1ec:	02001105 	andeq	r1, r0, #1073741825	; 0x40000001
 1f0:	05660104 	strbeq	r0, [r6, #-260]!	; 0xfffffefc
 1f4:	04020003 	streq	r0, [r2], #-3
 1f8:	08052e01 	stmdaeq	r5, {r0, r9, sl, fp, sp}
 1fc:	2e06056b 	cfsh32cs	mvfx0, mvfx6, #59
 200:	052f0a05 	streq	r0, [pc, #-2565]!	; fffff803 <__bss_end+0x3fefd79f>
 204:	0b054a03 	bleq	152a18 <_start-0xbffad5e8>
 208:	4a04052f 	bmi	1016cc <_start-0xbfffe934>
 20c:	02000805 	andeq	r0, r0, #327680	; 0x50000
 210:	052f0304 	streq	r0, [pc, #-772]!	; ffffff14 <__bss_end+0x3fefdeb0>
 214:	0402000b 	streq	r0, [r2], #-11
 218:	1b056603 	blne	159a2c <_start-0xbffa65d4>
 21c:	03040200 	movweq	r0, #16896	; 0x4200
 220:	00120549 	andseq	r0, r2, r9, asr #10
 224:	66010402 	strvs	r0, [r1], -r2, lsl #8
 228:	02000405 	andeq	r0, r0, #83886080	; 0x5000000
 22c:	052e0104 	streq	r0, [lr, #-260]!	; 0xfffffefc
 230:	0402001a 	streq	r0, [r2], #-26	; 0xffffffe6
 234:	11056502 	tstne	r5, r2, lsl #10
 238:	01040200 	mrseq	r0, R12_usr
 23c:	00030566 	andeq	r0, r3, r6, ror #10
 240:	2e010402 	cdpcs	4, 0, cr0, cr1, cr2, {0}
 244:	056b0805 	strbeq	r0, [fp, #-2053]!	; 0xfffff7fb
 248:	0a052e06 	beq	14ba68 <_start-0xbffb4598>
 24c:	4a03052f 	bmi	c1710 <_start-0xc003e8f0>
 250:	052f0b05 	streq	r0, [pc, #-2821]!	; fffff753 <__bss_end+0x3fefd6ef>
 254:	08054a04 	stmdaeq	r5, {r2, r9, fp, lr}
 258:	03040200 	movweq	r0, #16896	; 0x4200
 25c:	000b052f 	andeq	r0, fp, pc, lsr #10
 260:	66030402 	strvs	r0, [r3], -r2, lsl #8
 264:	02001b05 	andeq	r1, r0, #5120	; 0x1400
 268:	05490304 	strbeq	r0, [r9, #-772]	; 0xfffffcfc
 26c:	04020012 	streq	r0, [r2], #-18	; 0xffffffee
 270:	04056601 	streq	r6, [r5], #-1537	; 0xfffff9ff
 274:	01040200 	mrseq	r0, R12_usr
 278:	001a052e 	andseq	r0, sl, lr, lsr #10
 27c:	65020402 	strvs	r0, [r2, #-1026]	; 0xfffffbfe
 280:	02001105 	andeq	r1, r0, #1073741825	; 0x40000001
 284:	05660104 	strbeq	r0, [r6, #-260]!	; 0xfffffefc
 288:	04020003 	streq	r0, [r2], #-3
 28c:	08052e01 	stmdaeq	r5, {r0, r9, sl, fp, sp}
 290:	2e06056b 	cfsh32cs	mvfx0, mvfx6, #59
 294:	052f0a05 	streq	r0, [pc, #-2565]!	; fffff897 <__bss_end+0x3fefd833>
 298:	0b054a03 	bleq	152aac <_start-0xbffad554>
 29c:	4a04052f 	bmi	101760 <_start-0xbfffe8a0>
 2a0:	02000805 	andeq	r0, r0, #327680	; 0x50000
 2a4:	052f0304 	streq	r0, [pc, #-772]!	; ffffffa8 <__bss_end+0x3fefdf44>
 2a8:	0402000b 	streq	r0, [r2], #-11
 2ac:	1b056603 	blne	159ac0 <_start-0xbffa6540>
 2b0:	03040200 	movweq	r0, #16896	; 0x4200
 2b4:	00120549 	andseq	r0, r2, r9, asr #10
 2b8:	66010402 	strvs	r0, [r1], -r2, lsl #8
 2bc:	02000405 	andeq	r0, r0, #83886080	; 0x5000000
 2c0:	052e0104 	streq	r0, [lr, #-260]!	; 0xfffffefc
 2c4:	0402001a 	streq	r0, [r2], #-26	; 0xffffffe6
 2c8:	11056502 	tstne	r5, r2, lsl #10
 2cc:	01040200 	mrseq	r0, R12_usr
 2d0:	00030566 	andeq	r0, r3, r6, ror #10
 2d4:	2e010402 	cdpcs	4, 0, cr0, cr1, cr2, {0}
 2d8:	306d0205 	rsbcc	r0, sp, r5, lsl #4
 2dc:	0867f368 	stmdaeq	r7!, {r3, r5, r6, r8, r9, ip, sp, lr, pc}^
 2e0:	75086775 	strvc	r6, [r8, #-1909]	; 0xfffff88b
 2e4:	673d0867 	ldrvs	r0, [sp, -r7, ror #16]!
 2e8:	08675908 	stmdaeq	r7!, {r3, r8, fp, ip, lr}^
 2ec:	01056959 	tsteq	r5, r9, asr r9
 2f0:	6b142602 	blvs	509b00 <_start-0xbfbf6500>
 2f4:	314c0205 	cmpcc	ip, r5, lsl #4
 2f8:	024c0105 	subeq	r0, ip, #1073741825	; 0x40000001
 2fc:	01010004 	tsteq	r1, r4
 300:	00000202 	andeq	r0, r0, r2, lsl #4
 304:	00210003 	eoreq	r0, r1, r3
 308:	01020000 	mrseq	r0, (UNDEF: 2)
 30c:	000d0efb 	strdeq	r0, [sp], -fp
 310:	01010101 	tsteq	r1, r1, lsl #2
 314:	01000000 	mrseq	r0, (UNDEF: 0)
 318:	00010000 	andeq	r0, r1, r0
 31c:	6d6f6567 	cfstr64vs	mvdx6, [pc, #-412]!	; 188 <_start-0xc00ffe78>
 320:	79727465 	ldmdbvc	r2!, {r0, r2, r5, r6, sl, ip, sp, lr}^
 324:	0000632e 	andeq	r6, r0, lr, lsr #6
 328:	05000000 	streq	r0, [r0, #-0]
 32c:	02050002 	andeq	r0, r5, #2
 330:	c01005a8 	andsgt	r0, r0, r8, lsr #11
 334:	05011d03 	streq	r1, [r1, #-3331]	; 0xfffff2fd
 338:	054bd805 	strbeq	sp, [fp, #-2053]	; 0xfffff7fb
 33c:	04054b08 	streq	r4, [r5], #-2824	; 0xfffff4f8
 340:	08210830 	stmdaeq	r1!, {r4, r5, fp}
 344:	08210821 	stmdaeq	r1!, {r0, r5, fp}
 348:	08210822 	stmdaeq	r1!, {r1, r5, fp}
 34c:	05210821 	streq	r0, [r1, #-2081]!	; 0xfffff7df
 350:	05220805 	streq	r0, [r2, #-2053]!	; 0xfffff7fb
 354:	1505670d 	strne	r6, [r5, #-1805]	; 0xfffff8f3
 358:	66110566 	ldrvs	r0, [r1], -r6, ror #10
 35c:	052e1d05 	streq	r1, [lr, #-3333]!	; 0xfffff2fb
 360:	06056608 	streq	r6, [r5], -r8, lsl #12
 364:	0567684b 	strbeq	r6, [r7, #-2123]!	; 0xfffff7b5
 368:	666f0310 			; <UNDEFINED> instruction: 0x666f0310
 36c:	059e1905 	ldreq	r1, [lr, #2309]	; 0x905
 370:	02056608 	andeq	r6, r5, #8, 12	; 0x800000
 374:	034a1403 	movteq	r1, #41987	; 0xa403
 378:	0505660f 	streq	r6, [r5, #-1551]	; 0xfffff9f1
 37c:	058383d8 	streq	r8, [r3, #984]	; 0x3d8
 380:	07056806 	streq	r6, [r5, -r6, lsl #16]
 384:	840d0568 	strhi	r0, [sp], #-1384	; 0xfffffa98
 388:	05ba0705 	ldreq	r0, [sl, #1797]!	; 0x705
 38c:	0705670b 	streq	r6, [r5, -fp, lsl #14]
 390:	9f090530 	svcls	0x00090530
 394:	02001105 	andeq	r1, r0, #1073741825	; 0x40000001
 398:	05660104 	strbeq	r0, [r6, #-260]!	; 0xfffffefc
 39c:	04020016 	streq	r0, [r2], #-22	; 0xffffffea
 3a0:	09056601 	stmdbeq	r5, {r0, r9, sl, sp, lr}
 3a4:	67080583 	strvs	r0, [r8, -r3, lsl #11]
 3a8:	057d0b05 	ldrbeq	r0, [sp, #-2821]!	; 0xfffff4fb
 3ac:	00e60302 	rsceq	r0, r6, r2, lsl #6
 3b0:	030d0582 	movweq	r0, #54658	; 0xd582
 3b4:	052e7fa4 	streq	r7, [lr, #-4004]!	; 0xfffff05c
 3b8:	0b05ba07 	bleq	16ebdc <_start-0xbff91424>
 3bc:	30070567 	andcc	r0, r7, r7, ror #10
 3c0:	059f0905 	ldreq	r0, [pc, #2309]	; ccd <_start-0xc00ff333>
 3c4:	04020011 	streq	r0, [r2], #-17	; 0xffffffef
 3c8:	16056601 	strne	r6, [r5], -r1, lsl #12
 3cc:	01040200 	mrseq	r0, R12_usr
 3d0:	83090566 	movwhi	r0, #38246	; 0x9566
 3d4:	05670805 	strbeq	r0, [r7, #-2053]!	; 0xfffff7fb
 3d8:	02057d0b 	andeq	r7, r5, #704	; 0x2c0
 3dc:	8200db03 	andhi	sp, r0, #3072	; 0xc00
 3e0:	b0030705 	andlt	r0, r3, r5, lsl #14
 3e4:	05672e7f 	strbeq	r2, [r7, #-3711]!	; 0xfffff181
 3e8:	0705840d 	streq	r8, [r5, -sp, lsl #8]
 3ec:	670b05ba 			; <UNDEFINED> instruction: 0x670b05ba
 3f0:	05300705 	ldreq	r0, [r0, #-1797]!	; 0xfffff8fb
 3f4:	11059f09 	tstne	r5, r9, lsl #30
 3f8:	01040200 	mrseq	r0, R12_usr
 3fc:	00160566 	andseq	r0, r6, r6, ror #10
 400:	66010402 	strvs	r0, [r1], -r2, lsl #8
 404:	05830905 	streq	r0, [r3, #2309]	; 0x905
 408:	0b056708 	bleq	15a030 <_start-0xbffa5fd0>
 40c:	0302057d 	movweq	r0, #9597	; 0x257d
 410:	058200cc 	streq	r0, [r2, #204]	; 0xcc
 414:	7fbe030d 	svcvc	0x00be030d
 418:	ba07052e 	blt	1c18d8 <_start-0xbff3e728>
 41c:	05670b05 	strbeq	r0, [r7, #-2821]!	; 0xfffff4fb
 420:	09053007 	stmdbeq	r5, {r0, r1, r2, ip, sp}
 424:	0011059f 	mulseq	r1, pc, r5	; <UNPREDICTABLE>
 428:	66010402 	strvs	r0, [r1], -r2, lsl #8
 42c:	02001605 	andeq	r1, r0, #5242880	; 0x500000
 430:	05660104 	strbeq	r0, [r6, #-260]!	; 0xfffffefc
 434:	08058309 	stmdaeq	r5, {r0, r3, r8, r9, pc}
 438:	7d0b0567 	cfstr32vc	mvfx0, [fp, #-412]	; 0xfffffe64
 43c:	c1030205 	tstgt	r3, r5, lsl #4
 440:	06058200 	streq	r8, [r5], -r0, lsl #4
 444:	672e4b03 	strvs	r4, [lr, -r3, lsl #22]!
 448:	05680705 	strbeq	r0, [r8, #-1797]!	; 0xfffff8fb
 44c:	0705840d 	streq	r8, [r5, -sp, lsl #8]
 450:	670b05ba 			; <UNDEFINED> instruction: 0x670b05ba
 454:	05300705 	ldreq	r0, [r0, #-1797]!	; 0xfffff8fb
 458:	11059f09 	tstne	r5, r9, lsl #30
 45c:	01040200 	mrseq	r0, R12_usr
 460:	00160566 	andseq	r0, r6, r6, ror #10
 464:	66010402 	strvs	r0, [r1], -r2, lsl #8
 468:	05830905 	streq	r0, [r3, #2309]	; 0x905
 46c:	0b056708 	bleq	15a094 <_start-0xbffa5f6c>
 470:	0302057d 	movweq	r0, #9597	; 0x257d
 474:	0d05822f 	sfmeq	f0, 1, [r5, #-188]	; 0xffffff44
 478:	052e5b03 	streq	r5, [lr, #-2819]!	; 0xfffff4fd
 47c:	0b05ba07 	bleq	16eca0 <_start-0xbff91360>
 480:	30070567 	andcc	r0, r7, r7, ror #10
 484:	059f0905 	ldreq	r0, [pc, #2309]	; d91 <_start-0xc00ff26f>
 488:	04020011 	streq	r0, [r2], #-17	; 0xffffffef
 48c:	16056601 	strne	r6, [r5], -r1, lsl #12
 490:	01040200 	mrseq	r0, R12_usr
 494:	83090566 	movwhi	r0, #38246	; 0x9566
 498:	05670805 	strbeq	r0, [r7, #-2053]!	; 0xfffff7fb
 49c:	02057d0b 	andeq	r7, r5, #704	; 0x2c0
 4a0:	05822403 	streq	r2, [r2, #1027]	; 0x403
 4a4:	2e670307 	cdpcs	3, 6, cr0, cr7, cr7, {0}
 4a8:	840d0567 	strhi	r0, [sp], #-1383	; 0xfffffa99
 4ac:	05ba0705 	ldreq	r0, [sl, #1797]!	; 0x705
 4b0:	0705670b 	streq	r6, [r5, -fp, lsl #14]
 4b4:	9f090530 	svcls	0x00090530
 4b8:	02001105 	andeq	r1, r0, #1073741825	; 0x40000001
 4bc:	05660104 	strbeq	r0, [r6, #-260]!	; 0xfffffefc
 4c0:	04020016 	streq	r0, [r2], #-22	; 0xffffffea
 4c4:	09056601 	stmdbeq	r5, {r0, r9, sl, sp, lr}
 4c8:	67080583 	strvs	r0, [r8, -r3, lsl #11]
 4cc:	057d0b05 	ldrbeq	r0, [sp, #-2821]!	; 0xfffff4fb
 4d0:	82150302 	andshi	r0, r5, #134217728	; 0x8000000
 4d4:	75030d05 	strvc	r0, [r3, #-3333]	; 0xfffff2fb
 4d8:	ba07052e 	blt	1c1998 <_start-0xbff3e668>
 4dc:	05670b05 	strbeq	r0, [r7, #-2821]!	; 0xfffff4fb
 4e0:	09053007 	stmdbeq	r5, {r0, r1, r2, ip, sp}
 4e4:	0011059f 	mulseq	r1, pc, r5	; <UNPREDICTABLE>
 4e8:	66010402 	strvs	r0, [r1], -r2, lsl #8
 4ec:	02001605 	andeq	r1, r0, #5242880	; 0x500000
 4f0:	05660104 	strbeq	r0, [r6, #-260]!	; 0xfffffefc
 4f4:	08058309 	stmdaeq	r5, {r0, r3, r8, r9, pc}
 4f8:	7d0b0567 	cfstr32vc	mvfx0, [fp, #-412]	; 0xfffffe64
 4fc:	0a030205 	beq	c0d18 <_start-0xc003f2e8>
 500:	00060282 	andeq	r0, r6, r2, lsl #5
 504:	00a60101 	adceq	r0, r6, r1, lsl #2
 508:	00030000 	andeq	r0, r3, r0
 50c:	00000024 	andeq	r0, r0, r4, lsr #32
 510:	0efb0102 	cdpeq	1, 15, cr0, cr11, cr2, {0}
 514:	0101000d 	tsteq	r1, sp
 518:	00000101 	andeq	r0, r0, r1, lsl #2
 51c:	00000100 	andeq	r0, r0, r0, lsl #2
 520:	72660001 	rsbvc	r0, r6, #1
 524:	62656d61 	rsbvs	r6, r5, #6208	; 0x1840
 528:	65666675 	strbvs	r6, [r6, #-1653]!	; 0xfffff98b
 52c:	00632e72 	rsbeq	r2, r3, r2, ror lr
 530:	00000000 	andeq	r0, r0, r0
 534:	05000105 	streq	r0, [r0, #-261]	; 0xfffffefb
 538:	100cf802 	andne	pc, ip, r2, lsl #16
 53c:	011503c0 	tsteq	r5, r0, asr #7
 540:	054b0205 	strbeq	r0, [fp, #-517]	; 0xfffffdfb
 544:	4e210801 	cdpmi	8, 2, cr0, cr1, cr1, {0}
 548:	05830f05 	streq	r0, [r3, #3845]	; 0xf05
 54c:	0f054a06 	svceq	0x00054a06
 550:	4a06054b 	bmi	181a84 <_start-0xbff7e57c>
 554:	054b0e05 	strbeq	r0, [fp, #-3589]	; 0xfffff1fb
 558:	04052e06 	streq	r2, [r5], #-3590	; 0xfffff1fa
 55c:	0567674d 	strbeq	r6, [r7, #-1869]!	; 0xfffff8b3
 560:	1205680c 	andne	r6, r5, #12, 16	; 0xc0000
 564:	2e16054a 	cfmac32cs	mvfx0, mvfx6, mvfx10
 568:	054a1205 	strbeq	r1, [sl, #-517]	; 0xfffffdfb
 56c:	0105661b 	tsteq	r5, fp, lsl r6
 570:	8212039f 	andshi	r0, r2, #2080374786	; 0x7c000002
 574:	05be2c05 	ldreq	r2, [lr, #3077]!	; 0xc05
 578:	3705d632 	smladxcc	r5, r2, r6, sp
 57c:	662405ba 			; <UNDEFINED> instruction: 0x662405ba
 580:	05823f05 	streq	r3, [r2, #3845]	; 0xf05
 584:	0f059e45 	svceq	0x00059e45
 588:	4c02059e 	cfstr32mi	mvfx0, [r2], {158}	; 0x9e
 58c:	0b030105 	bleq	c09a8 <_start-0xc003f658>
 590:	030705d6 	movweq	r0, #30166	; 0x75d6
 594:	0a052e78 	beq	14bf7c <_start-0xbffb4084>
 598:	8208054b 	andhi	r0, r8, #314572800	; 0x12c00000
 59c:	054b0405 	strbeq	r0, [fp, #-1029]	; 0xfffffbfb
 5a0:	09053008 	stmdbeq	r5, {r3, ip, sp}
 5a4:	6704054b 	strvs	r0, [r4, -fp, asr #10]
 5a8:	02300105 	eorseq	r0, r0, #1073741825	; 0x40000001
 5ac:	01010006 	tsteq	r1, r6
 5b0:	00000159 	andeq	r0, r0, r9, asr r1
 5b4:	005c0003 	subseq	r0, ip, r3
 5b8:	01020000 	mrseq	r0, (UNDEF: 2)
 5bc:	000d0efb 	strdeq	r0, [sp], -fp
 5c0:	01010101 	tsteq	r1, r1, lsl #2
 5c4:	01000000 	mrseq	r0, (UNDEF: 0)
 5c8:	00010000 	andeq	r0, r1, r0
 5cc:	5f64636c 	svcpl	0x0064636c
 5d0:	746e6f63 	strbtvc	r6, [lr], #-3939	; 0xfffff09d
 5d4:	6c6c6f72 	stclvs	15, cr6, [ip], #-456	; 0xfffffe38
 5d8:	6d5f7265 	lfmvs	f7, 2, [pc, #-404]	; 44c <_start-0xc00ffbb4>
 5dc:	67616e61 	strbvs	r6, [r1, -r1, ror #28]!
 5e0:	632e7265 			; <UNDEFINED> instruction: 0x632e7265
 5e4:	00000000 	andeq	r0, r0, r0
 5e8:	5f64636c 	svcpl	0x0064636c
 5ec:	616e616d 	cmnvs	lr, sp, ror #2
 5f0:	2e726567 	cdpcs	5, 7, cr6, cr2, cr7, {3}
 5f4:	00000068 	andeq	r0, r0, r8, rrx
 5f8:	64636c00 	strbtvs	r6, [r3], #-3072	; 0xfffff400
 5fc:	6e6f635f 	mcrvs	3, 3, r6, cr15, cr15, {2}
 600:	6c6f7274 	sfmvs	f7, 2, [pc], #-464	; 438 <_start-0xc00ffbc8>
 604:	5f72656c 	svcpl	0x0072656c
 608:	616e616d 	cmnvs	lr, sp, ror #2
 60c:	2e726567 	cdpcs	5, 7, cr6, cr2, cr7, {3}
 610:	00000068 	andeq	r0, r0, r8, rrx
 614:	01050000 	mrseq	r0, (UNDEF: 5)
 618:	d0020500 	andle	r0, r2, r0, lsl #10
 61c:	03c0100e 	biceq	r1, r0, #14
 620:	10050114 	andne	r0, r5, r4, lsl r1
 624:	4a1905a2 	bmi	641cb4 <_start-0xbfabe34c>
 628:	05661605 	strbeq	r1, [r6, #-1541]!	; 0xfffff9fb
 62c:	0e052e14 	mcreq	14, 0, r2, cr5, cr4, {0}
 630:	2e06054a 	cfsh32cs	mvfx0, mvfx6, #42
 634:	02002905 	andeq	r2, r0, #81920	; 0x14000
 638:	054a0104 	strbeq	r0, [sl, #-260]	; 0xfffffefc
 63c:	04020026 	streq	r0, [r2], #-38	; 0xffffffda
 640:	22056601 	andcs	r6, r5, #1048576	; 0x100000
 644:	01040200 	mrseq	r0, R12_usr
 648:	4a06052e 	bmi	181b08 <_start-0xbff7e4f8>
 64c:	05320905 	ldreq	r0, [r2, #-2309]!	; 0xfffff6fb
 650:	0d032f01 	stceq	15, cr2, [r3, #-4]
 654:	84090582 	strhi	r0, [r9], #-1410	; 0xfffffa7e
 658:	054a0205 	strbeq	r0, [sl, #-517]	; 0xfffffdfb
 65c:	0605301e 			; <UNDEFINED> instruction: 0x0605301e
 660:	4c1e0582 	cfldr32mi	mvfx0, [lr], {130}	; 0x82
 664:	059f0b05 	ldreq	r0, [pc, #2821]	; 1171 <_start-0xc00fee8f>
 668:	04020027 	streq	r0, [r2], #-39	; 0xffffffd9
 66c:	02054502 	andeq	r4, r5, #8388608	; 0x800000
 670:	01040200 	mrseq	r0, R12_usr
 674:	6e090566 	cfsh32vs	mvfx0, mvfx9, #54
 678:	032f0105 			; <UNDEFINED> instruction: 0x032f0105
 67c:	0905820d 	stmdbeq	r5, {r0, r2, r3, r9, pc}
 680:	4a020584 	bmi	81c98 <_start-0xc007e368>
 684:	05301d05 	ldreq	r1, [r0, #-3333]!	; 0xfffff2fb
 688:	42058206 	andmi	r8, r5, #1610612736	; 0x60000000
 68c:	01040200 	mrseq	r0, R12_usr
 690:	0045054a 	subeq	r0, r5, sl, asr #10
 694:	82010402 	andhi	r0, r1, #33554432	; 0x2000000
 698:	02002505 	andeq	r2, r0, #20971520	; 0x1400000
 69c:	052e0104 	streq	r0, [lr, #-260]!	; 0xfffffefc
 6a0:	04020021 	streq	r0, [r2], #-33	; 0xffffffdf
 6a4:	38058201 	stmdacc	r5, {r0, r9, pc}
 6a8:	8220054c 	eorhi	r0, r0, #76, 10	; 0x13000000
 6ac:	05670b05 	strbeq	r0, [r7, #-2821]!	; 0xfffff4fb
 6b0:	04020027 	streq	r0, [r2], #-39	; 0xffffffd9
 6b4:	02054502 	andeq	r4, r5, #8388608	; 0x800000
 6b8:	01040200 	mrseq	r0, R12_usr
 6bc:	6e090566 	cfsh32vs	mvfx0, mvfx9, #54
 6c0:	032f0105 			; <UNDEFINED> instruction: 0x032f0105
 6c4:	0605660d 	streq	r6, [r5], -sp, lsl #12
 6c8:	66050583 	strvs	r0, [r5], -r3, lsl #11
 6cc:	054c1e05 	strbeq	r1, [ip, #-3589]	; 0xfffff1fb
 6d0:	0a058203 	beq	160ee4 <_start-0xbff9f11c>
 6d4:	4c09054b 	cfstr32mi	mvfx0, [r9], {75}	; 0x4b
 6d8:	032f0105 			; <UNDEFINED> instruction: 0x032f0105
 6dc:	0605660d 	streq	r6, [r5], -sp, lsl #12
 6e0:	6605054b 	strvs	r0, [r5], -fp, asr #10
 6e4:	054c1e05 	strbeq	r1, [ip, #-3589]	; 0xfffff1fb
 6e8:	01058203 	tsteq	r5, r3, lsl #4
 6ec:	4a0d0330 	bmi	3413b4 <_start-0xbfdbec4c>
 6f0:	054b0605 	strbeq	r0, [fp, #-1541]	; 0xfffff9fb
 6f4:	1e056605 	cfmadd32ne	mvax0, mvfx6, mvfx5, mvfx5
 6f8:	8203054c 	andhi	r0, r3, #76, 10	; 0x13000000
 6fc:	03300105 	teqeq	r0, #1073741825	; 0x40000001
 700:	02054a0d 	andeq	r4, r5, #53248	; 0xd000
 704:	2f01054b 	svccs	0x0001054b
 708:	01000402 	tsteq	r0, r2, lsl #8
 70c:	00010c01 	andeq	r0, r1, r1, lsl #24
 710:	35000300 	strcc	r0, [r0, #-768]	; 0xfffffd00
 714:	02000000 	andeq	r0, r0, #0
 718:	0d0efb01 	vstreq	d15, [lr, #-4]
 71c:	01010100 	mrseq	r0, (UNDEF: 17)
 720:	00000001 	andeq	r0, r0, r1
 724:	01000001 	tsteq	r0, r1
 728:	64636c00 	strbtvs	r6, [r3], #-3072	; 0xfffff400
 72c:	6e616d5f 	mcrvs	13, 3, r6, cr1, cr15, {2}
 730:	72656761 	rsbvc	r6, r5, #25427968	; 0x1840000
 734:	0000632e 	andeq	r6, r0, lr, lsr #6
 738:	636c0000 	cmnvs	ip, #0
 73c:	616d5f64 	cmnvs	sp, r4, ror #30
 740:	6567616e 	strbvs	r6, [r7, #-366]!	; 0xfffffe92
 744:	00682e72 	rsbeq	r2, r8, r2, ror lr
 748:	00000000 	andeq	r0, r0, r0
 74c:	05000105 	streq	r0, [r0, #-261]	; 0xfffffefb
 750:	10114002 	andsne	r4, r1, r2
 754:	011403c0 	tsteq	r4, r0, asr #7
 758:	05830805 	streq	r0, [r3, #2053]	; 0x805
 75c:	0402000a 	streq	r0, [r2], #-10
 760:	08052e01 	stmdaeq	r5, {r0, r9, sl, fp, sp}
 764:	01040200 	mrseq	r0, R12_usr
 768:	4b010566 	blmi	41d08 <_start-0xc00be2f8>
 76c:	05820e03 	streq	r0, [r2, #3587]	; 0xe03
 770:	02058409 	andeq	r8, r5, #150994944	; 0x9000000
 774:	3013054a 	andscc	r0, r3, sl, asr #10
 778:	05820605 	streq	r0, [r2, #1541]	; 0x605
 77c:	0b054c13 	bleq	1537d0 <_start-0xbffac830>
 780:	001c059f 	mulseq	ip, pc, r5	; <UNPREDICTABLE>
 784:	45020402 	strmi	r0, [r2, #-1026]	; 0xfffffbfe
 788:	02000205 	andeq	r0, r0, #1342177280	; 0x50000000
 78c:	05660104 	strbeq	r0, [r6, #-260]!	; 0xfffffefc
 790:	01056e09 	tsteq	r5, r9, lsl #28
 794:	0905852f 	stmdbeq	r5, {r0, r1, r2, r3, r5, r8, sl, pc}
 798:	4a020584 	bmi	81db0 <_start-0xc007e250>
 79c:	05301205 	ldreq	r1, [r0, #-517]!	; 0xfffffdfb
 7a0:	2c058206 	sfmcs	f0, 1, [r5], {6}
 7a4:	01040200 	mrseq	r0, R12_usr
 7a8:	002f054a 	eoreq	r0, pc, sl, asr #10
 7ac:	82010402 	andhi	r0, r1, #33554432	; 0x2000000
 7b0:	02001a05 	andeq	r1, r0, #20480	; 0x5000
 7b4:	052e0104 	streq	r0, [lr, #-260]!	; 0xfffffefc
 7b8:	04020016 	streq	r0, [r2], #-22	; 0xffffffea
 7bc:	22058201 	andcs	r8, r5, #268435456	; 0x10000000
 7c0:	8215054c 	andshi	r0, r5, #76, 10	; 0x13000000
 7c4:	05670b05 	strbeq	r0, [r7, #-2821]!	; 0xfffff4fb
 7c8:	0402001c 	streq	r0, [r2], #-28	; 0xffffffe4
 7cc:	02054502 	andeq	r4, r5, #8388608	; 0x800000
 7d0:	01040200 	mrseq	r0, R12_usr
 7d4:	6e090566 	cfsh32vs	mvfx0, mvfx9, #54
 7d8:	032f0105 			; <UNDEFINED> instruction: 0x032f0105
 7dc:	1d05660d 	stcne	6, cr6, [r5, #-52]	; 0xffffffcc
 7e0:	820b05d7 	andhi	r0, fp, #901775360	; 0x35c00000
 7e4:	054b1a05 	strbeq	r1, [fp, #-2565]	; 0xfffff5fb
 7e8:	1a058208 	bne	161010 <_start-0xbff9eff0>
 7ec:	8208054b 	andhi	r0, r8, #314572800	; 0x12c00000
 7f0:	054b1905 	strbeq	r1, [fp, #-2309]	; 0xfffff6fb
 7f4:	01058207 	tsteq	r5, r7, lsl #4
 7f8:	820e034b 	andhi	r0, lr, #738197505	; 0x2c000001
 7fc:	054b0205 	strbeq	r0, [fp, #-517]	; 0xfffffdfb
 800:	0d032f01 	stceq	15, cr2, [r3, #-4]
 804:	4b02054a 	blmi	81d34 <_start-0xc007e2cc>
 808:	032f0105 			; <UNDEFINED> instruction: 0x032f0105
 80c:	02054a0d 	andeq	r4, r5, #53248	; 0xd000
 810:	6931314c 	ldmdbvs	r1!, {r2, r3, r6, r8, ip, sp}
 814:	9f010568 	svcls	0x00010568
 818:	01000402 	tsteq	r0, r2, lsl #8
 81c:	00004e01 	andeq	r4, r0, r1, lsl #28
 820:	31000300 	mrscc	r0, LR_irq
 824:	02000000 	andeq	r0, r0, #0
 828:	0d0efb01 	vstreq	d15, [lr, #-4]
 82c:	01010100 	mrseq	r0, (UNDEF: 17)
 830:	00000001 	andeq	r0, r0, r1
 834:	01000001 	tsteq	r0, r1
 838:	64636c00 	strbtvs	r6, [r3], #-3072	; 0xfffff400
 83c:	305f375f 	subscc	r3, pc, pc, asr r7	; <UNPREDICTABLE>
 840:	0000632e 	andeq	r6, r0, lr, lsr #6
 844:	636c0000 	cmnvs	ip, #0
 848:	616d5f64 	cmnvs	sp, r4, ror #30
 84c:	6567616e 	strbvs	r6, [r7, #-366]!	; 0xfffffe92
 850:	00682e72 	rsbeq	r2, r8, r2, ror lr
 854:	00000000 	andeq	r0, r0, r0
 858:	05000105 	streq	r0, [r0, #-261]	; 0xfffffefb
 85c:	10139802 	andsne	r9, r3, r2, lsl #16
 860:	012b03c0 	smlawteq	fp, r0, r3, r0
 864:	054b0205 	strbeq	r0, [fp, #-517]	; 0xfffffdfb
 868:	04026701 	streq	r6, [r2], #-1793	; 0xfffff8ff
 86c:	35010100 	strcc	r0, [r1, #-256]	; 0xffffff00
 870:	03000003 	movweq	r0, #3
 874:	00006800 	andeq	r6, r0, r0, lsl #16
 878:	fb010200 	blx	41082 <_start-0xc00bef7e>
 87c:	01000d0e 	tsteq	r0, lr, lsl #26
 880:	00010101 	andeq	r0, r1, r1, lsl #2
 884:	00010000 	andeq	r0, r1, r0
 888:	53000100 	movwpl	r0, #256	; 0x100
 88c:	32336d74 	eorscc	r6, r3, #116, 26	; 0x1d00
 890:	3531706d 	ldrcc	r7, [r1, #-109]!	; 0xffffff93
 894:	6f635f37 	svcvs	0x00635f37
 898:	00632e6e 	rsbeq	r2, r3, lr, ror #28
 89c:	53000000 	movwpl	r0, #0
 8a0:	32336d74 	eorscc	r6, r3, #116, 26	; 0x1d00
 8a4:	3531706d 	ldrcc	r7, [r1, #-109]!	; 0xffffff93
 8a8:	6f735f37 	svcvs	0x00735f37
 8ac:	00682e63 	rsbeq	r2, r8, r3, ror #28
 8b0:	6c000000 	stcvs	0, cr0, [r0], {-0}
 8b4:	6d5f6463 	cfldrdvs	mvd6, [pc, #-396]	; 730 <_start-0xc00ff8d0>
 8b8:	67616e61 	strbvs	r6, [r1, -r1, ror #28]!
 8bc:	682e7265 	stmdavs	lr!, {r0, r2, r5, r6, r9, ip, sp, lr}
 8c0:	00000000 	andeq	r0, r0, r0
 8c4:	5f64636c 	svcpl	0x0064636c
 8c8:	746e6f63 	strbtvc	r6, [lr], #-3939	; 0xfffff09d
 8cc:	6c6c6f72 	stclvs	15, cr6, [ip], #-456	; 0xfffffe38
 8d0:	6d5f7265 	lfmvs	f7, 2, [pc, #-404]	; 744 <_start-0xc00ff8bc>
 8d4:	67616e61 	strbvs	r6, [r1, -r1, ror #28]!
 8d8:	682e7265 	stmdavs	lr!, {r0, r2, r5, r6, r9, ip, sp, lr}
 8dc:	00000000 	andeq	r0, r0, r0
 8e0:	00010500 	andeq	r0, r1, r0, lsl #10
 8e4:	13b40205 			; <UNDEFINED> instruction: 0x13b40205
 8e8:	2103c010 	tstcs	r3, r0, lsl r0
 8ec:	4b170501 	blmi	5c1cf8 <_start-0xbfb3e308>
 8f0:	9f9f9f9f 	svcls	0x009f9f9f
 8f4:	0310059f 	tsteq	r0, #666894336	; 0x27c00000
 8f8:	21089e0c 	tstcs	r8, ip, lsl #28
 8fc:	22081105 	andcs	r1, r8, #1073741825	; 0x40000001
 900:	21082108 	tstcs	r8, r8, lsl #2
 904:	21083e08 	tstcs	r8, r8, lsl #28
 908:	22080e05 	andcs	r0, r8, #5, 28	; 0x50
 90c:	21080705 	tstcs	r8, r5, lsl #14
 910:	02000a05 	andeq	r0, r0, #20480	; 0x5000
 914:	052e0104 	streq	r0, [lr, #-260]!	; 0xfffffefc
 918:	04020016 	streq	r0, [r2], #-22	; 0xffffffea
 91c:	07058201 	streq	r8, [r5, -r1, lsl #4]
 920:	01040200 	mrseq	r0, R12_usr
 924:	4b0e052e 	blmi	381de4 <_start-0xbfd7e21c>
 928:	22081505 	andcs	r1, r8, #20971520	; 0x1400000
 92c:	01052108 	tsteq	r5, r8, lsl #2
 930:	05842108 	streq	r2, [r4, #264]	; 0x108
 934:	12054b10 	andne	r4, r5, #16, 22	; 0x4000
 938:	9f11059f 	svcls	0x0011059f
 93c:	05a01005 	streq	r1, [r0, #5]!
 940:	059f9f12 	ldreq	r9, [pc, #3858]	; 185a <_start-0xc00fe7a6>
 944:	11059f13 	tstne	r5, r3, lsl pc
 948:	a010059f 	mulsge	r0, pc, r5	; <UNPREDICTABLE>
 94c:	9f9f1205 	svcls	0x009f1205
 950:	059f1105 	ldreq	r1, [pc, #261]	; a5d <_start-0xc00ff5a3>
 954:	1205a010 	andne	sl, r5, #16
 958:	11059f9f 			; <UNDEFINED> instruction: 0x11059f9f
 95c:	a010059f 	mulsge	r0, pc, r5	; <UNPREDICTABLE>
 960:	9f9f1205 	svcls	0x009f1205
 964:	059f1105 	ldreq	r1, [pc, #261]	; a71 <_start-0xc00ff58f>
 968:	1205a102 	andne	sl, r5, #-2147483648	; 0x80000000
 96c:	4b020566 	blmi	81f0c <_start-0xc007e0f4>
 970:	05661205 	strbeq	r1, [r6, #-517]!	; 0xfffffdfb
 974:	12054b02 	andne	r4, r5, #2048	; 0x800
 978:	4b020566 	blmi	81f18 <_start-0xc007e0e8>
 97c:	05661205 	strbeq	r1, [r6, #-517]!	; 0xfffffdfb
 980:	12054b02 	andne	r4, r5, #2048	; 0x800
 984:	4c020566 	cfstr32mi	mvfx0, [r2], {102}	; 0x66
 988:	05661005 	strbeq	r1, [r6, #-5]!
 98c:	10054b02 	andne	r4, r5, r2, lsl #22
 990:	4c020566 	cfstr32mi	mvfx0, [r2], {102}	; 0x66
 994:	05661005 	strbeq	r1, [r6, #-5]!
 998:	10056702 	andne	r6, r5, r2, lsl #14
 99c:	67020566 	strvs	r0, [r2, -r6, ror #10]
 9a0:	05661005 	strbeq	r1, [r6, #-5]!
 9a4:	10054c02 	andne	r4, r5, r2, lsl #24
 9a8:	67020566 	strvs	r0, [r2, -r6, ror #10]
 9ac:	05661005 	strbeq	r1, [r6, #-5]!
 9b0:	10056702 	andne	r6, r5, r2, lsl #14
 9b4:	4c020566 	cfstr32mi	mvfx0, [r2], {102}	; 0x66
 9b8:	05661005 	strbeq	r1, [r6, #-5]!
 9bc:	10056702 	andne	r6, r5, r2, lsl #14
 9c0:	67020566 	strvs	r0, [r2, -r6, ror #10]
 9c4:	05661005 	strbeq	r1, [r6, #-5]!
 9c8:	10054c02 	andne	r4, r5, r2, lsl #24
 9cc:	67020566 	strvs	r0, [r2, -r6, ror #10]
 9d0:	05661005 	strbeq	r1, [r6, #-5]!
 9d4:	10054b02 	andne	r4, r5, r2, lsl #22
 9d8:	680f0566 	stmdavs	pc, {r1, r2, r5, r6, r8, sl}	; <UNPREDICTABLE>
 9dc:	01052108 	tsteq	r5, r8, lsl #2
 9e0:	05842108 	streq	r2, [r4, #264]	; 0x108
 9e4:	05308502 	ldreq	r8, [r0, #-1282]!	; 0xfffffafe
 9e8:	4c05312f 	stfmis	f3, [r5], {47}	; 0x2f
 9ec:	4a51054a 	bmi	1441f1c <_start-0xbecbe0e4>
 9f0:	052e3505 	streq	r3, [lr, #-1285]!	; 0xfffffafb
 9f4:	13052e07 	movwne	r2, #24071	; 0x5e07
 9f8:	3107054a 	tstcc	r7, sl, asr #10
 9fc:	4c4a1305 	mcrrmi	3, 0, r1, sl, cr5
 a00:	05662b05 	strbeq	r2, [r6, #-2821]!	; 0xfffff4fb
 a04:	30054a46 	andcc	r4, r5, r6, asr #20
 a08:	2e50054a 	cdpcs	5, 5, cr0, cr0, cr10, {2}
 a0c:	844a1305 	strbhi	r1, [sl], #-773	; 0xfffffcfb
 a10:	05662b05 	strbeq	r2, [r6, #-2821]!	; 0xfffff4fb
 a14:	30054a46 	andcc	r4, r5, r6, asr #20
 a18:	2e4b054a 	cdpcs	5, 4, cr0, cr11, cr10, {2}
 a1c:	052e5005 	streq	r5, [lr, #-5]!
 a20:	07054a13 	smladeq	r5, r3, sl, r4
 a24:	4a130585 	bmi	4c2040 <_start-0xbfc3dfc0>
 a28:	662b054c 	strtvs	r0, [fp], -ip, asr #10
 a2c:	054a4605 	strbeq	r4, [sl, #-1541]	; 0xfffff9fb
 a30:	57054a30 	smladxpl	r5, r0, sl, r4
 a34:	4a4b052e 	bmi	12c1ef4 <_start-0xbee3e10c>
 a38:	052e6305 	streq	r6, [lr, #-773]!	; 0xfffffcfb
 a3c:	05844a13 	streq	r4, [r4, #2579]	; 0xa13
 a40:	4605662b 	strmi	r6, [r5], -fp, lsr #12
 a44:	4a30054a 	bmi	c01f74 <_start-0xbf4fe08c>
 a48:	052e5705 	streq	r5, [lr, #-1797]!	; 0xfffff8fb
 a4c:	5e054a4b 	vmlspl.f32	s8, s10, s22
 a50:	2e63052e 	cdpcs	5, 6, cr0, cr3, cr14, {1}
 a54:	054a1305 	strbeq	r1, [sl, #-773]	; 0xfffffcfb
 a58:	13058507 	movwne	r8, #21767	; 0x5507
 a5c:	2b054c4a 	blcs	153b8c <_start-0xbffac474>
 a60:	4a460566 	bmi	1182000 <_start-0xbef7e000>
 a64:	054a3005 	strbeq	r3, [sl, #-5]
 a68:	4b052e57 	blmi	14c3cc <_start-0xbffb3c34>
 a6c:	2e74054a 	cdpcs	5, 7, cr0, cr4, cr10, {2}
 a70:	054a5e05 	strbeq	r5, [sl, #-3589]	; 0xfffff1fb
 a74:	13052e7e 	movwne	r2, #24190	; 0x5e7e
 a78:	2b05844a 	blcs	161ba8 <_start-0xbff9e458>
 a7c:	4a460566 	bmi	118201c <_start-0xbef7dfe4>
 a80:	054a3005 	strbeq	r3, [sl, #-5]
 a84:	4b052e57 	blmi	14c3e8 <_start-0xbffb3c18>
 a88:	2e74054a 	cdpcs	5, 7, cr0, cr4, cr10, {2}
 a8c:	054a5e05 	strbeq	r5, [sl, #-3589]	; 0xfffff1fb
 a90:	7e052e79 	mcrvc	14, 0, r2, cr5, cr9, {3}
 a94:	4a13052e 	bmi	4c1f54 <_start-0xbfc3e0ac>
 a98:	d8851205 	stmle	r5, {r0, r2, r9, ip}
 a9c:	05662905 	strbeq	r2, [r6, #-2309]!	; 0xfffff6fb
 aa0:	12054a30 	andne	r4, r5, #48, 20	; 0x30000
 aa4:	2905844a 	stmdbcs	r5, {r1, r3, r6, sl, pc}
 aa8:	4a300566 	bmi	c02048 <_start-0xbf4fdfb8>
 aac:	844a1205 	strbhi	r1, [sl], #-517	; 0xfffffdfb
 ab0:	05662905 	strbeq	r2, [r6, #-2309]!	; 0xfffff6fb
 ab4:	12054a30 	andne	r4, r5, #48, 20	; 0x30000
 ab8:	2905844a 	stmdbcs	r5, {r1, r3, r6, sl, pc}
 abc:	4a300566 	bmi	c0205c <_start-0xbf4fdfa4>
 ac0:	054a1205 	strbeq	r1, [sl, #-517]	; 0xfffffdfb
 ac4:	2e058516 	mcrcs	5, 0, r8, cr5, cr6, {0}
 ac8:	4a490566 	bmi	1242068 <_start-0xbeebdf98>
 acc:	054a3305 	strbeq	r3, [sl, #-773]	; 0xfffffcfb
 ad0:	4e052e5a 	mcrmi	14, 0, r2, cr5, cr10, {2}
 ad4:	2e61054a 	cdpcs	5, 6, cr0, cr1, cr10, {2}
 ad8:	052e6605 	streq	r6, [lr, #-1541]!	; 0xfffff9fb
 adc:	052e0183 	streq	r0, [lr, #-387]!	; 0xfffffe7d
 ae0:	054a019e 	strbeq	r0, [sl, #-414]	; 0xfffffe62
 ae4:	054a0188 	strbeq	r0, [sl, #-392]	; 0xfffffe78
 ae8:	16052e6c 	strne	r2, [r5], -ip, ror #28
 aec:	2e05844a 	cdpcs	4, 0, cr8, cr5, cr10, {2}
 af0:	4a490566 	bmi	1242090 <_start-0xbeebdf70>
 af4:	054a3305 	strbeq	r3, [sl, #-773]	; 0xfffffcfb
 af8:	4e052e5a 	mcrmi	14, 0, r2, cr5, cr10, {2}
 afc:	2e61054a 	cdpcs	5, 6, cr0, cr1, cr10, {2}
 b00:	052e6605 	streq	r6, [lr, #-1541]!	; 0xfffff9fb
 b04:	052e0183 	streq	r0, [lr, #-387]!	; 0xfffffe7d
 b08:	054a019e 	strbeq	r0, [sl, #-414]	; 0xfffffe62
 b0c:	054a0188 	strbeq	r0, [sl, #-392]	; 0xfffffe78
 b10:	16052e6c 	strne	r2, [r5], -ip, ror #28
 b14:	8423054a 	strthi	r0, [r3], #-1354	; 0xfffffab6
 b18:	054a3705 	strbeq	r3, [sl, #-1797]	; 0xfffff8fb
 b1c:	2a054a3c 	bcs	153414 <_start-0xbffacbec>
 b20:	2e41052e 	cdpcs	5, 4, cr0, cr1, cr14, {1}
 b24:	052e5305 	streq	r5, [lr, #-773]!	; 0xfffffcfb
 b28:	6c054a67 			; <UNDEFINED> instruction: 0x6c054a67
 b2c:	2e5a054a 	cdpcs	5, 5, cr0, cr10, cr10, {2}
 b30:	052e7105 	streq	r7, [lr, #-261]!	; 0xfffffefb
 b34:	07052e46 	streq	r2, [r5, -r6, asr #28]
 b38:	4a16052e 	bmi	581ff8 <_start-0xbfb7e008>
 b3c:	05302305 	ldreq	r2, [r0, #-773]!	; 0xfffffcfb
 b40:	17054a07 	strne	r4, [r5, -r7, lsl #20]
 b44:	3107054a 	tstcc	r7, sl, asr #10
 b48:	054a1505 	strbeq	r1, [sl, #-1285]	; 0xfffffafb
 b4c:	4a0a0307 	bmi	281770 <_start-0xbfe7e890>
 b50:	054a1505 	strbeq	r1, [sl, #-1285]	; 0xfffffafb
 b54:	06054d17 			; <UNDEFINED> instruction: 0x06054d17
 b58:	a10d054a 	tstge	sp, sl, asr #10
 b5c:	054a0405 	strbeq	r0, [sl, #-1029]	; 0xfffffbfb
 b60:	0405300d 	streq	r3, [r5], #-13
 b64:	300d054a 	andcc	r0, sp, sl, asr #10
 b68:	054a0405 	strbeq	r0, [sl, #-1029]	; 0xfffffbfb
 b6c:	17053108 	strne	r3, [r5, -r8, lsl #2]
 b70:	4b16054a 	blmi	5820a0 <_start-0xbfb7df60>
 b74:	05f40805 	ldrbeq	r0, [r4, #2053]!	; 0x805
 b78:	17054a23 	strne	r4, [r5, -r3, lsr #20]
 b7c:	3014054a 	andscc	r0, r4, sl, asr #10
 b80:	68d80105 	ldmvs	r8, {r0, r2, r8}^
 b84:	d84b1305 	stmdale	fp, {r0, r2, r8, r9, ip}^
 b88:	05d80d05 	ldrbeq	r0, [r8, #3333]	; 0xd05
 b8c:	84210801 	strthi	r0, [r1], #-2049	; 0xfffff7ff
 b90:	054b1205 	strbeq	r1, [fp, #-517]	; 0xfffffdfb
 b94:	0105d80d 	tsteq	r5, sp, lsl #16
 b98:	14032108 	strne	r2, [r3], #-264	; 0xfffffef8
 b9c:	4b020582 	blmi	821ac <_start-0xc007de54>
 ba0:	02670105 	rsbeq	r0, r7, #1073741825	; 0x40000001
 ba4:	01010004 	tsteq	r1, r4

Disassembly of section .debug_info:

00000000 <.debug_info>:
       0:	00000022 	andeq	r0, r0, r2, lsr #32
       4:	00000002 	andeq	r0, r0, r2
       8:	01040000 	mrseq	r0, (UNDEF: 4)
       c:	00000000 	andeq	r0, r0, r0
      10:	c0100000 	andsgt	r0, r0, r0
      14:	c010003c 	andsgt	r0, r0, ip, lsr r0
      18:	00000000 	andeq	r0, r0, r0
      1c:	00000008 	andeq	r0, r0, r8
      20:	00000035 	andeq	r0, r0, r5, lsr r0
      24:	00e88001 	rsceq	r8, r8, r1
      28:	00040000 	andeq	r0, r4, r0
      2c:	00000014 	andeq	r0, r0, r4, lsl r0
      30:	005b0104 	subseq	r0, fp, r4, lsl #2
      34:	410c0000 	mrsmi	r0, (UNDEF: 12)
      38:	08000000 	stmdaeq	r0, {}	; <UNPREDICTABLE>
      3c:	3c000000 	stccc	0, cr0, [r0], {-0}
      40:	6cc01000 	stclvs	0, cr1, [r0], {0}
      44:	47000005 	strmi	r0, [r0, -r5]
      48:	02000000 	andeq	r0, r0, #0
      4c:	00e70704 	rsceq	r0, r7, r4, lsl #14
      50:	04030000 	streq	r0, [r3], #-0
      54:	746e6905 	strbtvc	r6, [lr], #-2309	; 0xfffff6fb
      58:	08010200 	stmdaeq	r1, {r9}
      5c:	000004dd 	ldrdeq	r0, [r0], -sp
      60:	00004804 	andeq	r4, r0, r4, lsl #16
      64:	056a0100 	strbeq	r0, [sl, #-256]!	; 0xffffff00
      68:	0000002c 	andeq	r0, r0, ip, lsr #32
      6c:	c010058c 	andsgt	r0, r0, ip, lsl #11
      70:	0000001c 	andeq	r0, r0, ip, lsl r0
      74:	52059c01 	andpl	r9, r5, #256	; 0x100
      78:	01000000 	mrseq	r0, (UNDEF: 0)
      7c:	003c0606 	eorseq	r0, ip, r6, lsl #12
      80:	0550c010 	ldrbeq	ip, [r0, #-16]
      84:	9c010000 	stcls	0, cr0, [r1], {-0}
      88:	000000d8 	ldrdeq	r0, [r0], -r8
      8c:	0000d906 	andeq	sp, r0, r6, lsl #18
      90:	0f080100 	svceq	0x00080100
      94:	00000025 	andeq	r0, r0, r5, lsr #32
      98:	06649102 	strbteq	r9, [r4], -r2, lsl #2
      9c:	0000004d 	andeq	r0, r0, sp, asr #32
      a0:	2c060901 			; <UNDEFINED> instruction: 0x2c060901
      a4:	02000000 	andeq	r0, r0, #0
      a8:	f4066091 	vst4.32	{d6-d9}, [r6 :64], r1
      ac:	01000000 	mrseq	r0, (UNDEF: 0)
      b0:	002c0c09 	eoreq	r0, ip, r9, lsl #24
      b4:	91020000 	mrsls	r0, (UNDEF: 2)
      b8:	7062075c 	rsbvc	r0, r2, ip, asr r7
      bc:	09010070 	stmdbeq	r1, {r4, r5, r6}
      c0:	00002c12 	andeq	r2, r0, r2, lsl ip
      c4:	58910200 	ldmpl	r1, {r9}
      c8:	01007807 	tsteq	r0, r7, lsl #16
      cc:	002c060a 	eoreq	r0, ip, sl, lsl #12
      d0:	91020000 	mrsls	r0, (UNDEF: 2)
      d4:	00790774 	rsbseq	r0, r9, r4, ror r7
      d8:	2c090a01 			; <UNDEFINED> instruction: 0x2c090a01
      dc:	02000000 	andeq	r0, r0, #0
      e0:	70077091 	mulvc	r7, r1, r0
      e4:	120b0100 	andne	r0, fp, #0, 2
      e8:	000000d8 	ldrdeq	r0, [r0], -r8
      ec:	076c9102 	strbeq	r9, [ip, -r2, lsl #2]!
      f0:	01003270 	tsteq	r0, r0, ror r2
      f4:	00e5100c 	rsceq	r1, r5, ip
      f8:	91020000 	mrsls	r0, (UNDEF: 2)
      fc:	04080068 	streq	r0, [r8], #-104	; 0xffffff98
     100:	000000de 	ldrdeq	r0, [r0], -lr
     104:	e1070202 	tst	r7, r2, lsl #4
     108:	08000000 	stmdaeq	r0, {}	; <UNPREDICTABLE>
     10c:	00002504 	andeq	r2, r0, r4, lsl #10
     110:	01220000 			; <UNDEFINED> instruction: 0x01220000
     114:	00040000 	andeq	r0, r4, r0
     118:	000000a1 	andeq	r0, r0, r1, lsr #1
     11c:	005b0104 	subseq	r0, fp, r4, lsl #2
     120:	f90c0000 			; <UNDEFINED> instruction: 0xf90c0000
     124:	08000000 	stmdaeq	r0, {}	; <UNPREDICTABLE>
     128:	a8000000 	stmdage	r0, {}	; <UNPREDICTABLE>
     12c:	50c01005 	sbcpl	r1, r0, r5
     130:	00000007 	andeq	r0, r0, r7
     134:	02000003 	andeq	r0, r0, #3
     138:	00000116 	andeq	r0, r0, r6, lsl r1
     13c:	8c074401 	cfstrshi	mvf4, [r7], {1}
     140:	6cc01007 	stclvs	0, cr1, [r0], {7}
     144:	01000005 	tsteq	r0, r5
     148:	0000ac9c 	muleq	r0, ip, ip
     14c:	31780300 	cmncc	r8, r0, lsl #6
     150:	15440100 	strbne	r0, [r4, #-256]	; 0xffffff00
     154:	000000ac 	andeq	r0, r0, ip, lsr #1
     158:	03649102 	cmneq	r4, #-2147483648	; 0x80000000
     15c:	01003179 	tsteq	r0, r9, ror r1
     160:	00ac1c44 	adceq	r1, ip, r4, asr #24
     164:	91020000 	mrsls	r0, (UNDEF: 2)
     168:	32780360 	rsbscc	r0, r8, #96, 6	; 0x80000001
     16c:	23440100 	movtcs	r0, #16640	; 0x4100
     170:	000000ac 	andeq	r0, r0, ip, lsr #1
     174:	035c9102 	cmpeq	ip, #-2147483648	; 0x80000000
     178:	01003279 	tsteq	r0, r9, ror r2
     17c:	00ac2a44 	adceq	r2, ip, r4, asr #20
     180:	91020000 	mrsls	r0, (UNDEF: 2)
     184:	01100458 	tsteq	r0, r8, asr r4
     188:	44010000 	strmi	r0, [r1], #-0
     18c:	0000ac31 	andeq	sl, r0, r1, lsr ip
     190:	00910200 	addseq	r0, r1, r0, lsl #4
     194:	00786405 	rsbseq	r6, r8, r5, lsl #8
     198:	ac074601 	stcge	6, cr4, [r7], {1}
     19c:	02000000 	andeq	r0, r0, #0
     1a0:	64057091 	strvs	r7, [r5], #-145	; 0xffffff6f
     1a4:	46010079 			; <UNDEFINED> instruction: 0x46010079
     1a8:	0000ac0a 	andeq	sl, r0, sl, lsl #24
     1ac:	6c910200 	lfmvs	f0, 4, [r1], {0}
     1b0:	01006505 	tsteq	r0, r5, lsl #10
     1b4:	00ac0d46 	adceq	r0, ip, r6, asr #26
     1b8:	91020000 	mrsls	r0, (UNDEF: 2)
     1bc:	04060074 	streq	r0, [r6], #-116	; 0xffffff8c
     1c0:	746e6905 	strbtvc	r6, [lr], #-2309	; 0xfffff6fb
     1c4:	01040700 	tsteq	r4, r0, lsl #14
     1c8:	1d010000 	stcne	0, cr0, [r1, #-0]
     1cc:	1005a807 	andne	sl, r5, r7, lsl #16
     1d0:	0001e4c0 	andeq	lr, r1, r0, asr #9
     1d4:	039c0100 	orrseq	r0, ip, #0, 2
     1d8:	1d010078 	stcne	0, cr0, [r1, #-480]	; 0xfffffe20
     1dc:	0000ac17 	andeq	sl, r0, r7, lsl ip
     1e0:	64910200 	ldrvs	r0, [r1], #512	; 0x200
     1e4:	01007903 	tsteq	r0, r3, lsl #18
     1e8:	00ac1e1d 	adceq	r1, ip, sp, lsl lr
     1ec:	91020000 	mrsls	r0, (UNDEF: 2)
     1f0:	00720360 	rsbseq	r0, r2, r0, ror #6
     1f4:	ac251d01 	stcge	13, cr1, [r5], #-4
     1f8:	02000000 	andeq	r0, r0, #0
     1fc:	10045c91 	mulne	r4, r1, ip
     200:	01000001 	tsteq	r0, r1
     204:	00ac2c1d 	adceq	r2, ip, sp, lsl ip
     208:	91020000 	mrsls	r0, (UNDEF: 2)
     20c:	00610558 	rsbeq	r0, r1, r8, asr r5
     210:	ac071f01 	stcge	15, cr1, [r7], {1}
     214:	02000000 	andeq	r0, r0, #0
     218:	62057491 	andvs	r7, r5, #-1862270976	; 0x91000000
     21c:	0a1f0100 	beq	7c0624 <_start-0xbf93f9dc>
     220:	000000ac 	andeq	r0, r0, ip, lsr #1
     224:	05709102 	ldrbeq	r9, [r0, #-258]!	; 0xfffffefe
     228:	006d756e 	rsbeq	r7, sp, lr, ror #10
     22c:	ac0d1f01 	stcge	15, cr1, [sp], {1}
     230:	02000000 	andeq	r0, r0, #0
     234:	00006c91 	muleq	r0, r1, ip
     238:	00000161 	andeq	r0, r0, r1, ror #2
     23c:	01290004 			; <UNDEFINED> instruction: 0x01290004
     240:	01040000 	mrseq	r0, (UNDEF: 4)
     244:	0000005b 	andeq	r0, r0, fp, asr r0
     248:	00015e0c 	andeq	r5, r1, ip, lsl #28
     24c:	00000800 	andeq	r0, r0, r0, lsl #16
     250:	100cf800 	andne	pc, ip, r0, lsl #16
     254:	0001d8c0 	andeq	sp, r1, r0, asr #17
     258:	00050600 	andeq	r0, r5, r0, lsl #12
     25c:	07040200 	streq	r0, [r4, -r0, lsl #4]
     260:	000000e7 	andeq	r0, r0, r7, ror #1
     264:	69050403 	stmdbvs	r5, {r0, r1, sl}
     268:	0200746e 	andeq	r7, r0, #1845493760	; 0x6e000000
     26c:	04dd0801 	ldrbeq	r0, [sp], #2049	; 0x801
     270:	d9040000 	stmdble	r4, {}	; <UNPREDICTABLE>
     274:	01000000 	mrseq	r0, (UNDEF: 0)
     278:	00251508 	eoreq	r1, r5, r8, lsl #10
     27c:	03050000 	movweq	r0, #20480	; 0x5000
     280:	c0101fa4 	andsgt	r1, r0, r4, lsr #31
     284:	00004d04 	andeq	r4, r0, r4, lsl #26
     288:	0c090100 	stfeqs	f0, [r9], {-0}
     28c:	0000002c 	andeq	r0, r0, ip, lsr #32
     290:	1fa80305 	svcne	0x00a80305
     294:	f404c010 	vst4.8	{d12-d15}, [r4 :64], r0
     298:	01000000 	mrseq	r0, (UNDEF: 0)
     29c:	002c1209 	eoreq	r1, ip, r9, lsl #4
     2a0:	03050000 	movweq	r0, #20480	; 0x5000
     2a4:	c0101fac 	andsgt	r1, r0, ip, lsr #31
     2a8:	70706205 	rsbsvc	r6, r0, r5, lsl #4
     2ac:	18090100 	stmdane	r9, {r8}
     2b0:	0000002c 	andeq	r0, r0, ip, lsr #32
     2b4:	1fb00305 	svcne	0x00b00305
     2b8:	3f06c010 	svccc	0x0006c010
     2bc:	01000001 	tsteq	r0, r1
     2c0:	0dd00638 	ldcleq	6, cr0, [r0, #224]	; 0xe0
     2c4:	0100c010 	tsteq	r0, r0, lsl r0
     2c8:	9c010000 	stcls	0, cr0, [r1], {-0}
     2cc:	000000ee 	andeq	r0, r0, lr, ror #1
     2d0:	01007807 	tsteq	r0, r7, lsl #16
     2d4:	002c1738 	eoreq	r1, ip, r8, lsr r7
     2d8:	91020000 	mrsls	r0, (UNDEF: 2)
     2dc:	00790764 	rsbseq	r0, r9, r4, ror #14
     2e0:	2c1e3801 	ldccs	8, cr3, [lr], {1}
     2e4:	02000000 	andeq	r0, r0, #0
     2e8:	10086091 	mulne	r8, r1, r0
     2ec:	01000001 	tsteq	r0, r1
     2f0:	00252e38 	eoreq	r2, r5, r8, lsr lr
     2f4:	91020000 	mrsls	r0, (UNDEF: 2)
     2f8:	7770055c 			; <UNDEFINED> instruction: 0x7770055c
     2fc:	123a0100 	eorsne	r0, sl, #0, 2
     300:	000000ee 	andeq	r0, r0, lr, ror #1
     304:	05709102 	ldrbeq	r9, [r0, #-258]!	; 0xfffffefe
     308:	00776470 	rsbseq	r6, r7, r0, ror r4
     30c:	fb123b01 	blx	48ef1a <_start-0xbfc710e6>
     310:	02000000 	andeq	r0, r0, #0
     314:	20046c91 	mulcs	r4, r1, ip
     318:	01000001 	tsteq	r0, r1
     31c:	00250f3d 	eoreq	r0, r5, sp, lsr pc
     320:	91020000 	mrsls	r0, (UNDEF: 2)
     324:	04090074 	streq	r0, [r9], #-116	; 0xffffff8c
     328:	000000f4 	strdeq	r0, [r0], -r4
     32c:	e1070202 	tst	r7, r2, lsl #4
     330:	09000000 	stmdbeq	r0, {}	; <UNPREDICTABLE>
     334:	00002504 	andeq	r2, r0, r4, lsl #10
     338:	012b0a00 			; <UNDEFINED> instruction: 0x012b0a00
     33c:	1b010000 	blne	40344 <_start-0xc00bfcbc>
     340:	0000f410 	andeq	pc, r0, r0, lsl r4	; <UNPREDICTABLE>
     344:	100d2c00 	andne	r2, sp, r0, lsl #24
     348:	0000a4c0 	andeq	sl, r0, r0, asr #9
     34c:	529c0100 	addspl	r0, ip, #0, 2
     350:	07000001 	streq	r0, [r0, -r1]
     354:	00626772 	rsbeq	r6, r2, r2, ror r7
     358:	25311b01 	ldrcs	r1, [r1, #-2817]!	; 0xfffff4ff
     35c:	02000000 	andeq	r0, r0, #0
     360:	72056491 	andvc	r6, r5, #-1862270976	; 0x91000000
     364:	061d0100 	ldreq	r0, [sp], -r0, lsl #2
     368:	0000002c 	andeq	r0, r0, ip, lsr #32
     36c:	05749102 	ldrbeq	r9, [r4, #-258]!	; 0xfffffefe
     370:	1e010067 	cdpne	0, 0, cr0, cr1, cr7, {3}
     374:	00002c06 	andeq	r2, r0, r6, lsl #24
     378:	70910200 	addsvc	r0, r1, r0, lsl #4
     37c:	01006205 	tsteq	r0, r5, lsl #4
     380:	002c061f 	eoreq	r0, ip, pc, lsl r6
     384:	91020000 	mrsls	r0, (UNDEF: 2)
     388:	4c0b006c 	stcmi	0, cr0, [fp], {108}	; 0x6c
     38c:	01000001 	tsteq	r0, r1
     390:	0cf80615 	ldcleq	6, cr0, [r8], #84	; 0x54
     394:	0034c010 	eorseq	ip, r4, r0, lsl r0
     398:	9c010000 	stcls	0, cr0, [r1], {-0}
     39c:	00033f00 	andeq	r3, r3, r0, lsl #30
     3a0:	f4000400 	vst3.8	{d0-d2}, [r0], r0
     3a4:	04000001 	streq	r0, [r0], #-1
     3a8:	00005b01 	andeq	r5, r0, r1, lsl #22
     3ac:	01b90c00 			; <UNDEFINED> instruction: 0x01b90c00
     3b0:	00080000 	andeq	r0, r8, r0
     3b4:	0ed00000 	cdpeq	0, 13, cr0, cr0, cr0, {0}
     3b8:	0270c010 	rsbseq	ip, r0, #16
     3bc:	05b00000 	ldreq	r0, [r0, #0]!
     3c0:	04020000 	streq	r0, [r2], #-0
     3c4:	0000e707 	andeq	lr, r0, r7, lsl #14
     3c8:	019a0300 	orrseq	r0, sl, r0, lsl #6
     3cc:	02100000 	andseq	r0, r0, #0
     3d0:	006d100c 	rsbeq	r1, sp, ip
     3d4:	64040000 	strvs	r0, [r4], #-0
     3d8:	0d020065 	stceq	0, cr0, [r2, #-404]	; 0xfffffe6c
     3dc:	00006d06 	andeq	r6, r0, r6, lsl #26
     3e0:	0c050000 	stceq	0, cr0, [r5], {-0}
     3e4:	02000002 	andeq	r0, r0, #2
     3e8:	006d060e 	rsbeq	r0, sp, lr, lsl #12
     3ec:	05040000 	streq	r0, [r4, #-0]
     3f0:	000001ee 	andeq	r0, r0, lr, ror #3
     3f4:	6d060f02 	stcvs	15, cr0, [r6, #-8]
     3f8:	08000000 	stmdaeq	r0, {}	; <UNPREDICTABLE>
     3fc:	00025205 	andeq	r5, r2, r5, lsl #4
     400:	06100200 	ldreq	r0, [r0], -r0, lsl #4
     404:	0000006d 	andeq	r0, r0, sp, rrx
     408:	0406000c 	streq	r0, [r6], #-12
     40c:	746e6905 	strbtvc	r6, [lr], #-2309	; 0xfffff6fb
     410:	019a0700 	orrseq	r0, sl, r0, lsl #14
     414:	11020000 	mrsne	r0, (UNDEF: 2)
     418:	00002c02 	andeq	r2, r0, r2, lsl #24
     41c:	02660300 	rsbeq	r0, r6, #0, 6
     420:	021c0000 	andseq	r0, ip, #0
     424:	00e91013 	rsceq	r1, r9, r3, lsl r0
     428:	74040000 	strvc	r0, [r4], #-0
     42c:	02007076 	andeq	r7, r0, #118	; 0x76
     430:	006d0615 	rsbeq	r0, sp, r5, lsl r6
     434:	04000000 	streq	r0, [r0], #-0
     438:	00627674 	rsbeq	r7, r2, r4, ror r6
     43c:	6d061602 	stcvs	6, cr1, [r6, #-8]
     440:	04000000 	streq	r0, [r0], #-0
     444:	66767404 	ldrbtvs	r7, [r6], -r4, lsl #8
     448:	06170200 	ldreq	r0, [r7], -r0, lsl #4
     44c:	0000006d 	andeq	r0, r0, sp, rrx
     450:	68740408 	ldmdavs	r4!, {r3, sl}^
     454:	1a020070 	bne	8061c <_start-0xc007f9e4>
     458:	00006d06 	andeq	r6, r0, r6, lsl #26
     45c:	74040c00 	strvc	r0, [r4], #-3072	; 0xfffff400
     460:	02006268 	andeq	r6, r0, #104, 4	; 0x80000006
     464:	006d061b 	rsbeq	r0, sp, fp, lsl r6
     468:	04100000 	ldreq	r0, [r0], #-0
     46c:	00666874 	rsbeq	r6, r6, r4, ror r8
     470:	6d061c02 	stcvs	12, cr1, [r6, #-8]
     474:	14000000 	strne	r0, [r0], #-0
     478:	00020c05 	andeq	r0, r2, r5, lsl #24
     47c:	061e0200 	ldreq	r0, [lr], -r0, lsl #4
     480:	0000006d 	andeq	r0, r0, sp, rrx
     484:	66070018 			; <UNDEFINED> instruction: 0x66070018
     488:	02000002 	andeq	r0, r0, #2
     48c:	0080021f 	addeq	r0, r0, pc, lsl r2
     490:	13030000 	movwne	r0, #12288	; 0x3000
     494:	40000002 	andmi	r0, r0, r2
     498:	5e102202 	cdppl	2, 1, cr2, cr0, cr2, {0}
     49c:	05000001 	streq	r0, [r0, #-1]
     4a0:	00000258 	andeq	r0, r0, r8, asr r2
     4a4:	5e082402 	cdppl	4, 0, cr2, cr8, cr2, {0}
     4a8:	00000001 	andeq	r0, r0, r1
     4ac:	00025d05 	andeq	r5, r2, r5, lsl #26
     4b0:	10270200 	eorne	r0, r7, r0, lsl #4
     4b4:	00000074 	andeq	r0, r0, r4, ror r0
     4b8:	01a80504 			; <UNDEFINED> instruction: 0x01a80504
     4bc:	2a020000 	bcs	804c4 <_start-0xc007fb3c>
     4c0:	0000e910 	andeq	lr, r0, r0, lsl r9
     4c4:	4d051400 	cfstrsmi	mvf1, [r5, #-0]
     4c8:	02000000 	andeq	r0, r0, #0
     4cc:	006d062d 	rsbeq	r0, sp, sp, lsr #12
     4d0:	05300000 	ldreq	r0, [r0, #-0]!
     4d4:	000000f4 	strdeq	r0, [r0], -r4
     4d8:	6d062e02 	stcvs	14, cr2, [r6, #-8]
     4dc:	34000000 	strcc	r0, [r0], #-0
     4e0:	70706204 	rsbsvc	r6, r0, r4, lsl #4
     4e4:	062f0200 	strteq	r0, [pc], -r0, lsl #4
     4e8:	0000006d 	andeq	r0, r0, sp, rrx
     4ec:	00d90538 	sbcseq	r0, r9, r8, lsr r5
     4f0:	32020000 	andcc	r0, r2, #0
     4f4:	0000250f 	andeq	r2, r0, pc, lsl #10
     4f8:	08003c00 	stmdaeq	r0, {sl, fp, ip, sp}
     4fc:	00016404 	andeq	r6, r1, r4, lsl #8
     500:	08010200 	stmdaeq	r1, {r9}
     504:	000004dd 	ldrdeq	r0, [r0], -sp
     508:	00016409 	andeq	r6, r1, r9, lsl #8
     50c:	02110700 	andseq	r0, r1, #0, 14
     510:	34020000 	strcc	r0, [r2], #-0
     514:	00017c0f 	andeq	r7, r1, pc, lsl #24
     518:	f5040800 			; <UNDEFINED> instruction: 0xf5040800
     51c:	03000000 	movweq	r0, #0
     520:	00000353 	andeq	r0, r0, r3, asr r3
     524:	10070310 	andne	r0, r7, r0, lsl r3
     528:	000001c4 	andeq	r0, r0, r4, asr #3
     52c:	00025805 	andeq	r5, r2, r5, lsl #16
     530:	08080300 	stmdaeq	r8, {r8, r9}
     534:	0000015e 	andeq	r0, r0, lr, asr r1
     538:	02920500 	addseq	r0, r2, #0, 10
     53c:	09030000 	stmdbeq	r3, {}	; <UNPREDICTABLE>
     540:	0001cf09 	andeq	ip, r1, r9, lsl #30
     544:	b3050400 	movwlt	r0, #21504	; 0x5400
     548:	03000002 	movweq	r0, #2
     54c:	01d6080a 	bicseq	r0, r6, sl, lsl #16
     550:	05080000 	streq	r0, [r8, #-0]
     554:	0000029b 	muleq	r0, fp, r2
     558:	d6080b03 	strle	r0, [r8], -r3, lsl #22
     55c:	0c000001 	stceq	0, cr0, [r0], {1}
     560:	01cf0a00 	biceq	r0, pc, r0, lsl #20
     564:	700b0000 	andvc	r0, fp, r0
     568:	00000001 	andeq	r0, r0, r1
     56c:	01c40408 	biceq	r0, r4, r8, lsl #8
     570:	080c0000 	stmdaeq	ip, {}	; <UNPREDICTABLE>
     574:	0001d504 	andeq	sp, r1, r4, lsl #10
     578:	016c0700 	cmneq	ip, r0, lsl #14
     57c:	0c030000 	stceq	0, cr0, [r3], {-0}
     580:	0001e813 	andeq	lr, r1, r3, lsl r8
     584:	82040800 	andhi	r0, r4, #0, 16
     588:	0d000001 	stceq	0, cr0, [r0, #-4]
     58c:	000001dc 	ldrdeq	r0, [r0], -ip
     590:	000001fe 	strdeq	r0, [r0], -lr
     594:	0000250e 	andeq	r2, r0, lr, lsl #10
     598:	0f000900 	svceq	0x00000900
     59c:	0000021e 	andeq	r0, r0, lr, lsl r2
     5a0:	ee190701 	cdp	7, 1, cr0, cr9, cr1, {0}
     5a4:	05000001 	streq	r0, [r0, #-1]
     5a8:	101fb403 	andsne	fp, pc, r3, lsl #8
     5ac:	01d20fc0 	bicseq	r0, r2, r0, asr #31
     5b0:	08010000 	stmdaeq	r1, {}	; <UNPREDICTABLE>
     5b4:	0001dc19 	andeq	sp, r1, r9, lsl ip
     5b8:	dc030500 	cfstr32le	mvfx0, [r3], {-0}
     5bc:	10c0101f 	sbcne	r1, r0, pc, lsl r0
     5c0:	0000017d 	andeq	r0, r0, sp, ror r1
     5c4:	2c069201 	sfmcs	f1, 1, [r6], {1}
     5c8:	14c01011 	strbne	r1, [r0], #17
     5cc:	01000000 	mrseq	r0, (UNDEF: 0)
     5d0:	0681109c 	pkhbteq	r1, r1, ip, lsl #1
     5d4:	80010000 	andhi	r0, r1, r0
     5d8:	1010f406 	andsne	pc, r0, r6, lsl #8
     5dc:	000038c0 	andeq	r3, r0, r0, asr #17
     5e0:	109c0100 	addsne	r0, ip, r0, lsl #2
     5e4:	000004f6 	strdeq	r0, [r0], -r6
     5e8:	bc066e01 	stclt	14, cr6, [r6], {1}
     5ec:	38c01010 	stmiacc	r0, {r4, ip}^
     5f0:	01000000 	mrseq	r0, (UNDEF: 0)
     5f4:	049c119c 	ldreq	r1, [ip], #412	; 0x19c
     5f8:	5a010000 	bpl	40600 <_start-0xc00bfa00>
     5fc:	00006d05 	andeq	r6, r0, r5, lsl #26
     600:	10106800 	andsne	r6, r0, r0, lsl #16
     604:	000054c0 	andeq	r5, r0, r0, asr #9
     608:	829c0100 	addshi	r0, ip, #0, 2
     60c:	12000002 	andne	r0, r0, #2
     610:	0000018f 	andeq	r0, r0, pc, lsl #3
     614:	70265a01 	eorvc	r5, r6, r1, lsl #20
     618:	02000001 	andeq	r0, r0, #1
     61c:	11007491 			; <UNDEFINED> instruction: 0x11007491
     620:	0000023c 	andeq	r0, r0, ip, lsr r2
     624:	6d054201 	sfmvs	f4, 4, [r5, #-4]
     628:	bc000000 	stclt	0, cr0, [r0], {-0}
     62c:	acc0100f 	stclge	0, cr1, [r0], {15}
     630:	01000000 	mrseq	r0, (UNDEF: 0)
     634:	0002b99c 	muleq	r2, ip, r9
     638:	02581200 	subseq	r1, r8, #0, 4
     63c:	42010000 	andmi	r0, r1, #0
     640:	00015e21 	andeq	r5, r1, r1, lsr #28
     644:	6c910200 	lfmvs	f0, 4, [r1], {0}
     648:	01006913 	tsteq	r0, r3, lsl r9
     64c:	006d0644 	rsbeq	r0, sp, r4, asr #12
     650:	91020000 	mrsls	r0, (UNDEF: 2)
     654:	f4140074 			; <UNDEFINED> instruction: 0xf4140074
     658:	01000001 	tsteq	r0, r1
     65c:	006d052a 	rsbeq	r0, sp, sl, lsr #10
     660:	0f400000 	svceq	0x00400000
     664:	007cc010 	rsbseq	ip, ip, r0, lsl r0
     668:	9c010000 	stcls	0, cr0, [r1], {-0}
     66c:	000002f0 	strdeq	r0, [r0], -r0	; <UNPREDICTABLE>
     670:	0001b112 	andeq	fp, r1, r2, lsl r1
     674:	2e2a0100 	sufcse	f0, f2, f0
     678:	000001dc 	ldrdeq	r0, [r0], -ip
     67c:	136c9102 	cmnne	ip, #-2147483648	; 0x80000000
     680:	2c010069 	stccs	0, cr0, [r1], {105}	; 0x69
     684:	00006d06 	andeq	r6, r0, r6, lsl #26
     688:	74910200 	ldrvc	r0, [r1], #512	; 0x200
     68c:	02351400 	eorseq	r1, r5, #0, 8
     690:	14010000 	strne	r0, [r1], #-0
     694:	00006d05 	andeq	r6, r0, r5, lsl #26
     698:	100ed000 	andne	sp, lr, r0
     69c:	000070c0 	andeq	r7, r0, r0, asr #1
     6a0:	359c0100 	ldrcc	r0, [ip, #256]	; 0x100
     6a4:	15000003 	strne	r0, [r0, #-3]
     6a8:	01007363 	tsteq	r0, r3, ror #6
     6ac:	03351914 	teqeq	r5, #20, 18	; 0x50000
     6b0:	91020000 	mrsls	r0, (UNDEF: 2)
     6b4:	74631574 	strbtvc	r1, [r3], #-1396	; 0xfffffa8c
     6b8:	29140100 	ldmdbcs	r4, {r8}
     6bc:	00000335 	andeq	r0, r0, r5, lsr r3
     6c0:	0f709102 	svceq	0x00709102
     6c4:	00000274 	andeq	r0, r0, r4, ror r2
     6c8:	3b171601 	blcc	5c5ed4 <_start-0xbfb3a12c>
     6cc:	01000003 	tsteq	r0, r3
     6d0:	04080054 	streq	r0, [r8], #-84	; 0xffffffac
     6d4:	0000016b 	andeq	r0, r0, fp, ror #2
     6d8:	d6060102 	strle	r0, [r6], -r2, lsl #2
     6dc:	00000004 	andeq	r0, r0, r4
     6e0:	000002d6 	ldrdeq	r0, [r0], -r6
     6e4:	03330004 	teqeq	r3, #4
     6e8:	01040000 	mrseq	r0, (UNDEF: 4)
     6ec:	0000005b 	andeq	r0, r0, fp, asr r0
     6f0:	00027a0c 	andeq	r7, r2, ip, lsl #20
     6f4:	00000800 	andeq	r0, r0, r0, lsl #16
     6f8:	10114000 	andsne	r4, r1, r0
     6fc:	000258c0 	andeq	r5, r2, r0, asr #17
     700:	00070d00 	andeq	r0, r7, r0, lsl #26
     704:	07040200 	streq	r0, [r4, -r0, lsl #4]
     708:	000000e7 	andeq	r0, r0, r7, ror #1
     70c:	00019a03 	andeq	r9, r1, r3, lsl #20
     710:	0c021000 	stceq	0, cr1, [r2], {-0}
     714:	00006d10 	andeq	r6, r0, r0, lsl sp
     718:	65640400 	strbvs	r0, [r4, #-1024]!	; 0xfffffc00
     71c:	060d0200 	streq	r0, [sp], -r0, lsl #4
     720:	0000006d 	andeq	r0, r0, sp, rrx
     724:	020c0500 	andeq	r0, ip, #0, 10
     728:	0e020000 	cdpeq	0, 0, cr0, cr2, cr0, {0}
     72c:	00006d06 	andeq	r6, r0, r6, lsl #26
     730:	ee050400 	cfcpys	mvf0, mvf5
     734:	02000001 	andeq	r0, r0, #1
     738:	006d060f 	rsbeq	r0, sp, pc, lsl #12
     73c:	05080000 	streq	r0, [r8, #-0]
     740:	00000252 	andeq	r0, r0, r2, asr r2
     744:	6d061002 	stcvs	0, cr1, [r6, #-8]
     748:	0c000000 	stceq	0, cr0, [r0], {-0}
     74c:	05040600 	streq	r0, [r4, #-1536]	; 0xfffffa00
     750:	00746e69 	rsbseq	r6, r4, r9, ror #28
     754:	00006d07 	andeq	r6, r0, r7, lsl #26
     758:	019a0800 	orrseq	r0, sl, r0, lsl #16
     75c:	11020000 	mrsne	r0, (UNDEF: 2)
     760:	00002c02 	andeq	r2, r0, r2, lsl #24
     764:	02660300 	rsbeq	r0, r6, #0, 6
     768:	021c0000 	andseq	r0, ip, #0
     76c:	00ee1013 	rsceq	r1, lr, r3, lsl r0
     770:	74040000 	strvc	r0, [r4], #-0
     774:	02007076 	andeq	r7, r0, #118	; 0x76
     778:	006d0615 	rsbeq	r0, sp, r5, lsl r6
     77c:	04000000 	streq	r0, [r0], #-0
     780:	00627674 	rsbeq	r7, r2, r4, ror r6
     784:	6d061602 	stcvs	6, cr1, [r6, #-8]
     788:	04000000 	streq	r0, [r0], #-0
     78c:	66767404 	ldrbtvs	r7, [r6], -r4, lsl #8
     790:	06170200 	ldreq	r0, [r7], -r0, lsl #4
     794:	0000006d 	andeq	r0, r0, sp, rrx
     798:	68740408 	ldmdavs	r4!, {r3, sl}^
     79c:	1a020070 	bne	80964 <_start-0xc007f69c>
     7a0:	00006d06 	andeq	r6, r0, r6, lsl #26
     7a4:	74040c00 	strvc	r0, [r4], #-3072	; 0xfffff400
     7a8:	02006268 	andeq	r6, r0, #104, 4	; 0x80000006
     7ac:	006d061b 	rsbeq	r0, sp, fp, lsl r6
     7b0:	04100000 	ldreq	r0, [r0], #-0
     7b4:	00666874 	rsbeq	r6, r6, r4, ror r8
     7b8:	6d061c02 	stcvs	12, cr1, [r6, #-8]
     7bc:	14000000 	strne	r0, [r0], #-0
     7c0:	00020c05 	andeq	r0, r2, r5, lsl #24
     7c4:	061e0200 	ldreq	r0, [lr], -r0, lsl #4
     7c8:	0000006d 	andeq	r0, r0, sp, rrx
     7cc:	66080018 			; <UNDEFINED> instruction: 0x66080018
     7d0:	02000002 	andeq	r0, r0, #2
     7d4:	0085021f 	addeq	r0, r5, pc, lsl r2
     7d8:	13030000 	movwne	r0, #12288	; 0x3000
     7dc:	40000002 	andmi	r0, r0, r2
     7e0:	63102202 	tstvs	r0, #536870912	; 0x20000000
     7e4:	05000001 	streq	r0, [r0, #-1]
     7e8:	00000258 	andeq	r0, r0, r8, asr r2
     7ec:	63082402 	movwvs	r2, #33794	; 0x8402
     7f0:	00000001 	andeq	r0, r0, r1
     7f4:	00025d05 	andeq	r5, r2, r5, lsl #26
     7f8:	10270200 	eorne	r0, r7, r0, lsl #4
     7fc:	00000079 	andeq	r0, r0, r9, ror r0
     800:	01a80504 			; <UNDEFINED> instruction: 0x01a80504
     804:	2a020000 	bcs	8080c <_start-0xc007f7f4>
     808:	0000ee10 	andeq	lr, r0, r0, lsl lr
     80c:	4d051400 	cfstrsmi	mvf1, [r5, #-0]
     810:	02000000 	andeq	r0, r0, #0
     814:	006d062d 	rsbeq	r0, sp, sp, lsr #12
     818:	05300000 	ldreq	r0, [r0, #-0]!
     81c:	000000f4 	strdeq	r0, [r0], -r4
     820:	6d062e02 	stcvs	14, cr2, [r6, #-8]
     824:	34000000 	strcc	r0, [r0], #-0
     828:	70706204 	rsbsvc	r6, r0, r4, lsl #4
     82c:	062f0200 	strteq	r0, [pc], -r0, lsl #4
     830:	0000006d 	andeq	r0, r0, sp, rrx
     834:	00d90538 	sbcseq	r0, r9, r8, lsr r5
     838:	32020000 	andcc	r0, r2, #0
     83c:	0000250f 	andeq	r2, r0, pc, lsl #10
     840:	09003c00 	stmdbeq	r0, {sl, fp, ip, sp}
     844:	00016904 	andeq	r6, r1, r4, lsl #18
     848:	08010200 	stmdaeq	r1, {r9}
     84c:	000004dd 	ldrdeq	r0, [r0], -sp
     850:	00021108 	andeq	r1, r2, r8, lsl #2
     854:	0f340200 	svceq	0x00340200
     858:	0000017c 	andeq	r0, r0, ip, ror r1
     85c:	00fa0409 	rscseq	r0, sl, r9, lsl #8
     860:	700a0000 	andvc	r0, sl, r0
     864:	92000001 	andls	r0, r0, #1
     868:	0b000001 	bleq	874 <_start-0xc00ff78c>
     86c:	00000025 	andeq	r0, r0, r5, lsr #32
     870:	a30c0004 	movwge	r0, #49156	; 0xc004
     874:	01000002 	tsteq	r0, r2
     878:	01821507 	orreq	r1, r2, r7, lsl #10
     87c:	03050000 	movweq	r0, #20480	; 0x5000
     880:	c0101fe0 	andsgt	r1, r0, r0, ror #31
     884:	0002c50c 	andeq	ip, r2, ip, lsl #10
     888:	15080100 	strne	r0, [r8, #-256]	; 0xffffff00
     88c:	00000170 	andeq	r0, r0, r0, ror r1
     890:	1ff40305 	svcne	0x00f40305
     894:	8e0dc010 	mcrhi	0, 0, ip, cr13, cr0, {0}
     898:	01000002 	tsteq	r0, r2
     89c:	1354067b 	cmpne	r4, #128974848	; 0x7b00000
     8a0:	0044c010 	subeq	ip, r4, r0, lsl r0
     8a4:	9c010000 	stcls	0, cr0, [r1], {-0}
     8a8:	0002970d 	andeq	r9, r2, sp, lsl #14
     8ac:	066c0100 	strbteq	r0, [ip], -r0, lsl #2
     8b0:	c0101340 	andsgt	r1, r0, r0, asr #6
     8b4:	00000014 	andeq	r0, r0, r4, lsl r0
     8b8:	af0d9c01 	svcge	0x000d9c01
     8bc:	01000002 	tsteq	r0, r2
     8c0:	132c065d 			; <UNDEFINED> instruction: 0x132c065d
     8c4:	0014c010 	andseq	ip, r4, r0, lsl r0
     8c8:	9c010000 	stcls	0, cr0, [r1], {-0}
     8cc:	00014f0e 	andeq	r4, r1, lr, lsl #30
     8d0:	064a0100 	strbeq	r0, [sl], -r0, lsl #2
     8d4:	c01012a0 	andsgt	r1, r0, r0, lsr #5
     8d8:	0000008c 	andeq	r0, r0, ip, lsl #1
     8dc:	023f9c01 	eorseq	r9, pc, #256	; 0x100
     8e0:	d90f0000 	stmdble	pc, {}	; <UNPREDICTABLE>
     8e4:	01000000 	mrseq	r0, (UNDEF: 0)
     8e8:	023f234a 	eorseq	r2, pc, #671088641	; 0x28000001
     8ec:	91020000 	mrsls	r0, (UNDEF: 2)
     8f0:	004d0f74 	subeq	r0, sp, r4, ror pc
     8f4:	4a010000 	bmi	408fc <_start-0xc00bf704>
     8f8:	00024531 	andeq	r4, r2, r1, lsr r5
     8fc:	70910200 	addsvc	r0, r1, r0, lsl #4
     900:	0000f40f 	andeq	pc, r0, pc, lsl #8
     904:	3c4a0100 	stfcce	f0, [sl], {-0}
     908:	00000245 	andeq	r0, r0, r5, asr #4
     90c:	106c9102 	rsbne	r9, ip, r2, lsl #2
     910:	00707062 	rsbseq	r7, r0, r2, rrx
     914:	45474a01 	strbmi	r4, [r7, #-2561]	; 0xfffff5ff
     918:	02000002 	andeq	r0, r0, #2
     91c:	09006891 	stmdbeq	r0, {r0, r4, r7, fp, sp, lr}
     920:	00002504 	andeq	r2, r0, r4, lsl #10
     924:	6d040900 	vstrvs.16	s0, [r4, #-0]	; <UNPREDICTABLE>
     928:	11000000 	mrsne	r0, (UNDEF: 0)
     92c:	000002ba 			; <UNDEFINED> instruction: 0x000002ba
     930:	6d053201 	sfmvs	f3, 4, [r5, #-4]
     934:	f4000000 	vst4.8	{d0-d3}, [r0], r0
     938:	acc01011 	stclge	0, cr1, [r0], {17}
     93c:	01000000 	mrseq	r0, (UNDEF: 0)
     940:	0002829c 	muleq	r2, ip, r2
     944:	02580f00 	subseq	r0, r8, #0, 30
     948:	32010000 	andcc	r0, r1, #0
     94c:	00016316 	andeq	r6, r1, r6, lsl r3
     950:	6c910200 	lfmvs	f0, 4, [r1], {0}
     954:	01006912 	tsteq	r0, r2, lsl r9
     958:	006d0634 	rsbeq	r0, sp, r4, lsr r6
     95c:	91020000 	mrsls	r0, (UNDEF: 2)
     960:	db130074 	blle	4c0b38 <_start-0xbfc3f4c8>
     964:	01000002 	tsteq	r0, r2
     968:	006d0524 	rsbeq	r0, sp, r4, lsr #10
     96c:	11780000 	cmnne	r8, r0
     970:	007cc010 	rsbseq	ip, ip, r0, lsl r0
     974:	9c010000 	stcls	0, cr0, [r1], {-0}
     978:	000002b9 			; <UNDEFINED> instruction: 0x000002b9
     97c:	0002d60f 	andeq	sp, r2, pc, lsl #12
     980:	1f240100 	svcne	0x00240100
     984:	00000170 	andeq	r0, r0, r0, ror r1
     988:	126c9102 	rsbne	r9, ip, #-2147483648	; 0x80000000
     98c:	26010069 	strcs	r0, [r1], -r9, rrx
     990:	00006d06 	andeq	r6, r0, r6, lsl #26
     994:	74910200 	ldrvc	r0, [r1], #512	; 0x200
     998:	02881400 	addeq	r1, r8, #0, 8
     99c:	14010000 	strne	r0, [r1], #-0
     9a0:	10114006 	andsne	r4, r1, r6
     9a4:	000038c0 	andeq	r3, r0, r0, asr #17
     9a8:	109c0100 	addsne	r0, ip, r0, lsl #2
     9ac:	14010064 	strne	r0, [r1], #-100	; 0xffffff9c
     9b0:	00007419 	andeq	r7, r0, r9, lsl r4
     9b4:	74910200 	ldrvc	r0, [r1], #512	; 0x200
     9b8:	01b30000 			; <UNDEFINED> instruction: 0x01b30000
     9bc:	00040000 	andeq	r0, r4, r0
     9c0:	00000491 	muleq	r0, r1, r4
     9c4:	005b0104 	subseq	r0, fp, r4, lsl #2
     9c8:	110c0000 	mrsne	r0, (UNDEF: 12)
     9cc:	08000003 	stmdaeq	r0, {r0, r1}
     9d0:	98000000 	stmdals	r0, {}	; <UNPREDICTABLE>
     9d4:	1cc01013 	stclne	0, cr1, [r0], {19}
     9d8:	1d000000 	stcne	0, cr0, [r0, #-0]
     9dc:	02000008 	andeq	r0, r0, #8
     9e0:	00400407 	subeq	r0, r0, r7, lsl #8
     9e4:	04020000 	streq	r0, [r2], #-0
     9e8:	00004006 	andeq	r4, r0, r6
     9ec:	030a0300 	movweq	r0, #41728	; 0xa300
     9f0:	03000000 	movweq	r0, #0
     9f4:	000002f4 	strdeq	r0, [r0], -r4
     9f8:	04040001 	streq	r0, [r4], #-1
     9fc:	0000e707 	andeq	lr, r0, r7, lsl #14
     a00:	019a0500 	orrseq	r0, sl, r0, lsl #10
     a04:	02100000 	andseq	r0, r0, #0
     a08:	0088100c 	addeq	r1, r8, ip
     a0c:	64060000 	strvs	r0, [r6], #-0
     a10:	0d020065 	stceq	0, cr0, [r2, #-404]	; 0xfffffe6c
     a14:	00008806 	andeq	r8, r0, r6, lsl #16
     a18:	0c070000 	stceq	0, cr0, [r7], {-0}
     a1c:	02000002 	andeq	r0, r0, #2
     a20:	0088060e 	addeq	r0, r8, lr, lsl #12
     a24:	07040000 	streq	r0, [r4, -r0]
     a28:	000001ee 	andeq	r0, r0, lr, ror #3
     a2c:	88060f02 	stmdahi	r6, {r1, r8, r9, sl, fp}
     a30:	08000000 	stmdaeq	r0, {}	; <UNPREDICTABLE>
     a34:	00025207 	andeq	r5, r2, r7, lsl #4
     a38:	06100200 	ldreq	r0, [r0], -r0, lsl #4
     a3c:	00000088 	andeq	r0, r0, r8, lsl #1
     a40:	0408000c 	streq	r0, [r8], #-12
     a44:	746e6905 	strbtvc	r6, [lr], #-2309	; 0xfffff6fb
     a48:	019a0900 	orrseq	r0, sl, r0, lsl #18
     a4c:	11020000 	mrsne	r0, (UNDEF: 2)
     a50:	00004702 	andeq	r4, r0, r2, lsl #14
     a54:	02660500 	rsbeq	r0, r6, #0, 10
     a58:	021c0000 	andseq	r0, ip, #0
     a5c:	01041013 	tsteq	r4, r3, lsl r0
     a60:	74060000 	strvc	r0, [r6], #-0
     a64:	02007076 	andeq	r7, r0, #118	; 0x76
     a68:	00880615 	addeq	r0, r8, r5, lsl r6
     a6c:	06000000 	streq	r0, [r0], -r0
     a70:	00627674 	rsbeq	r7, r2, r4, ror r6
     a74:	88061602 	stmdahi	r6, {r1, r9, sl, ip}
     a78:	04000000 	streq	r0, [r0], #-0
     a7c:	66767406 	ldrbtvs	r7, [r6], -r6, lsl #8
     a80:	06170200 	ldreq	r0, [r7], -r0, lsl #4
     a84:	00000088 	andeq	r0, r0, r8, lsl #1
     a88:	68740608 	ldmdavs	r4!, {r3, r9, sl}^
     a8c:	1a020070 	bne	80c54 <_start-0xc007f3ac>
     a90:	00008806 	andeq	r8, r0, r6, lsl #16
     a94:	74060c00 	strvc	r0, [r6], #-3072	; 0xfffff400
     a98:	02006268 	andeq	r6, r0, #104, 4	; 0x80000006
     a9c:	0088061b 	addeq	r0, r8, fp, lsl r6
     aa0:	06100000 	ldreq	r0, [r0], -r0
     aa4:	00666874 	rsbeq	r6, r6, r4, ror r8
     aa8:	88061c02 	stmdahi	r6, {r1, sl, fp, ip}
     aac:	14000000 	strne	r0, [r0], #-0
     ab0:	00020c07 	andeq	r0, r2, r7, lsl #24
     ab4:	061e0200 	ldreq	r0, [lr], -r0, lsl #4
     ab8:	00000088 	andeq	r0, r0, r8, lsl #1
     abc:	66090018 			; <UNDEFINED> instruction: 0x66090018
     ac0:	02000002 	andeq	r0, r0, #2
     ac4:	009b021f 	addseq	r0, fp, pc, lsl r2
     ac8:	13050000 	movwne	r0, #20480	; 0x5000
     acc:	40000002 	andmi	r0, r0, r2
     ad0:	79102202 	ldmdbvc	r0, {r1, r9, sp}
     ad4:	07000001 	streq	r0, [r0, -r1]
     ad8:	00000258 	andeq	r0, r0, r8, asr r2
     adc:	79082402 	stmdbvc	r8, {r1, sl, sp}
     ae0:	00000001 	andeq	r0, r0, r1
     ae4:	00025d07 	andeq	r5, r2, r7, lsl #26
     ae8:	10270200 	eorne	r0, r7, r0, lsl #4
     aec:	0000008f 	andeq	r0, r0, pc, lsl #1
     af0:	01a80704 			; <UNDEFINED> instruction: 0x01a80704
     af4:	2a020000 	bcs	80afc <_start-0xc007f504>
     af8:	00010410 	andeq	r0, r1, r0, lsl r4
     afc:	4d071400 	cfstrsmi	mvf1, [r7, #-0]
     b00:	02000000 	andeq	r0, r0, #0
     b04:	0088062d 	addeq	r0, r8, sp, lsr #12
     b08:	07300000 	ldreq	r0, [r0, -r0]!
     b0c:	000000f4 	strdeq	r0, [r0], -r4
     b10:	88062e02 	stmdahi	r6, {r1, r9, sl, fp, sp}
     b14:	34000000 	strcc	r0, [r0], #-0
     b18:	70706206 	rsbsvc	r6, r0, r6, lsl #4
     b1c:	062f0200 	strteq	r0, [pc], -r0, lsl #4
     b20:	00000088 	andeq	r0, r0, r8, lsl #1
     b24:	00d90738 	sbcseq	r0, r9, r8, lsr r7
     b28:	32020000 	andcc	r0, r2, #0
     b2c:	0000400f 	andeq	r4, r0, pc
     b30:	0a003c00 	beq	fb38 <_start-0xc00f04c8>
     b34:	00017f04 	andeq	r7, r1, r4, lsl #30
     b38:	08010400 	stmdaeq	r1, {sl}
     b3c:	000004dd 	ldrdeq	r0, [r0], -sp
     b40:	00021309 	andeq	r1, r2, r9, lsl #6
     b44:	02340200 	eorseq	r0, r4, #0, 4
     b48:	00000110 	andeq	r0, r0, r0, lsl r1
     b4c:	0002fb0b 	andeq	pc, r2, fp, lsl #22
     b50:	0c060100 	stfeqs	f0, [r6], {-0}
     b54:	00000186 	andeq	r0, r0, r6, lsl #3
     b58:	1f540305 	svcne	0x00540305
     b5c:	e80cc010 	stmda	ip, {r4, lr, pc}
     b60:	01000002 	tsteq	r0, r2
     b64:	1398062b 	orrsne	r0, r8, #45088768	; 0x2b00000
     b68:	001cc010 	andseq	ip, ip, r0, lsl r0
     b6c:	9c010000 	stcls	0, cr0, [r1], {-0}
     b70:	00075f00 	andeq	r5, r7, r0, lsl #30
     b74:	4f000400 	svcmi	0x00000400
     b78:	04000005 	streq	r0, [r0], #-5
     b7c:	00005b01 	andeq	r5, r0, r1, lsl #22
     b80:	03ea0c00 	mvneq	r0, #0, 24
     b84:	00080000 	andeq	r0, r8, r0
     b88:	13b40000 			; <UNDEFINED> instruction: 0x13b40000
     b8c:	0b78c010 	bleq	1e30bd4 <_start-0xbe2cf42c>
     b90:	086f0000 	stmdaeq	pc!, {}^	; <UNPREDICTABLE>
     b94:	48020000 	stmdami	r2, {}	; <UNPREDICTABLE>
     b98:	090a0201 	stmdbeq	sl, {r0, r9}
     b9c:	000002bb 			; <UNDEFINED> instruction: 0x000002bb
     ba0:	00052403 	andeq	r2, r5, r3, lsl #8
     ba4:	190b0200 	stmdbne	fp, {r9}
     ba8:	000002c2 	andeq	r0, r0, r2, asr #5
     bac:	075a0300 	ldrbeq	r0, [sl, -r0, lsl #6]
     bb0:	0c020000 	stceq	0, cr0, [r2], {-0}
     bb4:	0002c219 	andeq	ip, r2, r9, lsl r2
     bb8:	7a030400 	bvc	c1bc0 <_start-0xc003e440>
     bbc:	02000003 	andeq	r0, r0, #3
     bc0:	02c2190d 	sbceq	r1, r2, #212992	; 0x34000
     bc4:	03080000 	movweq	r0, #32768	; 0x8000
     bc8:	0000033e 	andeq	r0, r0, lr, lsr r3
     bcc:	c2190e02 	andsgt	r0, r9, #2, 28
     bd0:	0c000002 	stceq	0, cr0, [r0], {2}
     bd4:	00077903 	andeq	r7, r7, r3, lsl #18
     bd8:	190f0200 	stmdbne	pc, {r9}	; <UNPREDICTABLE>
     bdc:	000002c2 	andeq	r0, r0, r2, asr #5
     be0:	071d0310 			; <UNDEFINED> instruction: 0x071d0310
     be4:	10020000 	andne	r0, r2, r0
     be8:	0002c219 	andeq	ip, r2, r9, lsl r2
     bec:	e2031400 	and	r1, r3, #0, 8
     bf0:	02000004 	andeq	r0, r0, #4
     bf4:	02c21911 	sbceq	r1, r2, #278528	; 0x44000
     bf8:	03180000 	tsteq	r8, #0
     bfc:	00000329 	andeq	r0, r0, r9, lsr #6
     c00:	c2191202 	andsgt	r1, r9, #536870912	; 0x20000000
     c04:	1c000002 	stcne	0, cr0, [r0], {2}
     c08:	00043003 	andeq	r3, r4, r3
     c0c:	19130200 	ldmdbne	r3, {r9}
     c10:	000002c2 	andeq	r0, r0, r2, asr #5
     c14:	03fb0320 	mvnseq	r0, #32, 6	; 0x80000000
     c18:	14020000 	strne	r0, [r2], #-0
     c1c:	0002c219 	andeq	ip, r2, r9, lsl r2
     c20:	05032400 	streq	r2, [r3, #-1024]	; 0xfffffc00
     c24:	02000006 	andeq	r0, r0, #6
     c28:	02c71215 	sbceq	r1, r7, #1342177281	; 0x50000001
     c2c:	03280000 			; <UNDEFINED> instruction: 0x03280000
     c30:	0000051a 	andeq	r0, r0, sl, lsl r5
     c34:	c2191602 	andsgt	r1, r9, #2097152	; 0x200000
     c38:	2c000002 	stccs	0, cr0, [r0], {2}
     c3c:	00061003 	andeq	r1, r6, r3
     c40:	12170200 	andsne	r0, r7, #0, 4
     c44:	000002c7 	andeq	r0, r0, r7, asr #5
     c48:	065f0330 			; <UNDEFINED> instruction: 0x065f0330
     c4c:	18020000 	stmdane	r2, {}	; <UNPREDICTABLE>
     c50:	0002c219 	andeq	ip, r2, r9, lsl r2
     c54:	2d033400 	cfstrscs	mvf3, [r3, #-0]
     c58:	02000005 	andeq	r0, r0, #5
     c5c:	02c21919 	sbceq	r1, r2, #409600	; 0x64000
     c60:	03380000 	teqeq	r8, #0
     c64:	00000427 	andeq	r0, r0, r7, lsr #8
     c68:	c2191a02 	andsgt	r1, r9, #8192	; 0x2000
     c6c:	3c000002 	stccc	0, cr0, [r0], {2}
     c70:	00048603 	andeq	r8, r4, r3, lsl #12
     c74:	191b0200 	ldmdbne	fp, {r9}
     c78:	000002c2 	andeq	r0, r0, r2, asr #5
     c7c:	05360340 	ldreq	r0, [r6, #-832]!	; 0xfffffcc0
     c80:	1c020000 	stcne	0, cr0, [r2], {-0}
     c84:	0002c219 	andeq	ip, r2, r9, lsl r2
     c88:	63034400 	movwvs	r4, #13312	; 0x3400
     c8c:	02000007 	andeq	r0, r0, #7
     c90:	02c2191d 	sbceq	r1, r2, #475136	; 0x74000
     c94:	03480000 	movteq	r0, #32768	; 0x8000
     c98:	0000061b 	andeq	r0, r0, fp, lsl r6
     c9c:	de121e02 	cdple	14, 1, cr1, cr2, cr2, {0}
     ca0:	4c000002 	stcmi	0, cr0, [r0], {2}
     ca4:	00069803 	andeq	r9, r6, r3, lsl #16
     ca8:	191f0200 	ldmdbne	pc, {r9}	; <UNPREDICTABLE>
     cac:	000002c2 	andeq	r0, r0, r2, asr #5
     cb0:	03dd0384 	bicseq	r0, sp, #132, 6	; 0x10000002
     cb4:	20020000 	andcs	r0, r2, r0
     cb8:	0002c219 	andeq	ip, r2, r9, lsl r2
     cbc:	52038800 	andpl	r8, r3, #0, 16
     cc0:	02000006 	andeq	r0, r0, #6
     cc4:	02c21921 	sbceq	r1, r2, #540672	; 0x84000
     cc8:	038c0000 	orreq	r0, ip, #0
     ccc:	000003a6 	andeq	r0, r0, r6, lsr #7
     cd0:	c2192202 	andsgt	r2, r9, #536870912	; 0x20000000
     cd4:	90000002 	andls	r0, r0, r2
     cd8:	00036e03 	andeq	r6, r3, r3, lsl #28
     cdc:	19230200 	stmdbne	r3!, {r9}
     ce0:	000002c2 	andeq	r0, r0, r2, asr #5
     ce4:	041b0394 	ldreq	r0, [fp], #-916	; 0xfffffc6c
     ce8:	24020000 	strcs	r0, [r2], #-0
     cec:	0002c219 	andeq	ip, r2, r9, lsl r2
     cf0:	3a039800 	bcc	e6cf8 <_start-0xc0019308>
     cf4:	02000004 	andeq	r0, r0, #4
     cf8:	02c21925 	sbceq	r1, r2, #606208	; 0x94000
     cfc:	039c0000 	orrseq	r0, ip, #0
     d00:	000004bc 			; <UNDEFINED> instruction: 0x000004bc
     d04:	c2192602 	andsgt	r2, r9, #2097152	; 0x200000
     d08:	a0000002 	andge	r0, r0, r2
     d0c:	00062603 	andeq	r2, r6, r3, lsl #12
     d10:	13270200 			; <UNDEFINED> instruction: 0x13270200
     d14:	000002ee 	andeq	r0, r0, lr, ror #5
     d18:	05e303a4 	strbeq	r0, [r3, #932]!	; 0x3a4
     d1c:	28020000 	stmdacs	r2, {}	; <UNPREDICTABLE>
     d20:	0002c219 	andeq	ip, r2, r9, lsl r2
     d24:	9c03ac00 	stcls	12, cr10, [r3], {-0}
     d28:	02000005 	andeq	r0, r0, #5
     d2c:	02c21929 	sbceq	r1, r2, #671744	; 0xa4000
     d30:	03b00000 	movseq	r0, #0
     d34:	00000446 	andeq	r0, r0, r6, asr #8
     d38:	c2192a02 	andsgt	r2, r9, #8192	; 0x2000
     d3c:	b4000002 	strlt	r0, [r0], #-2
     d40:	00063103 	andeq	r3, r6, r3, lsl #2
     d44:	152b0200 	strne	r0, [fp, #-512]!	; 0xfffffe00
     d48:	000002fe 	strdeq	r0, [r0], -lr
     d4c:	066803b8 			; <UNDEFINED> instruction: 0x066803b8
     d50:	2c020000 	stccs	0, cr0, [r2], {-0}
     d54:	0002c219 	andeq	ip, r2, r9, lsl r2
     d58:	3c03c400 	cfstrscc	mvf12, [r3], {-0}
     d5c:	02000006 	andeq	r0, r0, #6
     d60:	030e122d 	movweq	r1, #57901	; 0xe22d
     d64:	04c80000 	strbeq	r0, [r8], #0
     d68:	000005f0 	strdeq	r0, [r0], -r0	; <UNPREDICTABLE>
     d6c:	c2192e02 	andsgt	r2, r9, #2, 28
     d70:	04000002 	streq	r0, [r0], #-2
     d74:	054d0401 	strbeq	r0, [sp, #-1025]	; 0xfffffbff
     d78:	2f020000 	svccs	0x00020000
     d7c:	0002c219 	andeq	ip, r2, r9, lsl r2
     d80:	04010800 	streq	r0, [r1], #-2048	; 0xfffff800
     d84:	00000540 	andeq	r0, r0, r0, asr #10
     d88:	c2193002 	andsgt	r3, r9, #2
     d8c:	0c000002 	stceq	0, cr0, [r0], {2}
     d90:	04c80401 	strbeq	r0, [r8], #1025	; 0x401
     d94:	31020000 	mrscc	r0, (UNDEF: 2)
     d98:	0002c219 	andeq	ip, r2, r9, lsl r2
     d9c:	04011000 	streq	r1, [r1], #-0
     da0:	000004b0 			; <UNDEFINED> instruction: 0x000004b0
     da4:	c2193202 	andsgt	r3, r9, #536870912	; 0x20000000
     da8:	14000002 	strne	r0, [r0], #-2
     dac:	05790401 	ldrbeq	r0, [r9, #-1025]!	; 0xfffffbff
     db0:	33020000 	movwcc	r0, #8192	; 0x2000
     db4:	0002c219 	andeq	ip, r2, r9, lsl r2
     db8:	04011800 	streq	r1, [r1], #-2048	; 0xfffff800
     dbc:	00000590 	muleq	r0, r0, r5
     dc0:	c2193402 	andsgt	r3, r9, #33554432	; 0x2000000
     dc4:	1c000002 	stcne	0, cr0, [r0], {2}
     dc8:	074e0401 	strbeq	r0, [lr, -r1, lsl #8]
     dcc:	35020000 	strcc	r0, [r2, #-0]
     dd0:	0002c219 	andeq	ip, r2, r9, lsl r2
     dd4:	04012000 	streq	r2, [r1], #-0
     dd8:	00000647 	andeq	r0, r0, r7, asr #12
     ddc:	ee123602 	cfmsub32	mvax0, mvfx3, mvfx2, mvfx2
     de0:	24000002 	strcs	r0, [r0], #-2
     de4:	04050401 	streq	r0, [r5], #-1025	; 0xfffffbff
     de8:	37020000 	strcc	r0, [r2, -r0]
     dec:	0002c219 	andeq	ip, r2, r9, lsl r2
     df0:	04012c00 	streq	r2, [r1], #-3072	; 0xfffff400
     df4:	000003be 			; <UNDEFINED> instruction: 0x000003be
     df8:	c2193802 	andsgt	r3, r9, #131072	; 0x20000
     dfc:	30000002 	andcc	r0, r0, r2
     e00:	06c30401 	strbeq	r0, [r3], r1, lsl #8
     e04:	39020000 	stmdbcc	r2, {}	; <UNPREDICTABLE>
     e08:	0002c21a 	andeq	ip, r2, sl, lsl r2
     e0c:	04013400 	streq	r3, [r1], #-1024	; 0xfffffc00
     e10:	0000039b 	muleq	r0, fp, r3
     e14:	fe123a02 	vselvs.f32	s6, s4, s4
     e18:	38000002 	stmdacc	r0, {r1}
     e1c:	04780401 	ldrbteq	r0, [r8], #-1025	; 0xfffffbff
     e20:	3b020000 	blcc	80e28 <_start-0xc007f1d8>
     e24:	0002c219 	andeq	ip, r2, r9, lsl r2
     e28:	00014400 	andeq	r4, r1, r0, lsl #8
     e2c:	e7070405 	str	r0, [r7, -r5, lsl #8]
     e30:	06000000 	streq	r0, [r0], -r0
     e34:	000002bb 			; <UNDEFINED> instruction: 0x000002bb
     e38:	0002d707 	andeq	sp, r2, r7, lsl #14
     e3c:	0002d700 	andeq	sp, r2, r0, lsl #14
     e40:	02bb0800 	adcseq	r0, fp, #0, 16
     e44:	00030000 	andeq	r0, r3, r0
     e48:	d4080105 	strle	r0, [r8], #-261	; 0xfffffefb
     e4c:	07000004 	streq	r0, [r0, -r4]
     e50:	000002d7 	ldrdeq	r0, [r0], -r7
     e54:	000002ee 	andeq	r0, r0, lr, ror #5
     e58:	0002bb08 	andeq	fp, r2, r8, lsl #22
     e5c:	07003700 	streq	r3, [r0, -r0, lsl #14]
     e60:	000002d7 	ldrdeq	r0, [r0], -r7
     e64:	000002fe 	strdeq	r0, [r0], -lr
     e68:	0002bb08 	andeq	fp, r2, r8, lsl #22
     e6c:	07000700 	streq	r0, [r0, -r0, lsl #14]
     e70:	000002d7 	ldrdeq	r0, [r0], -r7
     e74:	0000030e 	andeq	r0, r0, lr, lsl #6
     e78:	0002bb08 	andeq	fp, r2, r8, lsl #22
     e7c:	07000b00 	streq	r0, [r0, -r0, lsl #22]
     e80:	000002d7 	ldrdeq	r0, [r0], -r7
     e84:	0000031e 	andeq	r0, r0, lr, lsl r3
     e88:	0002bb08 	andeq	fp, r2, r8, lsl #22
     e8c:	09003b00 	stmdbeq	r0, {r8, r9, fp, ip, sp}
     e90:	00000333 	andeq	r0, r0, r3, lsr r3
     e94:	25033c02 	strcs	r3, [r3, #-3074]	; 0xfffff3fe
     e98:	0a000000 	beq	ea0 <_start-0xc00ff160>
     e9c:	0000019a 	muleq	r0, sl, r1
     ea0:	100c0310 	andne	r0, ip, r0, lsl r3
     ea4:	0000036b 	andeq	r0, r0, fp, ror #6
     ea8:	0065640b 	rsbeq	r6, r5, fp, lsl #8
     eac:	6b060d03 	blvs	1842c0 <_start-0xbff7bd40>
     eb0:	00000003 	andeq	r0, r0, r3
     eb4:	00020c03 	andeq	r0, r2, r3, lsl #24
     eb8:	060e0300 	streq	r0, [lr], -r0, lsl #6
     ebc:	0000036b 	andeq	r0, r0, fp, ror #6
     ec0:	01ee0304 	mvneq	r0, r4, lsl #6
     ec4:	0f030000 	svceq	0x00030000
     ec8:	00036b06 	andeq	r6, r3, r6, lsl #22
     ecc:	52030800 	andpl	r0, r3, #0, 16
     ed0:	03000002 	movweq	r0, #2
     ed4:	036b0610 	cmneq	fp, #16, 12	; 0x1000000
     ed8:	000c0000 	andeq	r0, ip, r0
     edc:	6905040c 	stmdbvs	r5, {r2, r3, sl}
     ee0:	0900746e 	stmdbeq	r0, {r1, r2, r3, r5, r6, sl, ip, sp, lr}
     ee4:	0000019a 	muleq	r0, sl, r1
     ee8:	2a021103 	bcs	852fc <_start-0xc007ad04>
     eec:	0a000003 	beq	f00 <_start-0xc00ff100>
     ef0:	00000266 	andeq	r0, r0, r6, ror #4
     ef4:	1013031c 	andsne	r0, r3, ip, lsl r3
     ef8:	000003e7 	andeq	r0, r0, r7, ror #7
     efc:	7076740b 	rsbsvc	r7, r6, fp, lsl #8
     f00:	06150300 	ldreq	r0, [r5], -r0, lsl #6
     f04:	0000036b 	andeq	r0, r0, fp, ror #6
     f08:	76740b00 	ldrbtvc	r0, [r4], -r0, lsl #22
     f0c:	16030062 	strne	r0, [r3], -r2, rrx
     f10:	00036b06 	andeq	r6, r3, r6, lsl #22
     f14:	740b0400 	strvc	r0, [fp], #-1024	; 0xfffffc00
     f18:	03006676 	movweq	r6, #1654	; 0x676
     f1c:	036b0617 	cmneq	fp, #24117248	; 0x1700000
     f20:	0b080000 	bleq	200f28 <_start-0xbfeff0d8>
     f24:	00706874 	rsbseq	r6, r0, r4, ror r8
     f28:	6b061a03 	blvs	18773c <_start-0xbff788c4>
     f2c:	0c000003 	stceq	0, cr0, [r0], {3}
     f30:	6268740b 	rsbvs	r7, r8, #184549376	; 0xb000000
     f34:	061b0300 	ldreq	r0, [fp], -r0, lsl #6
     f38:	0000036b 	andeq	r0, r0, fp, ror #6
     f3c:	68740b10 	ldmdavs	r4!, {r4, r8, r9, fp}^
     f40:	1c030066 	stcne	0, cr0, [r3], {102}	; 0x66
     f44:	00036b06 	andeq	r6, r3, r6, lsl #22
     f48:	0c031400 	cfstrseq	mvf1, [r3], {-0}
     f4c:	03000002 	movweq	r0, #2
     f50:	036b061e 	cmneq	fp, #31457280	; 0x1e00000
     f54:	00180000 	andseq	r0, r8, r0
     f58:	00026609 	andeq	r6, r2, r9, lsl #12
     f5c:	021f0300 	andseq	r0, pc, #0, 6
     f60:	0000037e 	andeq	r0, r0, lr, ror r3
     f64:	0002130a 	andeq	r1, r2, sl, lsl #6
     f68:	22034000 	andcs	r4, r3, #0
     f6c:	00045c10 	andeq	r5, r4, r0, lsl ip
     f70:	02580300 	subseq	r0, r8, #0, 6
     f74:	24030000 	strcs	r0, [r3], #-0
     f78:	00045c08 	andeq	r5, r4, r8, lsl #24
     f7c:	5d030000 	stcpl	0, cr0, [r3, #-0]
     f80:	03000002 	movweq	r0, #2
     f84:	03721027 	cmneq	r2, #39	; 0x27
     f88:	03040000 	movweq	r0, #16384	; 0x4000
     f8c:	000001a8 	andeq	r0, r0, r8, lsr #3
     f90:	e7102a03 	ldr	r2, [r0, -r3, lsl #20]
     f94:	14000003 	strne	r0, [r0], #-3
     f98:	00004d03 	andeq	r4, r0, r3, lsl #26
     f9c:	062d0300 	strteq	r0, [sp], -r0, lsl #6
     fa0:	0000036b 	andeq	r0, r0, fp, ror #6
     fa4:	00f40330 	rscseq	r0, r4, r0, lsr r3
     fa8:	2e030000 	cdpcs	0, 0, cr0, cr3, cr0, {0}
     fac:	00036b06 	andeq	r6, r3, r6, lsl #22
     fb0:	620b3400 	andvs	r3, fp, #0, 8
     fb4:	03007070 	movweq	r7, #112	; 0x70
     fb8:	036b062f 	cmneq	fp, #49283072	; 0x2f00000
     fbc:	03380000 	teqeq	r8, #0
     fc0:	000000d9 	ldrdeq	r0, [r0], -r9
     fc4:	bb0f3203 	bllt	3cd7d8 <_start-0xbfd32828>
     fc8:	3c000002 	stccc	0, cr0, [r0], {2}
     fcc:	62040d00 	andvs	r0, r4, #0, 26
     fd0:	05000004 	streq	r0, [r0, #-4]
     fd4:	04dd0801 	ldrbeq	r0, [sp], #2049	; 0x801
     fd8:	11090000 	mrsne	r0, (UNDEF: 9)
     fdc:	03000002 	movweq	r0, #2
     fe0:	04750f34 	ldrbteq	r0, [r5], #-3892	; 0xfffff0cc
     fe4:	040d0000 	streq	r0, [sp], #-0
     fe8:	000003f3 	strdeq	r0, [r0], -r3
     fec:	0003530a 	andeq	r5, r3, sl, lsl #6
     ff0:	07041000 	streq	r1, [r4, -r0]
     ff4:	0004bd10 	andeq	fp, r4, r0, lsl sp
     ff8:	02580300 	subseq	r0, r8, #0, 6
     ffc:	08040000 	stmdaeq	r4, {}	; <UNPREDICTABLE>
    1000:	00045c08 	andeq	r5, r4, r8, lsl #24
    1004:	92030000 	andls	r0, r3, #0
    1008:	04000002 	streq	r0, [r0], #-2
    100c:	04c80909 	strbeq	r0, [r8], #2313	; 0x909
    1010:	03040000 	movweq	r0, #16384	; 0x4000
    1014:	000002b3 			; <UNDEFINED> instruction: 0x000002b3
    1018:	cf080a04 	svcgt	0x00080a04
    101c:	08000004 	stmdaeq	r0, {r2}
    1020:	00029b03 	andeq	r9, r2, r3, lsl #22
    1024:	080b0400 	stmdaeq	fp, {sl}
    1028:	000004cf 	andeq	r0, r0, pc, asr #9
    102c:	c80e000c 	stmdagt	lr, {r2, r3}
    1030:	0f000004 	svceq	0x00000004
    1034:	00000469 	andeq	r0, r0, r9, ror #8
    1038:	bd040d00 	stclt	13, cr0, [r4, #-0]
    103c:	10000004 	andne	r0, r0, r4
    1040:	04ce040d 	strbeq	r0, [lr], #1037	; 0x40d
    1044:	ef110000 	svc	0x00110000
    1048:	01000006 	tsteq	r0, r6
    104c:	04e71f04 	strbteq	r1, [r7], #3844	; 0xf04
    1050:	03050000 	movweq	r0, #20480	; 0x5000
    1054:	c0101ff8 			; <UNDEFINED> instruction: 0xc0101ff8
    1058:	02c2040d 	sbceq	r0, r2, #218103808	; 0xd000000
    105c:	6b110000 	blvs	441064 <_start-0xbfcbef9c>
    1060:	01000004 	tsteq	r0, r4
    1064:	04e71f05 	strbteq	r1, [r7], #3845	; 0xf05
    1068:	03050000 	movweq	r0, #20480	; 0x5000
    106c:	c0101ffc 			; <UNDEFINED> instruction: 0xc0101ffc
    1070:	00072711 	andeq	r2, r7, r1, lsl r7
    1074:	1f060100 	svcne	0x00060100
    1078:	000004e7 	andeq	r0, r0, r7, ror #9
    107c:	20000305 	andcs	r0, r0, r5, lsl #6
    1080:	3511c010 	ldrcc	ip, [r1, #-16]
    1084:	01000007 	tsteq	r0, r7
    1088:	04e71f07 	strbteq	r1, [r7], #3847	; 0xf07
    108c:	03050000 	movweq	r0, #20480	; 0x5000
    1090:	c0102004 	andsgt	r2, r0, r4
    1094:	00058511 	andeq	r8, r5, r1, lsl r5
    1098:	1f080100 	svcne	0x00080100
    109c:	000004e7 	andeq	r0, r0, r7, ror #9
    10a0:	20080305 	andcs	r0, r8, r5, lsl #6
    10a4:	0b11c010 	bleq	4710ec <_start-0xbfc8ef14>
    10a8:	01000007 	tsteq	r0, r7
    10ac:	04e71f09 	strbteq	r1, [r7], #3849	; 0xf09
    10b0:	03050000 	movweq	r0, #20480	; 0x5000
    10b4:	c010200c 	andsgt	r2, r0, ip
    10b8:	0003cb11 	andeq	ip, r3, r1, lsl fp
    10bc:	1f0a0100 	svcne	0x000a0100
    10c0:	000004e7 	andeq	r0, r0, r7, ror #9
    10c4:	20100305 	andscs	r0, r0, r5, lsl #6
    10c8:	6e11c010 	mrcvs	0, 0, ip, cr1, cr0, {0}
    10cc:	01000005 	tsteq	r0, r5
    10d0:	04e71f0c 	strbteq	r1, [r7], #3852	; 0xf0c
    10d4:	03050000 	movweq	r0, #20480	; 0x5000
    10d8:	c0102014 	andsgt	r2, r0, r4, lsl r0
    10dc:	0003b211 	andeq	fp, r3, r1, lsl r2
    10e0:	1f0d0100 	svcne	0x000d0100
    10e4:	000004e7 	andeq	r0, r0, r7, ror #9
    10e8:	20180305 	andscs	r0, r8, r5, lsl #6
    10ec:	b811c010 	ldmdalt	r1, {r4, lr, pc}
    10f0:	01000006 	tsteq	r0, r6
    10f4:	04e71f0e 	strbteq	r1, [r7], #3854	; 0xf0e
    10f8:	03050000 	movweq	r0, #20480	; 0x5000
    10fc:	c010201c 	andsgt	r2, r0, ip, lsl r0
    1100:	0006ad11 	andeq	sl, r6, r1, lsl sp
    1104:	1f0f0100 	svcne	0x000f0100
    1108:	000004e7 	andeq	r0, r0, r7, ror #9
    110c:	20200305 	eorcs	r0, r0, r5, lsl #6
    1110:	5411c010 	ldrpl	ip, [r1], #-16
    1114:	01000004 	tsteq	r0, r4
    1118:	04e71f10 	strbteq	r1, [r7], #3856	; 0xf10
    111c:	03050000 	movweq	r0, #20480	; 0x5000
    1120:	c0102024 	andsgt	r2, r0, r4, lsr #32
    1124:	0005c311 	andeq	ip, r5, r1, lsl r3
    1128:	1f110100 	svcne	0x00110100
    112c:	000004e7 	andeq	r0, r0, r7, ror #9
    1130:	20280305 	eorcs	r0, r8, r5, lsl #6
    1134:	cd11c010 	ldcgt	0, cr12, [r1, #-64]	; 0xffffffc0
    1138:	01000005 	tsteq	r0, r5
    113c:	04e71f12 	strbteq	r1, [r7], #3858	; 0xf12
    1140:	03050000 	movweq	r0, #20480	; 0x5000
    1144:	c010202c 	andsgt	r2, r0, ip, lsr #32
    1148:	00046011 	andeq	r6, r4, r1, lsl r0
    114c:	1f130100 	svcne	0x00130100
    1150:	000004e7 	andeq	r0, r0, r7, ror #9
    1154:	20300305 	eorscs	r0, r0, r5, lsl #6
    1158:	6211c010 	andsvs	ip, r1, #16
    115c:	01000003 	tsteq	r0, r3
    1160:	04e71f14 	strbteq	r1, [r7], #3860	; 0xf14
    1164:	03050000 	movweq	r0, #20480	; 0x5000
    1168:	c0102034 	andsgt	r2, r0, r4, lsr r0
    116c:	0006a211 	andeq	sl, r6, r1, lsl r2
    1170:	1f150100 	svcne	0x00150100
    1174:	000004e7 	andeq	r0, r0, r7, ror #9
    1178:	20380305 	eorscs	r0, r8, r5, lsl #6
    117c:	4311c010 	tstmi	r1, #16
    1180:	01000007 	tsteq	r0, r7
    1184:	04e71f16 	strbteq	r1, [r7], #3862	; 0xf16
    1188:	03050000 	movweq	r0, #20480	; 0x5000
    118c:	c010203c 	andsgt	r2, r0, ip, lsr r0
    1190:	00076d11 	andeq	r6, r7, r1, lsl sp
    1194:	1f170100 	svcne	0x00170100
    1198:	000004e7 	andeq	r0, r0, r7, ror #9
    119c:	20400305 	subcs	r0, r0, r5, lsl #6
    11a0:	fa11c010 	blx	4711e8 <_start-0xbfc8ee18>
    11a4:	01000005 	tsteq	r0, r5
    11a8:	04e71f18 	strbteq	r1, [r7], #3864	; 0xf18
    11ac:	03050000 	movweq	r0, #20480	; 0x5000
    11b0:	c0102044 	andsgt	r2, r0, r4, asr #32
    11b4:	0005d811 	andeq	sp, r5, r1, lsl r8
    11b8:	1f190100 	svcne	0x00190100
    11bc:	000004e7 	andeq	r0, r0, r7, ror #9
    11c0:	20480305 	subcs	r0, r8, r5, lsl #6
    11c4:	a911c010 	ldmdbge	r1, {r4, lr, pc}
    11c8:	01000005 	tsteq	r0, r5
    11cc:	04e71f1a 	strbteq	r1, [r7], #3866	; 0xf1a
    11d0:	03050000 	movweq	r0, #20480	; 0x5000
    11d4:	c010204c 	andsgt	r2, r0, ip, asr #32
    11d8:	00050c11 	andeq	r0, r5, r1, lsl ip
    11dc:	1f1b0100 	svcne	0x001b0100
    11e0:	000004e7 	andeq	r0, r0, r7, ror #9
    11e4:	20500305 	subscs	r0, r0, r5, lsl #6
    11e8:	fd11c010 	ldc2	0, cr12, [r1, #-64]	; 0xffffffc0
    11ec:	01000006 	tsteq	r0, r6
    11f0:	04e71f1c 	strbteq	r1, [r7], #3868	; 0xf1c
    11f4:	03050000 	movweq	r0, #20480	; 0x5000
    11f8:	c0102054 	andsgt	r2, r0, r4, asr r0
    11fc:	0005b511 	andeq	fp, r5, r1, lsl r5
    1200:	1f1d0100 	svcne	0x001d0100
    1204:	000004e7 	andeq	r0, r0, r7, ror #9
    1208:	20580305 	subscs	r0, r8, r5, lsl #6
    120c:	8311c010 	tsthi	r1, #16
    1210:	01000007 	tsteq	r0, r7
    1214:	04e71f1e 	strbteq	r1, [r7], #3870	; 0xf1e
    1218:	03050000 	movweq	r0, #20480	; 0x5000
    121c:	c010205c 	andsgt	r2, r0, ip, asr r0
    1220:	00031b11 	andeq	r1, r3, r1, lsl fp
    1224:	1f1f0100 	svcne	0x001f0100
    1228:	000004e7 	andeq	r0, r0, r7, ror #9
    122c:	20600305 	rsbcs	r0, r0, r5, lsl #6
    1230:	4812c010 	ldmdami	r2, {r4, lr, pc}
    1234:	01000003 	tsteq	r0, r3
    1238:	047b17e0 	ldrbteq	r1, [fp], #-2016	; 0xfffff820
    123c:	03050000 	movweq	r0, #20480	; 0x5000
    1240:	c0101f94 	mulsgt	r0, r4, pc	; <UNPREDICTABLE>
    1244:	0006d113 	andeq	sp, r6, r3, lsl r1
    1248:	06f10100 	ldrbteq	r0, [r1], r0, lsl #2
    124c:	c0101f10 	andsgt	r1, r0, r0, lsl pc
    1250:	0000001c 	andeq	r0, r0, ip, lsl r0
    1254:	76149c01 	ldrvc	r9, [r4], -r1, lsl #24
    1258:	01000006 	tsteq	r0, r6
    125c:	1eb80dd9 	mrcne	13, 5, r0, cr8, cr9, {6}
    1260:	0058c010 	subseq	ip, r8, r0, lsl r0
    1264:	9c010000 	stcls	0, cr0, [r1], {-0}
    1268:	0004eb14 	andeq	lr, r4, r4, lsl fp
    126c:	0dd10100 	ldfeqe	f0, [r1]
    1270:	c0101e44 	andsgt	r1, r0, r4, asr #28
    1274:	00000074 	andeq	r0, r0, r4, ror r0
    1278:	91159c01 	tstls	r5, r1, lsl #24
    127c:	01000004 	tsteq	r0, r4
    1280:	19800d7d 	stmibne	r0, {r0, r2, r3, r4, r5, r6, r8, sl, fp}
    1284:	04c4c010 	strbeq	ip, [r4], #16
    1288:	9c010000 	stcls	0, cr0, [r1], {-0}
    128c:	0000073e 	andeq	r0, r0, lr, lsr r7
    1290:	00018f16 	andeq	r8, r1, r6, lsl pc
    1294:	397d0100 	ldmdbcc	sp!, {r8}^
    1298:	00000469 	andeq	r0, r0, r9, ror #8
    129c:	116c9102 	cmnne	ip, r2, lsl #2
    12a0:	00000412 	andeq	r0, r0, r2, lsl r4
    12a4:	6b097f01 	blvs	260eb0 <_start-0xbfe9f150>
    12a8:	02000003 	andeq	r0, r0, #3
    12ac:	14007491 	strne	r7, [r0], #-1169	; 0xfffffb6f
    12b0:	00000384 	andeq	r0, r0, r4, lsl #7
    12b4:	f40d4501 	vst3.8	{d4,d6,d8}, [sp], r1
    12b8:	8cc01015 	stclhi	0, cr1, [r0], {21}
    12bc:	01000003 	tsteq	r0, r3
    12c0:	055a149c 	ldrbeq	r1, [sl, #-1180]	; 0xfffffb64
    12c4:	21010000 	mrscs	r0, (UNDEF: 1)
    12c8:	1013b40d 	andsne	fp, r3, sp, lsl #8
    12cc:	000240c0 	andeq	r4, r2, r0, asr #1
    12d0:	009c0100 	addseq	r0, ip, r0, lsl #2

Disassembly of section .debug_abbrev:

00000000 <.debug_abbrev>:
   0:	10001101 	andne	r1, r0, r1, lsl #2
   4:	12011106 	andne	r1, r1, #-2147483647	; 0x80000001
   8:	1b0e0301 	blne	380c14 <_start-0xbfd7f3ec>
   c:	130e250e 	movwne	r2, #58638	; 0xe50e
  10:	00000005 	andeq	r0, r0, r5
  14:	25011101 	strcs	r1, [r1, #-257]	; 0xfffffeff
  18:	030b130e 	movweq	r1, #45838	; 0xb30e
  1c:	110e1b0e 	tstne	lr, lr, lsl #22
  20:	10061201 	andne	r1, r6, r1, lsl #4
  24:	02000017 	andeq	r0, r0, #23
  28:	0b0b0024 	bleq	2c00c0 <_start-0xbfe3ff40>
  2c:	0e030b3e 	vmoveq.16	d3[0], r0
  30:	24030000 	strcs	r0, [r3], #-0
  34:	3e0b0b00 	vmlacc.f64	d0, d11, d0
  38:	0008030b 	andeq	r0, r8, fp, lsl #6
  3c:	002e0400 	eoreq	r0, lr, r0, lsl #8
  40:	0e03193f 			; <UNDEFINED> instruction: 0x0e03193f
  44:	0b3b0b3a 	bleq	ec2d34 <_start-0xbf23d2cc>
  48:	19270b39 	stmdbne	r7!, {r0, r3, r4, r5, r8, r9, fp}
  4c:	01111349 	tsteq	r1, r9, asr #6
  50:	18400612 	stmdane	r0, {r1, r4, r9, sl}^
  54:	00194296 	mulseq	r9, r6, r2
  58:	012e0500 			; <UNDEFINED> instruction: 0x012e0500
  5c:	0e03193f 			; <UNDEFINED> instruction: 0x0e03193f
  60:	0b3b0b3a 	bleq	ec2d50 <_start-0xbf23d2b0>
  64:	19270b39 	stmdbne	r7!, {r0, r3, r4, r5, r8, r9, fp}
  68:	06120111 			; <UNDEFINED> instruction: 0x06120111
  6c:	42961840 	addsmi	r1, r6, #64, 16	; 0x400000
  70:	00130119 	andseq	r0, r3, r9, lsl r1
  74:	00340600 	eorseq	r0, r4, r0, lsl #12
  78:	0b3a0e03 	bleq	e8388c <_start-0xbf27c774>
  7c:	0b390b3b 	bleq	e42d70 <_start-0xbf2bd290>
  80:	18021349 	stmdane	r2, {r0, r3, r6, r8, r9, ip}
  84:	34070000 	strcc	r0, [r7], #-0
  88:	3a080300 	bcc	200c90 <_start-0xbfeff370>
  8c:	390b3b0b 	stmdbcc	fp, {r0, r1, r3, r8, r9, fp, ip, sp}
  90:	0213490b 	andseq	r4, r3, #180224	; 0x2c000
  94:	08000018 	stmdaeq	r0, {r3, r4}
  98:	0b0b000f 	bleq	2c00dc <_start-0xbfe3ff24>
  9c:	00001349 	andeq	r1, r0, r9, asr #6
  a0:	01110100 	tsteq	r1, r0, lsl #2
  a4:	0b130e25 	bleq	4c3940 <_start-0xbfc3c6c0>
  a8:	0e1b0e03 	cdpeq	14, 1, cr0, cr11, cr3, {0}
  ac:	06120111 			; <UNDEFINED> instruction: 0x06120111
  b0:	00001710 	andeq	r1, r0, r0, lsl r7
  b4:	3f012e02 	svccc	0x00012e02
  b8:	3a0e0319 	bcc	380d24 <_start-0xbfd7f2dc>
  bc:	390b3b0b 	stmdbcc	fp, {r0, r1, r3, r8, r9, fp, ip, sp}
  c0:	1119270b 	tstne	r9, fp, lsl #14
  c4:	40061201 	andmi	r1, r6, r1, lsl #4
  c8:	19429618 	stmdbne	r2, {r3, r4, r9, sl, ip, pc}^
  cc:	00001301 	andeq	r1, r0, r1, lsl #6
  d0:	03000503 	movweq	r0, #1283	; 0x503
  d4:	3b0b3a08 	blcc	2ce8fc <_start-0xbfe31704>
  d8:	490b390b 	stmdbmi	fp, {r0, r1, r3, r8, fp, ip, sp}
  dc:	00180213 	andseq	r0, r8, r3, lsl r2
  e0:	00050400 	andeq	r0, r5, r0, lsl #8
  e4:	0b3a0e03 	bleq	e838f8 <_start-0xbf27c708>
  e8:	0b390b3b 	bleq	e42ddc <_start-0xbf2bd224>
  ec:	18021349 	stmdane	r2, {r0, r3, r6, r8, r9, ip}
  f0:	34050000 	strcc	r0, [r5], #-0
  f4:	3a080300 	bcc	200cfc <_start-0xbfeff304>
  f8:	390b3b0b 	stmdbcc	fp, {r0, r1, r3, r8, r9, fp, ip, sp}
  fc:	0213490b 	andseq	r4, r3, #180224	; 0x2c000
 100:	06000018 			; <UNDEFINED> instruction: 0x06000018
 104:	0b0b0024 	bleq	2c019c <_start-0xbfe3fe64>
 108:	08030b3e 	stmdaeq	r3, {r1, r2, r3, r4, r5, r8, r9, fp}
 10c:	2e070000 	cdpcs	0, 0, cr0, cr7, cr0, {0}
 110:	03193f01 	tsteq	r9, #1, 30
 114:	3b0b3a0e 	blcc	2ce954 <_start-0xbfe316ac>
 118:	270b390b 	strcs	r3, [fp, -fp, lsl #18]
 11c:	12011119 	andne	r1, r1, #1073741830	; 0x40000006
 120:	96184006 	ldrls	r4, [r8], -r6
 124:	00001942 	andeq	r1, r0, r2, asr #18
 128:	01110100 	tsteq	r1, r0, lsl #2
 12c:	0b130e25 	bleq	4c39c8 <_start-0xbfc3c638>
 130:	0e1b0e03 	cdpeq	14, 1, cr0, cr11, cr3, {0}
 134:	06120111 			; <UNDEFINED> instruction: 0x06120111
 138:	00001710 	andeq	r1, r0, r0, lsl r7
 13c:	0b002402 	bleq	914c <_start-0xc00f6eb4>
 140:	030b3e0b 	movweq	r3, #48651	; 0xbe0b
 144:	0300000e 	movweq	r0, #14
 148:	0b0b0024 	bleq	2c01e0 <_start-0xbfe3fe20>
 14c:	08030b3e 	stmdaeq	r3, {r1, r2, r3, r4, r5, r8, r9, fp}
 150:	34040000 	strcc	r0, [r4], #-0
 154:	3a0e0300 	bcc	380d5c <_start-0xbfd7f2a4>
 158:	390b3b0b 	stmdbcc	fp, {r0, r1, r3, r8, r9, fp, ip, sp}
 15c:	0213490b 	andseq	r4, r3, #180224	; 0x2c000
 160:	05000018 	streq	r0, [r0, #-24]	; 0xffffffe8
 164:	08030034 	stmdaeq	r3, {r2, r4, r5}
 168:	0b3b0b3a 	bleq	ec2e58 <_start-0xbf23d1a8>
 16c:	13490b39 	movtne	r0, #39737	; 0x9b39
 170:	00001802 	andeq	r1, r0, r2, lsl #16
 174:	3f012e06 	svccc	0x00012e06
 178:	3a0e0319 	bcc	380de4 <_start-0xbfd7f21c>
 17c:	390b3b0b 	stmdbcc	fp, {r0, r1, r3, r8, r9, fp, ip, sp}
 180:	1119270b 	tstne	r9, fp, lsl #14
 184:	40061201 	andmi	r1, r6, r1, lsl #4
 188:	19429618 	stmdbne	r2, {r3, r4, r9, sl, ip, pc}^
 18c:	00001301 	andeq	r1, r0, r1, lsl #6
 190:	03000507 	movweq	r0, #1287	; 0x507
 194:	3b0b3a08 	blcc	2ce9bc <_start-0xbfe31644>
 198:	490b390b 	stmdbmi	fp, {r0, r1, r3, r8, fp, ip, sp}
 19c:	00180213 	andseq	r0, r8, r3, lsl r2
 1a0:	00050800 	andeq	r0, r5, r0, lsl #16
 1a4:	0b3a0e03 	bleq	e839b8 <_start-0xbf27c648>
 1a8:	0b390b3b 	bleq	e42e9c <_start-0xbf2bd164>
 1ac:	18021349 	stmdane	r2, {r0, r3, r6, r8, r9, ip}
 1b0:	0f090000 	svceq	0x00090000
 1b4:	490b0b00 	stmdbmi	fp, {r8, r9, fp}
 1b8:	0a000013 	beq	20c <_start-0xc00ffdf4>
 1bc:	193f012e 	ldmdbne	pc!, {r1, r2, r3, r5, r8}	; <UNPREDICTABLE>
 1c0:	0b3a0e03 	bleq	e839d4 <_start-0xbf27c62c>
 1c4:	0b390b3b 	bleq	e42eb8 <_start-0xbf2bd148>
 1c8:	13491927 	movtne	r1, #39207	; 0x9927
 1cc:	06120111 			; <UNDEFINED> instruction: 0x06120111
 1d0:	42971840 	addsmi	r1, r7, #64, 16	; 0x400000
 1d4:	00130119 	andseq	r0, r3, r9, lsl r1
 1d8:	002e0b00 	eoreq	r0, lr, r0, lsl #22
 1dc:	0e03193f 			; <UNDEFINED> instruction: 0x0e03193f
 1e0:	0b3b0b3a 	bleq	ec2ed0 <_start-0xbf23d130>
 1e4:	19270b39 	stmdbne	r7!, {r0, r3, r4, r5, r8, r9, fp}
 1e8:	06120111 			; <UNDEFINED> instruction: 0x06120111
 1ec:	42961840 	addsmi	r1, r6, #64, 16	; 0x400000
 1f0:	00000019 	andeq	r0, r0, r9, lsl r0
 1f4:	25011101 	strcs	r1, [r1, #-257]	; 0xfffffeff
 1f8:	030b130e 	movweq	r1, #45838	; 0xb30e
 1fc:	110e1b0e 	tstne	lr, lr, lsl #22
 200:	10061201 	andne	r1, r6, r1, lsl #4
 204:	02000017 	andeq	r0, r0, #23
 208:	0b0b0024 	bleq	2c02a0 <_start-0xbfe3fd60>
 20c:	0e030b3e 	vmoveq.16	d3[0], r0
 210:	13030000 	movwne	r0, #12288	; 0x3000
 214:	0b0e0301 	bleq	380e20 <_start-0xbfd7f1e0>
 218:	3b0b3a0b 	blcc	2cea4c <_start-0xbfe315b4>
 21c:	010b390b 	tsteq	fp, fp, lsl #18
 220:	04000013 	streq	r0, [r0], #-19	; 0xffffffed
 224:	0803000d 	stmdaeq	r3, {r0, r2, r3}
 228:	0b3b0b3a 	bleq	ec2f18 <_start-0xbf23d0e8>
 22c:	13490b39 	movtne	r0, #39737	; 0x9b39
 230:	00000b38 	andeq	r0, r0, r8, lsr fp
 234:	03000d05 	movweq	r0, #3333	; 0xd05
 238:	3b0b3a0e 	blcc	2cea78 <_start-0xbfe31588>
 23c:	490b390b 	stmdbmi	fp, {r0, r1, r3, r8, fp, ip, sp}
 240:	000b3813 	andeq	r3, fp, r3, lsl r8
 244:	00240600 	eoreq	r0, r4, r0, lsl #12
 248:	0b3e0b0b 	bleq	f82e7c <_start-0xbf17d184>
 24c:	00000803 	andeq	r0, r0, r3, lsl #16
 250:	03001607 	movweq	r1, #1543	; 0x607
 254:	3b0b3a0e 	blcc	2cea94 <_start-0xbfe3156c>
 258:	490b390b 	stmdbmi	fp, {r0, r1, r3, r8, fp, ip, sp}
 25c:	08000013 	stmdaeq	r0, {r0, r1, r4}
 260:	0b0b000f 	bleq	2c02a4 <_start-0xbfe3fd5c>
 264:	00001349 	andeq	r1, r0, r9, asr #6
 268:	49002609 	stmdbmi	r0, {r0, r3, r9, sl, sp}
 26c:	0a000013 	beq	2c0 <_start-0xc00ffd40>
 270:	19270115 	stmdbne	r7!, {r0, r2, r4, r8}
 274:	00001301 	andeq	r1, r0, r1, lsl #6
 278:	4900050b 	stmdbmi	r0, {r0, r1, r3, r8, sl}
 27c:	0c000013 	stceq	0, cr0, [r0], {19}
 280:	19270015 	stmdbne	r7!, {r0, r2, r4}
 284:	010d0000 	mrseq	r0, (UNDEF: 13)
 288:	01134901 	tsteq	r3, r1, lsl #18
 28c:	0e000013 	mcreq	0, 0, r0, cr0, cr3, {0}
 290:	13490021 	movtne	r0, #36897	; 0x9021
 294:	00000b2f 	andeq	r0, r0, pc, lsr #22
 298:	0300340f 	movweq	r3, #1039	; 0x40f
 29c:	3b0b3a0e 	blcc	2ceadc <_start-0xbfe31524>
 2a0:	490b390b 	stmdbmi	fp, {r0, r1, r3, r8, fp, ip, sp}
 2a4:	00180213 	andseq	r0, r8, r3, lsl r2
 2a8:	002e1000 	eoreq	r1, lr, r0
 2ac:	0e03193f 			; <UNDEFINED> instruction: 0x0e03193f
 2b0:	0b3b0b3a 	bleq	ec2fa0 <_start-0xbf23d060>
 2b4:	19270b39 	stmdbne	r7!, {r0, r3, r4, r5, r8, r9, fp}
 2b8:	06120111 			; <UNDEFINED> instruction: 0x06120111
 2bc:	42961840 	addsmi	r1, r6, #64, 16	; 0x400000
 2c0:	11000019 	tstne	r0, r9, lsl r0
 2c4:	193f012e 	ldmdbne	pc!, {r1, r2, r3, r5, r8}	; <UNPREDICTABLE>
 2c8:	0b3a0e03 	bleq	e83adc <_start-0xbf27c524>
 2cc:	0b390b3b 	bleq	e42fc0 <_start-0xbf2bd040>
 2d0:	13491927 	movtne	r1, #39207	; 0x9927
 2d4:	06120111 			; <UNDEFINED> instruction: 0x06120111
 2d8:	42961840 	addsmi	r1, r6, #64, 16	; 0x400000
 2dc:	00130119 	andseq	r0, r3, r9, lsl r1
 2e0:	00051200 	andeq	r1, r5, r0, lsl #4
 2e4:	0b3a0e03 	bleq	e83af8 <_start-0xbf27c508>
 2e8:	0b390b3b 	bleq	e42fdc <_start-0xbf2bd024>
 2ec:	18021349 	stmdane	r2, {r0, r3, r6, r8, r9, ip}
 2f0:	34130000 	ldrcc	r0, [r3], #-0
 2f4:	3a080300 	bcc	200efc <_start-0xbfeff104>
 2f8:	390b3b0b 	stmdbcc	fp, {r0, r1, r3, r8, r9, fp, ip, sp}
 2fc:	0213490b 	andseq	r4, r3, #180224	; 0x2c000
 300:	14000018 	strne	r0, [r0], #-24	; 0xffffffe8
 304:	193f012e 	ldmdbne	pc!, {r1, r2, r3, r5, r8}	; <UNPREDICTABLE>
 308:	0b3a0e03 	bleq	e83b1c <_start-0xbf27c4e4>
 30c:	0b390b3b 	bleq	e43000 <_start-0xbf2bd000>
 310:	13491927 	movtne	r1, #39207	; 0x9927
 314:	06120111 			; <UNDEFINED> instruction: 0x06120111
 318:	42971840 	addsmi	r1, r7, #64, 16	; 0x400000
 31c:	00130119 	andseq	r0, r3, r9, lsl r1
 320:	00051500 	andeq	r1, r5, r0, lsl #10
 324:	0b3a0803 	bleq	e82338 <_start-0xbf27dcc8>
 328:	0b390b3b 	bleq	e4301c <_start-0xbf2bcfe4>
 32c:	18021349 	stmdane	r2, {r0, r3, r6, r8, r9, ip}
 330:	01000000 	mrseq	r0, (UNDEF: 0)
 334:	0e250111 	mcreq	1, 1, r0, cr5, cr1, {0}
 338:	0e030b13 	vmoveq.32	d3[0], r0
 33c:	01110e1b 	tsteq	r1, fp, lsl lr
 340:	17100612 			; <UNDEFINED> instruction: 0x17100612
 344:	24020000 	strcs	r0, [r2], #-0
 348:	3e0b0b00 	vmlacc.f64	d0, d11, d0
 34c:	000e030b 	andeq	r0, lr, fp, lsl #6
 350:	01130300 	tsteq	r3, r0, lsl #6
 354:	0b0b0e03 	bleq	2c3b68 <_start-0xbfe3c498>
 358:	0b3b0b3a 	bleq	ec3048 <_start-0xbf23cfb8>
 35c:	13010b39 	movwne	r0, #6969	; 0x1b39
 360:	0d040000 	stceq	0, cr0, [r4, #-0]
 364:	3a080300 	bcc	200f6c <_start-0xbfeff094>
 368:	390b3b0b 	stmdbcc	fp, {r0, r1, r3, r8, r9, fp, ip, sp}
 36c:	3813490b 	ldmdacc	r3, {r0, r1, r3, r8, fp, lr}
 370:	0500000b 	streq	r0, [r0, #-11]
 374:	0e03000d 	cdpeq	0, 0, cr0, cr3, cr13, {0}
 378:	0b3b0b3a 	bleq	ec3068 <_start-0xbf23cf98>
 37c:	13490b39 	movtne	r0, #39737	; 0x9b39
 380:	00000b38 	andeq	r0, r0, r8, lsr fp
 384:	0b002406 	bleq	93a4 <_start-0xc00f6c5c>
 388:	030b3e0b 	movweq	r3, #48651	; 0xbe0b
 38c:	07000008 	streq	r0, [r0, -r8]
 390:	13490035 	movtne	r0, #36917	; 0x9035
 394:	16080000 	strne	r0, [r8], -r0
 398:	3a0e0300 	bcc	380fa0 <_start-0xbfd7f060>
 39c:	390b3b0b 	stmdbcc	fp, {r0, r1, r3, r8, r9, fp, ip, sp}
 3a0:	0013490b 	andseq	r4, r3, fp, lsl #18
 3a4:	000f0900 	andeq	r0, pc, r0, lsl #18
 3a8:	13490b0b 	movtne	r0, #39691	; 0x9b0b
 3ac:	010a0000 	mrseq	r0, (UNDEF: 10)
 3b0:	01134901 	tsteq	r3, r1, lsl #18
 3b4:	0b000013 	bleq	408 <_start-0xc00ffbf8>
 3b8:	13490021 	movtne	r0, #36897	; 0x9021
 3bc:	00000b2f 	andeq	r0, r0, pc, lsr #22
 3c0:	0300340c 	movweq	r3, #1036	; 0x40c
 3c4:	3b0b3a0e 	blcc	2cec04 <_start-0xbfe313fc>
 3c8:	490b390b 	stmdbmi	fp, {r0, r1, r3, r8, fp, ip, sp}
 3cc:	00180213 	andseq	r0, r8, r3, lsl r2
 3d0:	002e0d00 	eoreq	r0, lr, r0, lsl #26
 3d4:	0e03193f 			; <UNDEFINED> instruction: 0x0e03193f
 3d8:	0b3b0b3a 	bleq	ec30c8 <_start-0xbf23cf38>
 3dc:	19270b39 	stmdbne	r7!, {r0, r3, r4, r5, r8, r9, fp}
 3e0:	06120111 			; <UNDEFINED> instruction: 0x06120111
 3e4:	42961840 	addsmi	r1, r6, #64, 16	; 0x400000
 3e8:	0e000019 	mcreq	0, 0, r0, cr0, cr9, {0}
 3ec:	193f012e 	ldmdbne	pc!, {r1, r2, r3, r5, r8}	; <UNPREDICTABLE>
 3f0:	0b3a0e03 	bleq	e83c04 <_start-0xbf27c3fc>
 3f4:	0b390b3b 	bleq	e430e8 <_start-0xbf2bcf18>
 3f8:	01111927 	tsteq	r1, r7, lsr #18
 3fc:	18400612 	stmdane	r0, {r1, r4, r9, sl}^
 400:	01194297 			; <UNDEFINED> instruction: 0x01194297
 404:	0f000013 	svceq	0x00000013
 408:	0e030005 	cdpeq	0, 0, cr0, cr3, cr5, {0}
 40c:	0b3b0b3a 	bleq	ec30fc <_start-0xbf23cf04>
 410:	13490b39 	movtne	r0, #39737	; 0x9b39
 414:	00001802 	andeq	r1, r0, r2, lsl #16
 418:	03000510 	movweq	r0, #1296	; 0x510
 41c:	3b0b3a08 	blcc	2cec44 <_start-0xbfe313bc>
 420:	490b390b 	stmdbmi	fp, {r0, r1, r3, r8, fp, ip, sp}
 424:	00180213 	andseq	r0, r8, r3, lsl r2
 428:	012e1100 			; <UNDEFINED> instruction: 0x012e1100
 42c:	0e03193f 			; <UNDEFINED> instruction: 0x0e03193f
 430:	0b3b0b3a 	bleq	ec3120 <_start-0xbf23cee0>
 434:	19270b39 	stmdbne	r7!, {r0, r3, r4, r5, r8, r9, fp}
 438:	01111349 	tsteq	r1, r9, asr #6
 43c:	18400612 	stmdane	r0, {r1, r4, r9, sl}^
 440:	01194296 			; <UNDEFINED> instruction: 0x01194296
 444:	12000013 	andne	r0, r0, #19
 448:	08030034 	stmdaeq	r3, {r2, r4, r5}
 44c:	0b3b0b3a 	bleq	ec313c <_start-0xbf23cec4>
 450:	13490b39 	movtne	r0, #39737	; 0x9b39
 454:	00001802 	andeq	r1, r0, r2, lsl #16
 458:	3f012e13 	svccc	0x00012e13
 45c:	3a0e0319 	bcc	3810c8 <_start-0xbfd7ef38>
 460:	390b3b0b 	stmdbcc	fp, {r0, r1, r3, r8, r9, fp, ip, sp}
 464:	4919270b 	ldmdbmi	r9, {r0, r1, r3, r8, r9, sl, sp}
 468:	12011113 	andne	r1, r1, #-1073741820	; 0xc0000004
 46c:	97184006 	ldrls	r4, [r8, -r6]
 470:	13011942 	movwne	r1, #6466	; 0x1942
 474:	2e140000 	cdpcs	0, 1, cr0, cr4, cr0, {0}
 478:	03193f01 	tsteq	r9, #1, 30
 47c:	3b0b3a0e 	blcc	2cecbc <_start-0xbfe31344>
 480:	270b390b 	strcs	r3, [fp, -fp, lsl #18]
 484:	12011119 	andne	r1, r1, #1073741830	; 0x40000006
 488:	97184006 	ldrls	r4, [r8, -r6]
 48c:	00001942 	andeq	r1, r0, r2, asr #18
 490:	01110100 	tsteq	r1, r0, lsl #2
 494:	0b130e25 	bleq	4c3d30 <_start-0xbfc3c2d0>
 498:	0e1b0e03 	cdpeq	14, 1, cr0, cr11, cr3, {0}
 49c:	06120111 			; <UNDEFINED> instruction: 0x06120111
 4a0:	00001710 	andeq	r1, r0, r0, lsl r7
 4a4:	3e010402 	cdpcc	4, 0, cr0, cr1, cr2, {0}
 4a8:	490b0b0b 	stmdbmi	fp, {r0, r1, r3, r8, r9, fp}
 4ac:	3b0b3a13 	blcc	2ced00 <_start-0xbfe31300>
 4b0:	010b390b 	tsteq	fp, fp, lsl #18
 4b4:	03000013 	movweq	r0, #19
 4b8:	0e030028 	cdpeq	0, 0, cr0, cr3, cr8, {1}
 4bc:	00000b1c 	andeq	r0, r0, ip, lsl fp
 4c0:	0b002404 	bleq	94d8 <_start-0xc00f6b28>
 4c4:	030b3e0b 	movweq	r3, #48651	; 0xbe0b
 4c8:	0500000e 	streq	r0, [r0, #-14]
 4cc:	0e030113 	mcreq	1, 0, r0, cr3, cr3, {0}
 4d0:	0b3a0b0b 	bleq	e83104 <_start-0xbf27cefc>
 4d4:	0b390b3b 	bleq	e431c8 <_start-0xbf2bce38>
 4d8:	00001301 	andeq	r1, r0, r1, lsl #6
 4dc:	03000d06 	movweq	r0, #3334	; 0xd06
 4e0:	3b0b3a08 	blcc	2ced08 <_start-0xbfe312f8>
 4e4:	490b390b 	stmdbmi	fp, {r0, r1, r3, r8, fp, ip, sp}
 4e8:	000b3813 	andeq	r3, fp, r3, lsl r8
 4ec:	000d0700 	andeq	r0, sp, r0, lsl #14
 4f0:	0b3a0e03 	bleq	e83d04 <_start-0xbf27c2fc>
 4f4:	0b390b3b 	bleq	e431e8 <_start-0xbf2bce18>
 4f8:	0b381349 	bleq	e05224 <_start-0xbf2faddc>
 4fc:	24080000 	strcs	r0, [r8], #-0
 500:	3e0b0b00 	vmlacc.f64	d0, d11, d0
 504:	0008030b 	andeq	r0, r8, fp, lsl #6
 508:	00160900 	andseq	r0, r6, r0, lsl #18
 50c:	0b3a0e03 	bleq	e83d20 <_start-0xbf27c2e0>
 510:	0b390b3b 	bleq	e43204 <_start-0xbf2bcdfc>
 514:	00001349 	andeq	r1, r0, r9, asr #6
 518:	0b000f0a 	bleq	4148 <_start-0xc00fbeb8>
 51c:	0013490b 	andseq	r4, r3, fp, lsl #18
 520:	00340b00 	eorseq	r0, r4, r0, lsl #22
 524:	0b3a0e03 	bleq	e83d38 <_start-0xbf27c2c8>
 528:	0b390b3b 	bleq	e4321c <_start-0xbf2bcde4>
 52c:	193f1349 	ldmdbne	pc!, {r0, r3, r6, r8, r9, ip}	; <UNPREDICTABLE>
 530:	00001802 	andeq	r1, r0, r2, lsl #16
 534:	3f002e0c 	svccc	0x00002e0c
 538:	3a0e0319 	bcc	3811a4 <_start-0xbfd7ee5c>
 53c:	390b3b0b 	stmdbcc	fp, {r0, r1, r3, r8, r9, fp, ip, sp}
 540:	1119270b 	tstne	r9, fp, lsl #14
 544:	40061201 	andmi	r1, r6, r1, lsl #4
 548:	19429618 	stmdbne	r2, {r3, r4, r9, sl, ip, pc}^
 54c:	01000000 	mrseq	r0, (UNDEF: 0)
 550:	0e250111 	mcreq	1, 1, r0, cr5, cr1, {0}
 554:	0e030b13 	vmoveq.32	d3[0], r0
 558:	01110e1b 	tsteq	r1, fp, lsl lr
 55c:	17100612 			; <UNDEFINED> instruction: 0x17100612
 560:	13020000 	movwne	r0, #8192	; 0x2000
 564:	3a050b01 	bcc	143170 <_start-0xbffbce90>
 568:	390b3b0b 	stmdbcc	fp, {r0, r1, r3, r8, r9, fp, ip, sp}
 56c:	0013010b 	andseq	r0, r3, fp, lsl #2
 570:	000d0300 	andeq	r0, sp, r0, lsl #6
 574:	0b3a0e03 	bleq	e83d88 <_start-0xbf27c278>
 578:	0b390b3b 	bleq	e4326c <_start-0xbf2bcd94>
 57c:	0b381349 	bleq	e052a8 <_start-0xbf2fad58>
 580:	0d040000 	stceq	0, cr0, [r4, #-0]
 584:	3a0e0300 	bcc	38118c <_start-0xbfd7ee74>
 588:	390b3b0b 	stmdbcc	fp, {r0, r1, r3, r8, r9, fp, ip, sp}
 58c:	3813490b 	ldmdacc	r3, {r0, r1, r3, r8, fp, lr}
 590:	05000005 	streq	r0, [r0, #-5]
 594:	0b0b0024 	bleq	2c062c <_start-0xbfe3f9d4>
 598:	0e030b3e 	vmoveq.16	d3[0], r0
 59c:	35060000 	strcc	r0, [r6, #-0]
 5a0:	00134900 	andseq	r4, r3, r0, lsl #18
 5a4:	01010700 	tsteq	r1, r0, lsl #14
 5a8:	13011349 	movwne	r1, #4937	; 0x1349
 5ac:	21080000 	mrscs	r0, (UNDEF: 8)
 5b0:	2f134900 	svccs	0x00134900
 5b4:	0900000b 	stmdbeq	r0, {r0, r1, r3}
 5b8:	0e030016 	mcreq	0, 0, r0, cr3, cr6, {0}
 5bc:	0b3b0b3a 	bleq	ec32ac <_start-0xbf23cd54>
 5c0:	13490b39 	movtne	r0, #39737	; 0x9b39
 5c4:	130a0000 	movwne	r0, #40960	; 0xa000
 5c8:	0b0e0301 	bleq	3811d4 <_start-0xbfd7ee2c>
 5cc:	3b0b3a0b 	blcc	2cee00 <_start-0xbfe31200>
 5d0:	010b390b 	tsteq	fp, fp, lsl #18
 5d4:	0b000013 	bleq	628 <_start-0xc00ff9d8>
 5d8:	0803000d 	stmdaeq	r3, {r0, r2, r3}
 5dc:	0b3b0b3a 	bleq	ec32cc <_start-0xbf23cd34>
 5e0:	13490b39 	movtne	r0, #39737	; 0x9b39
 5e4:	00000b38 	andeq	r0, r0, r8, lsr fp
 5e8:	0b00240c 	bleq	9620 <_start-0xc00f69e0>
 5ec:	030b3e0b 	movweq	r3, #48651	; 0xbe0b
 5f0:	0d000008 	stceq	0, cr0, [r0, #-32]	; 0xffffffe0
 5f4:	0b0b000f 	bleq	2c0638 <_start-0xbfe3f9c8>
 5f8:	00001349 	andeq	r1, r0, r9, asr #6
 5fc:	2701150e 	strcs	r1, [r1, -lr, lsl #10]
 600:	00130119 	andseq	r0, r3, r9, lsl r1
 604:	00050f00 	andeq	r0, r5, r0, lsl #30
 608:	00001349 	andeq	r1, r0, r9, asr #6
 60c:	27001510 	smladcs	r0, r0, r5, r1
 610:	11000019 	tstne	r0, r9, lsl r0
 614:	0e030034 	mcreq	0, 0, r0, cr3, cr4, {1}
 618:	0b3b0b3a 	bleq	ec3308 <_start-0xbf23ccf8>
 61c:	13490b39 	movtne	r0, #39737	; 0x9b39
 620:	00001802 	andeq	r1, r0, r2, lsl #16
 624:	03003412 	movweq	r3, #1042	; 0x412
 628:	3b0b3a0e 	blcc	2cee68 <_start-0xbfe31198>
 62c:	490b390b 	stmdbmi	fp, {r0, r1, r3, r8, fp, ip, sp}
 630:	02193f13 	andseq	r3, r9, #19, 30	; 0x4c
 634:	13000018 	movwne	r0, #24
 638:	193f002e 	ldmdbne	pc!, {r1, r2, r3, r5}	; <UNPREDICTABLE>
 63c:	0b3a0e03 	bleq	e83e50 <_start-0xbf27c1b0>
 640:	0b390b3b 	bleq	e43334 <_start-0xbf2bcccc>
 644:	01111927 	tsteq	r1, r7, lsr #18
 648:	18400612 	stmdane	r0, {r1, r4, r9, sl}^
 64c:	00194296 	mulseq	r9, r6, r2
 650:	002e1400 	eoreq	r1, lr, r0, lsl #8
 654:	0b3a0e03 	bleq	e83e68 <_start-0xbf27c198>
 658:	0b390b3b 	bleq	e4334c <_start-0xbf2bccb4>
 65c:	01111927 	tsteq	r1, r7, lsr #18
 660:	18400612 	stmdane	r0, {r1, r4, r9, sl}^
 664:	00194297 	mulseq	r9, r7, r2
 668:	012e1500 			; <UNDEFINED> instruction: 0x012e1500
 66c:	0b3a0e03 	bleq	e83e80 <_start-0xbf27c180>
 670:	0b390b3b 	bleq	e43364 <_start-0xbf2bcc9c>
 674:	01111927 	tsteq	r1, r7, lsr #18
 678:	18400612 	stmdane	r0, {r1, r4, r9, sl}^
 67c:	01194296 			; <UNDEFINED> instruction: 0x01194296
 680:	16000013 			; <UNDEFINED> instruction: 0x16000013
 684:	0e030005 	cdpeq	0, 0, cr0, cr3, cr5, {0}
 688:	0b3b0b3a 	bleq	ec3378 <_start-0xbf23cc88>
 68c:	13490b39 	movtne	r0, #39737	; 0x9b39
 690:	00001802 	andeq	r1, r0, r2, lsl #16
	...

Disassembly of section .debug_aranges:

00000000 <.debug_aranges>:
   0:	0000001c 	andeq	r0, r0, ip, lsl r0
   4:	00000002 	andeq	r0, r0, r2
   8:	00040000 	andeq	r0, r4, r0
   c:	00000000 	andeq	r0, r0, r0
  10:	c0100000 	andsgt	r0, r0, r0
  14:	0000003c 	andeq	r0, r0, ip, lsr r0
	...
  20:	0000001c 	andeq	r0, r0, ip, lsl r0
  24:	00260002 	eoreq	r0, r6, r2
  28:	00040000 	andeq	r0, r4, r0
  2c:	00000000 	andeq	r0, r0, r0
  30:	c010003c 	andsgt	r0, r0, ip, lsr r0
  34:	0000056c 	andeq	r0, r0, ip, ror #10
	...
  40:	0000001c 	andeq	r0, r0, ip, lsl r0
  44:	01120002 	tsteq	r2, r2
  48:	00040000 	andeq	r0, r4, r0
  4c:	00000000 	andeq	r0, r0, r0
  50:	c01005a8 	andsgt	r0, r0, r8, lsr #11
  54:	00000750 	andeq	r0, r0, r0, asr r7
	...
  60:	0000001c 	andeq	r0, r0, ip, lsl r0
  64:	02380002 	eorseq	r0, r8, #2
  68:	00040000 	andeq	r0, r4, r0
  6c:	00000000 	andeq	r0, r0, r0
  70:	c0100cf8 			; <UNDEFINED> instruction: 0xc0100cf8
  74:	000001d8 	ldrdeq	r0, [r0], -r8
	...
  80:	0000001c 	andeq	r0, r0, ip, lsl r0
  84:	039d0002 	orrseq	r0, sp, #2
  88:	00040000 	andeq	r0, r4, r0
  8c:	00000000 	andeq	r0, r0, r0
  90:	c0100ed0 			; <UNDEFINED> instruction: 0xc0100ed0
  94:	00000270 	andeq	r0, r0, r0, ror r2
	...
  a0:	0000001c 	andeq	r0, r0, ip, lsl r0
  a4:	06e00002 	strbteq	r0, [r0], r2
  a8:	00040000 	andeq	r0, r4, r0
  ac:	00000000 	andeq	r0, r0, r0
  b0:	c0101140 	andsgt	r1, r0, r0, asr #2
  b4:	00000258 	andeq	r0, r0, r8, asr r2
	...
  c0:	0000001c 	andeq	r0, r0, ip, lsl r0
  c4:	09ba0002 	ldmibeq	sl!, {r1}
  c8:	00040000 	andeq	r0, r4, r0
  cc:	00000000 	andeq	r0, r0, r0
  d0:	c0101398 	mulsgt	r0, r8, r3
  d4:	0000001c 	andeq	r0, r0, ip, lsl r0
	...
  e0:	0000001c 	andeq	r0, r0, ip, lsl r0
  e4:	0b710002 	bleq	1c400f4 <_start-0xbe4bff0c>
  e8:	00040000 	andeq	r0, r4, r0
  ec:	00000000 	andeq	r0, r0, r0
  f0:	c01013b4 			; <UNDEFINED> instruction: 0xc01013b4
  f4:	00000b78 	andeq	r0, r0, r8, ror fp
	...

Disassembly of section .debug_str:

00000000 <.debug_str>:
   0:	72617473 	rsbvc	r7, r1, #1929379840	; 0x73000000
   4:	00532e74 	subseq	r2, r3, r4, ror lr
   8:	6d6f682f 	stclvs	8, cr6, [pc, #-188]!	; ffffff54 <__bss_end+0x3fefdef0>
   c:	6f622f65 	svcvs	0x00622f65
  10:	772f6b6f 	strvc	r6, [pc, -pc, ror #22]!
  14:	2f6b726f 	svccs	0x006b726f
  18:	616e6966 	cmnvs	lr, r6, ror #18
  1c:	636c2f6c 	cmnvs	ip, #108, 30	; 0x1b0
  20:	32302f64 	eorscc	r2, r0, #100, 30	; 0x190
  24:	746f645f 	strbtvc	r6, [pc], #-1119	; 2c <_start-0xc00fffd4>
  28:	6e696c5f 	mcrvs	12, 3, r6, cr9, cr15, {2}
  2c:	69635f65 	stmdbvs	r3!, {r0, r2, r5, r6, r8, r9, sl, fp, ip, lr}^
  30:	656c6372 	strbvs	r6, [ip, #-882]!	; 0xfffffc8e
  34:	554e4700 	strbpl	r4, [lr, #-1792]	; 0xfffff900
  38:	20534120 	subscs	r4, r3, r0, lsr #2
  3c:	32332e32 	eorscc	r2, r3, #800	; 0x320
  40:	69616d00 	stmdbvs	r1!, {r8, sl, fp, sp, lr}^
  44:	00632e6e 	rsbeq	r2, r3, lr, ror #28
  48:	6e69616d 	powvsez	f6, f1, #5.0
  4c:	65727800 	ldrbvs	r7, [r2, #-2048]!	; 0xfffff800
  50:	636c0073 	cmnvs	ip, #115	; 0x73
  54:	65745f64 	ldrbvs	r5, [r4, #-3940]!	; 0xfffff09c
  58:	47007473 	smlsdxmi	r0, r3, r4, r7
  5c:	4320554e 			; <UNDEFINED> instruction: 0x4320554e
  60:	38203731 	stmdacc	r0!, {r0, r4, r5, r8, r9, sl, ip, sp}
  64:	302e342e 	eorcc	r3, lr, lr, lsr #8
  68:	636d2d20 	cmnvs	sp, #32, 26	; 0x800
  6c:	633d7570 	teqvs	sp, #112, 10	; 0x1c000000
  70:	6574726f 	ldrbvs	r7, [r4, #-623]!	; 0xfffffd91
  74:	37612d78 			; <UNDEFINED> instruction: 0x37612d78
  78:	666d2d20 	strbtvs	r2, [sp], -r0, lsr #26
  7c:	74616f6c 	strbtvc	r6, [r1], #-3948	; 0xfffff094
  80:	6962612d 	stmdbvs	r2!, {r0, r2, r3, r5, r8, sp, lr}^
  84:	7261683d 	rsbvc	r6, r1, #3997696	; 0x3d0000
  88:	6d2d2064 	stcvs	0, cr2, [sp, #-400]!	; 0xfffffe70
  8c:	3d757066 	ldclcc	0, cr7, [r5, #-408]!	; 0xfffffe68
  90:	76706676 			; <UNDEFINED> instruction: 0x76706676
  94:	31642d34 	cmncc	r4, r4, lsr sp
  98:	6d2d2036 	stcvs	0, cr2, [sp, #-216]!	; 0xffffff28
  9c:	3d696261 	sfmcc	f6, 2, [r9, #-388]!	; 0xfffffe7c
  a0:	63706161 	cmnvs	r0, #1073741848	; 0x40000018
  a4:	696c2d73 	stmdbvs	ip!, {r0, r1, r4, r5, r6, r8, sl, fp, sp}^
  a8:	2078756e 	rsbscs	r7, r8, lr, ror #10
  ac:	72616d2d 	rsbvc	r6, r1, #2880	; 0xb40
  b0:	6d2d206d 	stcvs	0, cr2, [sp, #-436]!	; 0xfffffe4c
  b4:	2d736c74 	ldclcs	12, cr6, [r3, #-464]!	; 0xfffffe30
  b8:	6c616964 			; <UNDEFINED> instruction: 0x6c616964
  bc:	3d746365 	ldclcc	3, cr6, [r4, #-404]!	; 0xfffffe6c
  c0:	20756e67 	rsbscs	r6, r5, r7, ror #28
  c4:	72616d2d 	rsbvc	r6, r1, #2880	; 0xb40
  c8:	613d6863 	teqvs	sp, r3, ror #16
  cc:	37766d72 			; <UNDEFINED> instruction: 0x37766d72
  d0:	662b6576 			; <UNDEFINED> instruction: 0x662b6576
  d4:	672d2070 			; <UNDEFINED> instruction: 0x672d2070
  d8:	5f626600 	svcpl	0x00626600
  dc:	65736162 	ldrbvs	r6, [r3, #-354]!	; 0xfffffe9e
  e0:	6f687300 	svcvs	0x00687300
  e4:	75207472 	strvc	r7, [r0, #-1138]!	; 0xfffffb8e
  e8:	6769736e 	strbvs	r7, [r9, -lr, ror #6]!
  ec:	2064656e 	rsbcs	r6, r4, lr, ror #10
  f0:	00746e69 	rsbseq	r6, r4, r9, ror #28
  f4:	73657279 	cmnvc	r5, #-1879048185	; 0x90000007
  f8:	6f656700 	svcvs	0x00656700
  fc:	7274656d 	rsbsvc	r6, r4, #457179136	; 0x1b400000
 100:	00632e79 	rsbeq	r2, r3, r9, ror lr
 104:	77617264 	strbvc	r7, [r1, -r4, ror #4]!
 108:	7269635f 	rsbvc	r6, r9, #2080374785	; 0x7c000001
 10c:	00656c63 	rsbeq	r6, r5, r3, ror #24
 110:	6f6c6f63 	svcvs	0x006c6f63
 114:	72640072 	rsbvc	r0, r4, #114	; 0x72
 118:	6c5f7761 	mrrcvs	7, 6, r7, pc, cr1	; <UNPREDICTABLE>
 11c:	00656e69 	rsbeq	r6, r5, r9, ror #28
 120:	65786970 	ldrbvs	r6, [r8, #-2416]!	; 0xfffff690
 124:	61625f6c 	cmnvs	r2, ip, ror #30
 128:	63006573 	movwvs	r6, #1395	; 0x573
 12c:	65766e6f 	ldrbvs	r6, [r6, #-3695]!	; 0xfffff191
 130:	32337472 	eorscc	r7, r3, #1912602624	; 0x72000000
 134:	74707062 	ldrbtvc	r7, [r0], #-98	; 0xffffff9e
 138:	6236316f 	eorsvs	r3, r6, #-1073741797	; 0xc000001b
 13c:	66007070 			; <UNDEFINED> instruction: 0x66007070
 140:	75705f62 	ldrbvc	r5, [r0, #-3938]!	; 0xfffff09e
 144:	69705f74 	ldmdbvs	r0!, {r2, r4, r5, r6, r8, r9, sl, fp, ip, lr}^
 148:	006c6578 	rsbeq	r6, ip, r8, ror r5
 14c:	675f6266 	ldrbvs	r6, [pc, -r6, ror #4]
 150:	6c5f7465 	cfldrdvs	mvd7, [pc], {101}	; 0x65
 154:	705f6463 	subsvc	r6, pc, r3, ror #8
 158:	6d617261 	sfmvs	f7, 2, [r1, #-388]!	; 0xfffffe7c
 15c:	72660073 	rsbvc	r0, r6, #115	; 0x73
 160:	62656d61 	rsbvs	r6, r5, #6208	; 0x1840
 164:	65666675 	strbvs	r6, [r6, #-1653]!	; 0xfffff98b
 168:	00632e72 	rsbeq	r2, r3, r2, ror lr
 16c:	636c5f70 	cmnvs	ip, #112, 30	; 0x1c0
 170:	6f635f64 	svcvs	0x00635f64
 174:	6f72746e 	svcvs	0x0072746e
 178:	72656c6c 	rsbvc	r6, r5, #108, 24	; 0x6c00
 17c:	64636c00 	strbtvs	r6, [r3], #-3072	; 0xfffff400
 180:	6e6f635f 	mcrvs	3, 3, r6, cr15, cr15, {2}
 184:	6c6c6f74 	stclvs	15, cr6, [ip], #-464	; 0xfffffe30
 188:	615f7265 	cmpvs	pc, r5, ror #4
 18c:	70006464 	andvc	r6, r0, r4, ror #8
 190:	7064636c 	rsbvc	r6, r4, ip, ror #6
 194:	6d617261 	sfmvs	f7, 2, [r1, #-388]!	; 0xfffffe7c
 198:	69700073 	ldmdbvs	r0!, {r0, r1, r4, r5, r6}^
 19c:	705f736e 	subsvc	r7, pc, lr, ror #6
 1a0:	72616c6f 	rsbvc	r6, r1, #28416	; 0x6f00
 1a4:	00797469 	rsbseq	r7, r9, r9, ror #8
 1a8:	656d6974 	strbvs	r6, [sp, #-2420]!	; 0xfffff68c
 1ac:	7165735f 	cmnvc	r5, pc, asr r3
 1b0:	636c7000 	cmnvs	ip, #0
 1b4:	6e6f6364 	cdpvs	3, 6, cr6, cr15, cr4, {3}
 1b8:	64636c00 	strbtvs	r6, [r3], #-3072	; 0xfffff400
 1bc:	6e6f635f 	mcrvs	3, 3, r6, cr15, cr15, {2}
 1c0:	6c6f7274 	sfmvs	f7, 2, [pc], #-464	; fffffff8 <__bss_end+0x3fefdf94>
 1c4:	5f72656c 	svcpl	0x0072656c
 1c8:	616e616d 	cmnvs	lr, sp, ror #2
 1cc:	2e726567 	cdpcs	5, 7, cr6, cr2, cr7, {3}
 1d0:	5f670063 	svcpl	0x00670063
 1d4:	636c5f70 	cmnvs	ip, #112, 30	; 0x1c0
 1d8:	6f635f64 	svcvs	0x00635f64
 1dc:	6f72746e 	svcvs	0x0072746e
 1e0:	72656c6c 	rsbvc	r6, r5, #108, 24	; 0x6c00
 1e4:	6c65735f 	stclvs	3, cr7, [r5], #-380	; 0xfffffe84
 1e8:	65746365 	ldrbvs	r6, [r4, #-869]!	; 0xfffffc9b
 1ec:	73680064 	cmnvc	r8, #100	; 0x64
 1f0:	00636e79 	rsbeq	r6, r3, r9, ror lr
 1f4:	69676572 	stmdbvs	r7!, {r1, r4, r5, r6, r8, sl, sp, lr}^
 1f8:	72657473 	rsbvc	r7, r5, #1929379840	; 0x73000000
 1fc:	64636c5f 	strbtvs	r6, [r3], #-3167	; 0xfffff3a1
 200:	6e6f635f 	mcrvs	3, 3, r6, cr15, cr15, {2}
 204:	6c6f7274 	sfmvs	f7, 2, [pc], #-464	; 3c <_start-0xc00fffc4>
 208:	0072656c 	rsbseq	r6, r2, ip, ror #10
 20c:	6b6c6376 	blvs	1b18fec <_start-0xbe5e7014>
 210:	6c5f7000 	mravs	r7, pc, acc0
 214:	705f6463 	subsvc	r6, pc, r3, ror #8
 218:	6d617261 	sfmvs	f7, 2, [r1, #-388]!	; 0xfffffe7c
 21c:	5f700073 	svcpl	0x00700073
 220:	61727261 	cmnvs	r2, r1, ror #4
 224:	636c5f79 	cmnvs	ip, #484	; 0x1e4
 228:	6f635f64 	svcvs	0x00635f64
 22c:	6f72746e 	svcvs	0x0072746e
 230:	72656c6c 	rsbvc	r6, r5, #108, 24	; 0x6c00
 234:	72747300 	rsbsvc	r7, r4, #0, 6
 238:	00706d63 	rsbseq	r6, r0, r3, ror #26
 23c:	656c6573 	strbvs	r6, [ip, #-1395]!	; 0xfffffa8d
 240:	6c5f7463 	cfldrdvs	mvd7, [pc], {99}	; 0x63
 244:	635f6463 	cmpvs	pc, #1660944384	; 0x63000000
 248:	72746e6f 	rsbsvc	r6, r4, #1776	; 0x6f0
 24c:	656c6c6f 	strbvs	r6, [ip, #-3183]!	; 0xfffff391
 250:	73760072 	cmnvc	r6, #114	; 0x72
 254:	00636e79 	rsbeq	r6, r3, r9, ror lr
 258:	656d616e 	strbvs	r6, [sp, #-366]!	; 0xfffffe92
 25c:	6e697000 	cdpvs	0, 6, cr7, cr9, cr0, {0}
 260:	6f705f73 	svcvs	0x00705f73
 264:	6974006c 	ldmdbvs	r4!, {r2, r3, r5, r6}^
 268:	735f656d 	cmpvc	pc, #457179136	; 0x1b400000
 26c:	65757165 	ldrbvs	r7, [r5, #-357]!	; 0xfffffe9b
 270:	0065636e 	rsbeq	r6, r5, lr, ror #6
 274:	65725f5f 	ldrbvs	r5, [r2, #-3935]!	; 0xfffff0a1
 278:	636c0073 	cmnvs	ip, #115	; 0x73
 27c:	616d5f64 	cmnvs	sp, r4, ror #30
 280:	6567616e 	strbvs	r6, [r7, #-366]!	; 0xfffffe92
 284:	00632e72 	rsbeq	r2, r3, r2, ror lr
 288:	616c6564 	cmnvs	ip, r4, ror #10
 28c:	636c0079 	cmnvs	ip, #121	; 0x79
 290:	6e695f64 	cdpvs	15, 6, cr5, cr9, cr4, {3}
 294:	6c007469 	cfstrsvs	mvf7, [r0], {105}	; 0x69
 298:	645f6463 	ldrbvs	r6, [pc], #-1123	; 2a0 <_start-0xc00ffd60>
 29c:	62617369 	rsbvs	r7, r1, #-1543503871	; 0xa4000001
 2a0:	7000656c 	andvc	r6, r0, ip, ror #10
 2a4:	7272615f 	rsbsvc	r6, r2, #-1073741801	; 0xc0000017
 2a8:	6c5f7961 	mrrcvs	9, 6, r7, pc, cr1	; <UNPREDICTABLE>
 2ac:	6c006463 	cfstrsvs	mvf6, [r0], {99}	; 0x63
 2b0:	655f6463 	ldrbvs	r6, [pc, #-1123]	; fffffe55 <__bss_end+0x3fefddf1>
 2b4:	6c62616e 	stfvse	f6, [r2], #-440	; 0xfffffe48
 2b8:	65730065 	ldrbvs	r0, [r3, #-101]!	; 0xffffff9b
 2bc:	7463656c 	strbtvc	r6, [r3], #-1388	; 0xfffffa94
 2c0:	64636c5f 	strbtvs	r6, [r3], #-3167	; 0xfffff3a1
 2c4:	705f6700 	subsvc	r6, pc, r0, lsl #14
 2c8:	64636c5f 	strbtvs	r6, [r3], #-3167	; 0xfffff3a1
 2cc:	6c65735f 	stclvs	3, cr7, [r5], #-380	; 0xfffffe84
 2d0:	65746365 	ldrbvs	r6, [r4, #-869]!	; 0xfffffc9b
 2d4:	6c700064 	ldclvs	0, cr0, [r0], #-400	; 0xfffffe70
 2d8:	72006463 	andvc	r6, r0, #1660944384	; 0x63000000
 2dc:	73696765 	cmnvc	r9, #26476544	; 0x1940000
 2e0:	5f726574 	svcpl	0x00726574
 2e4:	0064636c 	rsbeq	r6, r4, ip, ror #6
 2e8:	5f64636c 	svcpl	0x0064636c
 2ec:	5f305f37 	svcpl	0x00305f37
 2f0:	00646461 	rsbeq	r6, r4, r1, ror #8
 2f4:	45564e49 	ldrbmi	r4, [r6, #-3657]	; 0xfffff1b7
 2f8:	6c005452 	cfstrsvs	mvf5, [r0], {82}	; 0x52
 2fc:	375f6463 	ldrbcc	r6, [pc, -r3, ror #8]
 300:	705f305f 	subsvc	r3, pc, pc, asr r0	; <UNPREDICTABLE>
 304:	6d617261 	sfmvs	f7, 2, [r1, #-388]!	; 0xfffffe7c
 308:	4f4e0073 	svcmi	0x004e0073
 30c:	4c414d52 	mcrrmi	13, 5, r4, r1, cr2
 310:	64636c00 	strbtvs	r6, [r3], #-3072	; 0xfffff400
 314:	305f375f 	subscc	r3, pc, pc, asr r7	; <UNPREDICTABLE>
 318:	4700632e 	strmi	r6, [r0, -lr, lsr #6]
 31c:	494f4950 	stmdbmi	pc, {r4, r6, r8, fp, lr}^	; <UNPREDICTABLE>
 320:	50534f5f 	subspl	r4, r3, pc, asr pc
 324:	52444545 	subpl	r4, r4, #289406976	; 0x11400000
 328:	44544c00 	ldrbmi	r4, [r4], #-3072	; 0xfffff400
 32c:	43475f43 	movtmi	r5, #32579	; 0x7f43
 330:	4c005231 	sfmmi	f5, 4, [r0], {49}	; 0x31
 334:	46494443 	strbmi	r4, [r9], -r3, asr #8
 338:	7079545f 	rsbsvc	r5, r9, pc, asr r4
 33c:	544c0065 	strbpl	r0, [ip], #-101	; 0xffffff9b
 340:	425f4344 	subsmi	r4, pc, #68, 6	; 0x10000001
 344:	00524350 	subseq	r4, r2, r0, asr r3
 348:	336d7453 	cmncc	sp, #1392508928	; 0x53000000
 34c:	31706d32 	cmncc	r0, r2, lsr sp
 350:	6c5f3735 	mrrcvs	7, 3, r3, pc, cr5	; <UNPREDICTABLE>
 354:	635f6463 	cmpvs	pc, #1660944384	; 0x63000000
 358:	72746e6f 	rsbsvc	r6, r4, #1776	; 0x6f0
 35c:	656c6c6f 	strbvs	r6, [ip, #-3183]!	; 0xfffff391
 360:	50470072 	subpl	r0, r7, r2, ror r0
 364:	5f474f49 	svcpl	0x00474f49
 368:	45444f4d 	strbmi	r4, [r4, #-3917]	; 0xfffff0b3
 36c:	544c0052 	strbpl	r0, [ip], #-82	; 0xffffffae
 370:	4c5f4344 	mrrcmi	3, 4, r4, pc, cr4	; <UNPREDICTABLE>
 374:	43465031 	movtmi	r5, #24625	; 0x6031
 378:	544c0052 	strbpl	r0, [ip], #-82	; 0xffffffae
 37c:	535f4344 	cmppl	pc, #68, 6	; 0x10000001
 380:	00524353 	subseq	r4, r2, r3, asr r3
 384:	336d7453 	cmncc	sp, #1392508928	; 0x53000000
 388:	31706d32 	cmncc	r0, r2, lsr sp
 38c:	6c5f3735 	mrrcvs	7, 3, r3, pc, cr5	; <UNPREDICTABLE>
 390:	695f6463 	ldmdbvs	pc, {r0, r1, r5, r6, sl, sp, lr}^	; <UNPREDICTABLE>
 394:	6e695f6f 	cdpvs	15, 6, cr5, cr9, cr15, {3}
 398:	52007469 	andpl	r7, r0, #1761607680	; 0x69000000
 39c:	52455345 	subpl	r5, r5, #335544321	; 0x14000001
 3a0:	5f444556 	svcpl	0x00444556
 3a4:	544c0037 	strbpl	r0, [ip], #-55	; 0xffffffc9
 3a8:	4c5f4344 	mrrcmi	3, 4, r4, pc, cr4	; <UNPREDICTABLE>
 3ac:	434b4331 	movtmi	r4, #45873	; 0xb331
 3b0:	50470052 	subpl	r0, r7, r2, asr r0
 3b4:	5f444f49 	svcpl	0x00444f49
 3b8:	45444f4d 	strbmi	r4, [r4, #-3917]	; 0xfffff0b3
 3bc:	544c0052 	strbpl	r0, [ip], #-82	; 0xffffffae
 3c0:	4c5f4344 	mrrcmi	3, 4, r4, pc, cr4	; <UNPREDICTABLE>
 3c4:	42464332 	submi	r4, r6, #-939524096	; 0xc8000000
 3c8:	5200524c 	andpl	r5, r0, #76, 4	; 0xc0000004
 3cc:	4d5f4343 	ldclmi	3, cr4, [pc, #-268]	; 2c8 <_start-0xc00ffd38>
 3d0:	50415f50 	subpl	r5, r1, r0, asr pc
 3d4:	4e453442 	cdpmi	4, 4, cr3, cr5, cr2, {2}
 3d8:	52544553 	subspl	r4, r4, #348127232	; 0x14c00000
 3dc:	44544c00 	ldrbmi	r4, [r4], #-3072	; 0xfffff400
 3e0:	314c5f43 	cmpcc	ip, r3, asr #30
 3e4:	43504857 	cmpmi	r0, #5701632	; 0x570000
 3e8:	74530052 	ldrbvc	r0, [r3], #-82	; 0xffffffae
 3ec:	6d32336d 	ldcvs	3, cr3, [r2, #-436]!	; 0xfffffe4c
 3f0:	37353170 			; <UNDEFINED> instruction: 0x37353170
 3f4:	6e6f635f 	mcrvs	3, 3, r6, cr15, cr15, {2}
 3f8:	4c00632e 	stcmi	3, cr6, [r0], {46}	; 0x2e
 3fc:	5f434454 	svcpl	0x00434454
 400:	52435253 	subpl	r5, r3, #805306373	; 0x30000005
 404:	44544c00 	ldrbmi	r4, [r4], #-3072	; 0xfffff400
 408:	324c5f43 	subcc	r5, ip, #268	; 0x10c
 40c:	41424643 	cmpmi	r2, r3, asr #12
 410:	70620052 	rsbvc	r0, r2, r2, asr r0
 414:	6f6d5f70 	svcvs	0x006d5f70
 418:	4c006564 	cfstr32mi	mvfx6, [r0], {100}	; 0x64
 41c:	5f434454 	svcpl	0x00434454
 420:	4143314c 	cmpmi	r3, ip, asr #2
 424:	4c005243 	sfmmi	f5, 4, [r0], {67}	; 0x43
 428:	5f434454 	svcpl	0x00434454
 42c:	00524349 	subseq	r4, r2, r9, asr #6
 430:	4344544c 	movtmi	r5, #17484	; 0x444c
 434:	3243475f 	subcc	r4, r3, #24903680	; 0x17c0000
 438:	544c0052 	strbpl	r0, [ip], #-82	; 0xffffffae
 43c:	4c5f4344 	mrrcmi	3, 4, r4, pc, cr4	; <UNPREDICTABLE>
 440:	43434431 	movtmi	r4, #13361	; 0x3431
 444:	544c0052 	strbpl	r0, [ip], #-82	; 0xffffffae
 448:	4c5f4344 	mrrcmi	3, 4, r4, pc, cr4	; <UNPREDICTABLE>
 44c:	42464331 	submi	r4, r6, #-1006632960	; 0xc4000000
 450:	00524e4c 	subseq	r4, r2, ip, asr #28
 454:	4f495047 	svcmi	0x00495047
 458:	4f4d5f45 	svcmi	0x004d5f45
 45c:	00524544 	subseq	r4, r2, r4, asr #10
 460:	4f495047 	svcmi	0x00495047
 464:	46415f47 	strbmi	r5, [r1], -r7, asr #30
 468:	52004c52 	andpl	r4, r0, #20992	; 0x5200
 46c:	525f4343 	subspl	r4, pc, #201326593	; 0xc000001
 470:	53344b43 	teqpl	r4, #68608	; 0x10c00
 474:	00524c45 	subseq	r4, r2, r5, asr #24
 478:	4344544c 	movtmi	r5, #17484	; 0x444c
 47c:	43324c5f 	teqmi	r2, #24320	; 0x5f00
 480:	5754554c 	ldrbpl	r5, [r4, -ip, asr #10]
 484:	544c0052 	strbpl	r0, [ip], #-82	; 0xffffffae
 488:	4c5f4344 	mrrcmi	3, 4, r4, pc, cr4	; <UNPREDICTABLE>
 48c:	52435049 	subpl	r5, r3, #73	; 0x49
 490:	6d745300 	ldclvs	3, cr5, [r4, #-0]
 494:	706d3233 	rsbvc	r3, sp, r3, lsr r2
 498:	5f373531 	svcpl	0x00373531
 49c:	5f64636c 	svcpl	0x0064636c
 4a0:	746e6f63 	strbtvc	r6, [lr], #-3939	; 0xfffff09d
 4a4:	6c6c6f72 	stclvs	15, cr6, [ip], #-456	; 0xfffffe38
 4a8:	695f7265 	ldmdbvs	pc, {r0, r2, r5, r6, r9, ip, sp, lr}^	; <UNPREDICTABLE>
 4ac:	0074696e 	rsbseq	r6, r4, lr, ror #18
 4b0:	4344544c 	movtmi	r5, #17484	; 0x444c
 4b4:	50324c5f 	eorspl	r4, r2, pc, asr ip
 4b8:	00524346 	subseq	r4, r2, r6, asr #6
 4bc:	4344544c 	movtmi	r5, #17484	; 0x444c
 4c0:	42314c5f 	eorsmi	r4, r1, #24320	; 0x5f00
 4c4:	00524346 	subseq	r4, r2, r6, asr #6
 4c8:	4344544c 	movtmi	r5, #17484	; 0x444c
 4cc:	43324c5f 	teqmi	r2, #24320	; 0x5f00
 4d0:	0052434b 	subseq	r4, r2, fp, asr #6
 4d4:	69736e75 	ldmdbvs	r3!, {r0, r2, r4, r5, r6, r9, sl, fp, sp, lr}^
 4d8:	64656e67 	strbtvs	r6, [r5], #-3687	; 0xfffff199
 4dc:	61686320 	cmnvs	r8, r0, lsr #6
 4e0:	544c0072 	strbpl	r0, [ip], #-114	; 0xffffff8e
 4e4:	475f4344 	ldrbmi	r4, [pc, -r4, asr #6]
 4e8:	53005243 	movwpl	r5, #579	; 0x243
 4ec:	32336d74 	eorscc	r6, r3, #116, 26	; 0x1d00
 4f0:	3531706d 	ldrcc	r7, [r1, #-109]!	; 0xffffff93
 4f4:	636c5f37 	cmnvs	ip, #55, 30	; 0xdc
 4f8:	6f635f64 	svcvs	0x00635f64
 4fc:	6f72746e 	svcvs	0x0072746e
 500:	72656c6c 	rsbvc	r6, r5, #108, 24	; 0x6c00
 504:	616e655f 	cmnvs	lr, pc, asr r5
 508:	00656c62 	rsbeq	r6, r5, r2, ror #24
 50c:	4f495047 	svcmi	0x00495047
 510:	534f5f44 	movtpl	r5, #65348	; 0xff44
 514:	44454550 	strbmi	r4, [r5], #-1360	; 0xfffffab0
 518:	544c0052 	strbpl	r0, [ip], #-82	; 0xffffffae
 51c:	425f4344 	subsmi	r4, pc, #68, 6	; 0x10000001
 520:	00524343 	subseq	r4, r2, r3, asr #6
 524:	4344544c 	movtmi	r5, #17484	; 0x444c
 528:	5244495f 	subpl	r4, r4, #1556480	; 0x17c000
 52c:	44544c00 	ldrbmi	r4, [r4], #-3072	; 0xfffff400
 530:	53495f43 	movtpl	r5, #40771	; 0x9f43
 534:	544c0052 	strbpl	r0, [ip], #-82	; 0xffffffae
 538:	435f4344 	cmpmi	pc, #68, 6	; 0x10000001
 53c:	00525350 	subseq	r5, r2, r0, asr r3
 540:	4344544c 	movtmi	r5, #17484	; 0x444c
 544:	57324c5f 			; <UNDEFINED> instruction: 0x57324c5f
 548:	52435056 	subpl	r5, r3, #86	; 0x56
 54c:	44544c00 	ldrbmi	r4, [r4], #-3072	; 0xfffff400
 550:	324c5f43 	subcc	r5, ip, #268	; 0x10c
 554:	43504857 	cmpmi	r0, #5701632	; 0x570000
 558:	74530052 	ldrbvc	r0, [r3], #-82	; 0xffffffae
 55c:	6d32336d 	ldcvs	3, cr3, [r2, #-436]!	; 0xfffffe4c
 560:	37353170 			; <UNDEFINED> instruction: 0x37353170
 564:	6b6c635f 	blvs	1b192e8 <_start-0xbe5e6d18>
 568:	696e695f 	stmdbvs	lr!, {r0, r1, r2, r3, r4, r6, r8, fp, sp, lr}^
 56c:	50470074 	subpl	r0, r7, r4, ror r0
 570:	5f444f49 	svcpl	0x00444f49
 574:	48524641 	ldmdami	r2, {r0, r6, r9, sl, lr}^
 578:	44544c00 	ldrbmi	r4, [r4], #-3072	; 0xfffff400
 57c:	324c5f43 	subcc	r5, ip, #268	; 0x10c
 580:	52434143 	subpl	r4, r3, #-1073741808	; 0xc0000010
 584:	43435200 	movtmi	r5, #12800	; 0x3200
 588:	4c4c505f 	mcrrmi	0, 5, r5, ip, cr15
 58c:	00524334 	subseq	r4, r2, r4, lsr r3
 590:	4344544c 	movtmi	r5, #17484	; 0x444c
 594:	44324c5f 	ldrtmi	r4, [r2], #-3167	; 0xfffff3a1
 598:	00524343 	subseq	r4, r2, r3, asr #6
 59c:	4344544c 	movtmi	r5, #17484	; 0x444c
 5a0:	43314c5f 	teqmi	r1, #24320	; 0x5f00
 5a4:	524c4246 	subpl	r4, ip, #1610612740	; 0x60000004
 5a8:	49504700 	ldmdbmi	r0, {r8, r9, sl, lr}^
 5ac:	4d5f494f 	vldrmi.16	s9, [pc, #-158]	; 516 <_start-0xc00ffaea>	; <UNPREDICTABLE>
 5b0:	5245444f 	subpl	r4, r5, #1325400064	; 0x4f000000
 5b4:	49504700 	ldmdbmi	r0, {r8, r9, sl, lr}^
 5b8:	4f5f474f 	svcmi	0x005f474f
 5bc:	45455053 	strbmi	r5, [r5, #-83]	; 0xffffffad
 5c0:	47005244 	strmi	r5, [r0, -r4, asr #4]
 5c4:	454f4950 	strbmi	r4, [pc, #-2384]	; fffffc7c <__bss_end+0x3fefdc18>
 5c8:	52444f5f 	subpl	r4, r4, #380	; 0x17c
 5cc:	49504700 	ldmdbmi	r0, {r8, r9, sl, lr}^
 5d0:	415f474f 	cmpmi	pc, pc, asr #14
 5d4:	00485246 	subeq	r5, r8, r6, asr #4
 5d8:	4f495047 	svcmi	0x00495047
 5dc:	46415f49 	strbmi	r5, [r1], -r9, asr #30
 5e0:	4c004852 	stcmi	8, cr4, [r0], {82}	; 0x52
 5e4:	5f434454 	svcpl	0x00434454
 5e8:	4643314c 	strbmi	r3, [r3], -ip, asr #2
 5ec:	00524142 	subseq	r4, r2, r2, asr #2
 5f0:	4344544c 	movtmi	r5, #17484	; 0x444c
 5f4:	43324c5f 	teqmi	r2, #24320	; 0x5f00
 5f8:	50470052 	subpl	r0, r7, r2, asr r0
 5fc:	5f494f49 	svcpl	0x00494f49
 600:	4c524641 	mrrcmi	6, 4, r4, r2, cr1
 604:	53455200 	movtpl	r5, #20992	; 0x5200
 608:	45565245 	ldrbmi	r5, [r6, #-581]	; 0xfffffdbb
 60c:	00305f44 	eorseq	r5, r0, r4, asr #30
 610:	45534552 	ldrbmi	r4, [r3, #-1362]	; 0xfffffaae
 614:	44455652 	strbmi	r5, [r5], #-1618	; 0xfffff9ae
 618:	5200315f 	andpl	r3, r0, #-1073741801	; 0xc0000017
 61c:	52455345 	subpl	r5, r5, #335544321	; 0x14000001
 620:	5f444556 	svcpl	0x00444556
 624:	45520032 	ldrbmi	r0, [r2, #-50]	; 0xffffffce
 628:	56524553 			; <UNDEFINED> instruction: 0x56524553
 62c:	335f4445 	cmpcc	pc, #1157627904	; 0x45000000
 630:	53455200 	movtpl	r5, #20992	; 0x5200
 634:	45565245 	ldrbmi	r5, [r6, #-581]	; 0xfffffdbb
 638:	00345f44 	eorseq	r5, r4, r4, asr #30
 63c:	45534552 	ldrbmi	r4, [r3, #-1362]	; 0xfffffaae
 640:	44455652 	strbmi	r5, [r5], #-1618	; 0xfffff9ae
 644:	5200355f 	andpl	r3, r0, #398458880	; 0x17c00000
 648:	52455345 	subpl	r5, r5, #335544321	; 0x14000001
 64c:	5f444556 	svcpl	0x00444556
 650:	544c0036 	strbpl	r0, [ip], #-54	; 0xffffffca
 654:	4c5f4344 	mrrcmi	3, 4, r4, pc, cr4	; <UNPREDICTABLE>
 658:	50565731 	subspl	r5, r6, r1, lsr r7
 65c:	4c005243 	sfmmi	f5, 4, [r0], {67}	; 0x43
 660:	5f434454 	svcpl	0x00434454
 664:	00524549 	subseq	r4, r2, r9, asr #10
 668:	4344544c 	movtmi	r5, #17484	; 0x444c
 66c:	43314c5f 	teqmi	r1, #24320	; 0x5f00
 670:	5754554c 	ldrbpl	r5, [r4, -ip, asr #10]
 674:	74530052 	ldrbvc	r0, [r3], #-82	; 0xffffffae
 678:	6d32336d 	ldcvs	3, cr3, [r2, #-436]!	; 0xfffffe4c
 67c:	37353170 			; <UNDEFINED> instruction: 0x37353170
 680:	64636c5f 	strbtvs	r6, [r3], #-3167	; 0xfffff3a1
 684:	6e6f635f 	mcrvs	3, 3, r6, cr15, cr15, {2}
 688:	6c6f7274 	sfmvs	f7, 2, [pc], #-464	; 4c0 <_start-0xc00ffb40>
 68c:	5f72656c 	svcpl	0x0072656c
 690:	61736964 	cmnvs	r3, r4, ror #18
 694:	00656c62 	rsbeq	r6, r5, r2, ror #24
 698:	4344544c 	movtmi	r5, #17484	; 0x444c
 69c:	43314c5f 	teqmi	r1, #24320	; 0x5f00
 6a0:	50470052 	subpl	r0, r7, r2, asr r0
 6a4:	5f484f49 	svcpl	0x00484f49
 6a8:	4c524641 	mrrcmi	6, 4, r4, r2, cr1
 6ac:	49504700 	ldmdbmi	r0, {r8, r9, sl, lr}^
 6b0:	415f454f 	cmpmi	pc, pc, asr #10
 6b4:	00485246 	subeq	r5, r8, r6, asr #4
 6b8:	4f495047 	svcmi	0x00495047
 6bc:	46415f45 	strbmi	r5, [r1], -r5, asr #30
 6c0:	4c004c52 	stcmi	12, cr4, [r0], {82}	; 0x52
 6c4:	5f434454 	svcpl	0x00434454
 6c8:	4643324c 	strbmi	r3, [r3], -ip, asr #4
 6cc:	524e4c42 	subpl	r4, lr, #16896	; 0x4200
 6d0:	6d745300 	ldclvs	3, cr5, [r4, #-0]
 6d4:	706d3233 	rsbvc	r3, sp, r3, lsr r2
 6d8:	5f373531 	svcpl	0x00373531
 6dc:	5f64636c 	svcpl	0x0064636c
 6e0:	746e6f63 	strbtvc	r6, [lr], #-3939	; 0xfffff09d
 6e4:	6c6c6f72 	stclvs	15, cr6, [ip], #-456	; 0xfffffe38
 6e8:	615f7265 	cmpvs	pc, r5, ror #4
 6ec:	52006464 	andpl	r6, r0, #100, 8	; 0x64000000
 6f0:	505f4343 	subspl	r4, pc, r3, asr #6
 6f4:	46344c4c 	ldrtmi	r4, [r4], -ip, asr #24
 6f8:	52434152 	subpl	r4, r3, #-2147483628	; 0x80000014
 6fc:	49504700 	ldmdbmi	r0, {r8, r9, sl, lr}^
 700:	4f5f454f 	svcmi	0x005f454f
 704:	45455053 	strbmi	r5, [r5, #-83]	; 0xffffffad
 708:	52005244 	andpl	r5, r0, #68, 4	; 0x40000004
 70c:	4d5f4343 	ldclmi	3, cr4, [pc, #-268]	; 608 <_start-0xc00ff9f8>
 710:	48415f50 	stmdami	r1, {r4, r6, r8, r9, sl, fp, ip, lr}^
 714:	4e453442 	cdpmi	4, 4, cr3, cr5, cr2, {2}
 718:	52544553 	subspl	r4, r4, #348127232	; 0x14c00000
 71c:	44544c00 	ldrbmi	r4, [r4], #-3072	; 0xfffff400
 720:	57545f43 	ldrbpl	r5, [r4, -r3, asr #30]
 724:	52005243 	andpl	r5, r0, #805306372	; 0x30000004
 728:	505f4343 	subspl	r4, pc, r3, asr #6
 72c:	43344c4c 	teqmi	r4, #76, 24	; 0x4c00
 730:	31524746 	cmpcc	r2, r6, asr #14
 734:	43435200 	movtmi	r5, #12800	; 0x3200
 738:	4c4c505f 	mcrrmi	0, 5, r5, ip, cr15
 73c:	47464334 	smlaldxmi	r4, r6, r4, r3
 740:	47003252 	smlsdmi	r0, r2, r2, r3
 744:	484f4950 	stmdami	pc, {r4, r6, r8, fp, lr}^	; <UNPREDICTABLE>
 748:	5246415f 	subpl	r4, r6, #-1073741801	; 0xc0000017
 74c:	544c0048 	strbpl	r0, [ip], #-72	; 0xffffffb8
 750:	4c5f4344 	mrrcmi	3, 4, r4, pc, cr4	; <UNPREDICTABLE>
 754:	43464232 	movtmi	r4, #25138	; 0x6232
 758:	544c0052 	strbpl	r0, [ip], #-82	; 0xffffffae
 75c:	4c5f4344 	mrrcmi	3, 4, r4, pc, cr4	; <UNPREDICTABLE>
 760:	4c005243 	sfmmi	f5, 4, [r0], {67}	; 0x43
 764:	5f434454 	svcpl	0x00434454
 768:	52534443 	subspl	r4, r3, #1124073472	; 0x43000000
 76c:	49504700 	ldmdbmi	r0, {r8, r9, sl, lr}^
 770:	4d5f484f 	ldclmi	8, cr4, [pc, #-316]	; 63c <_start-0xc00ff9c4>
 774:	5245444f 	subpl	r4, r5, #1325400064	; 0x4f000000
 778:	44544c00 	ldrbmi	r4, [r4], #-3072	; 0xfffff400
 77c:	57415f43 	strbpl	r5, [r1, -r3, asr #30]
 780:	47005243 	strmi	r5, [r0, -r3, asr #4]
 784:	484f4950 	stmdami	pc, {r4, r6, r8, fp, lr}^	; <UNPREDICTABLE>
 788:	50534f5f 	subspl	r4, r3, pc, asr pc
 78c:	52444545 	subpl	r4, r4, #289406976	; 0x11400000
	...

Disassembly of section .debug_frame:

00000000 <.debug_frame>:
   0:	0000000c 	andeq	r0, r0, ip
   4:	ffffffff 			; <UNDEFINED> instruction: 0xffffffff
   8:	7c020001 	stcvc	0, cr0, [r2], {1}
   c:	000d0c0e 	andeq	r0, sp, lr, lsl #24
  10:	00000020 	andeq	r0, r0, r0, lsr #32
  14:	00000000 	andeq	r0, r0, r0
  18:	c010003c 	andsgt	r0, r0, ip, lsr r0
  1c:	00000550 	andeq	r0, r0, r0, asr r5
  20:	8b080e42 	blhi	203930 <_start-0xbfefc6d0>
  24:	42018e02 	andmi	r8, r1, #2, 28
  28:	03040b0c 	movweq	r0, #19212	; 0x4b0c
  2c:	0d0c02a2 	sfmeq	f0, 4, [ip, #-648]	; 0xfffffd78
  30:	00000008 	andeq	r0, r0, r8
  34:	00000018 	andeq	r0, r0, r8, lsl r0
  38:	00000000 	andeq	r0, r0, r0
  3c:	c010058c 	andsgt	r0, r0, ip, lsl #11
  40:	0000001c 	andeq	r0, r0, ip, lsl r0
  44:	8b080e42 	blhi	203954 <_start-0xbfefc6ac>
  48:	42018e02 	andmi	r8, r1, #2, 28
  4c:	00040b0c 	andeq	r0, r4, ip, lsl #22
  50:	0000000c 	andeq	r0, r0, ip
  54:	ffffffff 			; <UNDEFINED> instruction: 0xffffffff
  58:	7c020001 	stcvc	0, cr0, [r2], {1}
  5c:	000d0c0e 	andeq	r0, sp, lr, lsl #24
  60:	0000001c 	andeq	r0, r0, ip, lsl r0
  64:	00000050 	andeq	r0, r0, r0, asr r0
  68:	c01005a8 	andsgt	r0, r0, r8, lsr #11
  6c:	000001e4 	andeq	r0, r0, r4, ror #3
  70:	8b080e42 	blhi	203980 <_start-0xbfefc680>
  74:	42018e02 	andmi	r8, r1, #2, 28
  78:	02040b0c 	andeq	r0, r4, #12, 22	; 0x3000
  7c:	080d0cec 	stmdaeq	sp, {r2, r3, r5, r6, r7, sl, fp}
  80:	00000020 	andeq	r0, r0, r0, lsr #32
  84:	00000050 	andeq	r0, r0, r0, asr r0
  88:	c010078c 	andsgt	r0, r0, ip, lsl #15
  8c:	0000056c 	andeq	r0, r0, ip, ror #10
  90:	8b080e42 	blhi	2039a0 <_start-0xbfefc660>
  94:	42018e02 	andmi	r8, r1, #2, 28
  98:	03040b0c 	movweq	r0, #19212	; 0x4b0c
  9c:	0d0c02b0 	sfmeq	f0, 4, [ip, #-704]	; 0xfffffd40
  a0:	00000008 	andeq	r0, r0, r8
  a4:	0000000c 	andeq	r0, r0, ip
  a8:	ffffffff 			; <UNDEFINED> instruction: 0xffffffff
  ac:	7c020001 	stcvc	0, cr0, [r2], {1}
  b0:	000d0c0e 	andeq	r0, sp, lr, lsl #24
  b4:	00000018 	andeq	r0, r0, r8, lsl r0
  b8:	000000a4 	andeq	r0, r0, r4, lsr #1
  bc:	c0100cf8 			; <UNDEFINED> instruction: 0xc0100cf8
  c0:	00000034 	andeq	r0, r0, r4, lsr r0
  c4:	8b080e42 	blhi	2039d4 <_start-0xbfefc62c>
  c8:	42018e02 	andmi	r8, r1, #2, 28
  cc:	00040b0c 	andeq	r0, r4, ip, lsl #22
  d0:	0000001c 	andeq	r0, r0, ip, lsl r0
  d4:	000000a4 	andeq	r0, r0, r4, lsr #1
  d8:	c0100d2c 	andsgt	r0, r0, ip, lsr #26
  dc:	000000a4 	andeq	r0, r0, r4, lsr #1
  e0:	8b040e42 	blhi	1039f0 <_start-0xbfffc610>
  e4:	0b0d4201 	bleq	3508f0 <_start-0xbfdaf710>
  e8:	0d0d4a02 	vstreq	s8, [sp, #-8]
  ec:	000ecb42 	andeq	ip, lr, r2, asr #22
  f0:	0000001c 	andeq	r0, r0, ip, lsl r0
  f4:	000000a4 	andeq	r0, r0, r4, lsr #1
  f8:	c0100dd0 			; <UNDEFINED> instruction: 0xc0100dd0
  fc:	00000100 	andeq	r0, r0, r0, lsl #2
 100:	8b080e42 	blhi	203a10 <_start-0xbfefc5f0>
 104:	42018e02 	andmi	r8, r1, #2, 28
 108:	02040b0c 	andeq	r0, r4, #12, 22	; 0x3000
 10c:	080d0c7a 	stmdaeq	sp, {r1, r3, r4, r5, r6, sl, fp}
 110:	0000000c 	andeq	r0, r0, ip
 114:	ffffffff 			; <UNDEFINED> instruction: 0xffffffff
 118:	7c020001 	stcvc	0, cr0, [r2], {1}
 11c:	000d0c0e 	andeq	r0, sp, lr, lsl #24
 120:	00000020 	andeq	r0, r0, r0, lsr #32
 124:	00000110 	andeq	r0, r0, r0, lsl r1
 128:	c0100ed0 			; <UNDEFINED> instruction: 0xc0100ed0
 12c:	00000070 	andeq	r0, r0, r0, ror r0
 130:	84080e42 	strhi	r0, [r8], #-3650	; 0xfffff1be
 134:	42018b02 	andmi	r8, r1, #2048	; 0x800
 138:	70040b0c 	andvc	r0, r4, ip, lsl #22
 13c:	42080d0c 	andmi	r0, r8, #12, 26	; 0x300
 140:	000ec4cb 	andeq	ip, lr, fp, asr #9
 144:	0000001c 	andeq	r0, r0, ip, lsl r0
 148:	00000110 	andeq	r0, r0, r0, lsl r1
 14c:	c0100f40 	andsgt	r0, r0, r0, asr #30
 150:	0000007c 	andeq	r0, r0, ip, ror r0
 154:	8b040e42 	blhi	103a64 <_start-0xbfffc59c>
 158:	0b0d4201 	bleq	350964 <_start-0xbfdaf69c>
 15c:	420d0d76 	andmi	r0, sp, #7552	; 0x1d80
 160:	00000ecb 	andeq	r0, r0, fp, asr #29
 164:	0000001c 	andeq	r0, r0, ip, lsl r0
 168:	00000110 	andeq	r0, r0, r0, lsl r1
 16c:	c0100fbc 			; <UNDEFINED> instruction: 0xc0100fbc
 170:	000000ac 	andeq	r0, r0, ip, lsr #1
 174:	8b080e42 	blhi	203a84 <_start-0xbfefc57c>
 178:	42018e02 	andmi	r8, r1, #2, 28
 17c:	02040b0c 	andeq	r0, r4, #12, 22	; 0x3000
 180:	080d0c50 	stmdaeq	sp, {r4, r6, sl, fp}
 184:	0000001c 	andeq	r0, r0, ip, lsl r0
 188:	00000110 	andeq	r0, r0, r0, lsl r1
 18c:	c0101068 	andsgt	r1, r0, r8, rrx
 190:	00000054 	andeq	r0, r0, r4, asr r0
 194:	8b080e42 	blhi	203aa4 <_start-0xbfefc55c>
 198:	42018e02 	andmi	r8, r1, #2, 28
 19c:	64040b0c 	strvs	r0, [r4], #-2828	; 0xfffff4f4
 1a0:	00080d0c 	andeq	r0, r8, ip, lsl #26
 1a4:	00000018 	andeq	r0, r0, r8, lsl r0
 1a8:	00000110 	andeq	r0, r0, r0, lsl r1
 1ac:	c01010bc 	ldrhgt	r1, [r0], -ip
 1b0:	00000038 	andeq	r0, r0, r8, lsr r0
 1b4:	8b080e42 	blhi	203ac4 <_start-0xbfefc53c>
 1b8:	42018e02 	andmi	r8, r1, #2, 28
 1bc:	00040b0c 	andeq	r0, r4, ip, lsl #22
 1c0:	00000018 	andeq	r0, r0, r8, lsl r0
 1c4:	00000110 	andeq	r0, r0, r0, lsl r1
 1c8:	c01010f4 	ldrshgt	r1, [r0], -r4
 1cc:	00000038 	andeq	r0, r0, r8, lsr r0
 1d0:	8b080e42 	blhi	203ae0 <_start-0xbfefc520>
 1d4:	42018e02 	andmi	r8, r1, #2, 28
 1d8:	00040b0c 	andeq	r0, r4, ip, lsl #22
 1dc:	00000018 	andeq	r0, r0, r8, lsl r0
 1e0:	00000110 	andeq	r0, r0, r0, lsl r1
 1e4:	c010112c 	andsgt	r1, r0, ip, lsr #2
 1e8:	00000014 	andeq	r0, r0, r4, lsl r0
 1ec:	8b080e42 	blhi	203afc <_start-0xbfefc504>
 1f0:	42018e02 	andmi	r8, r1, #2, 28
 1f4:	00040b0c 	andeq	r0, r4, ip, lsl #22
 1f8:	0000000c 	andeq	r0, r0, ip
 1fc:	ffffffff 			; <UNDEFINED> instruction: 0xffffffff
 200:	7c020001 	stcvc	0, cr0, [r2], {1}
 204:	000d0c0e 	andeq	r0, sp, lr, lsl #24
 208:	0000001c 	andeq	r0, r0, ip, lsl r0
 20c:	000001f8 	strdeq	r0, [r0], -r8
 210:	c0101140 	andsgt	r1, r0, r0, asr #2
 214:	00000038 	andeq	r0, r0, r8, lsr r0
 218:	8b040e42 	blhi	103b28 <_start-0xbfffc4d8>
 21c:	0b0d4201 	bleq	350a28 <_start-0xbfdaf5d8>
 220:	420d0d54 	andmi	r0, sp, #84, 26	; 0x1500
 224:	00000ecb 	andeq	r0, r0, fp, asr #29
 228:	0000001c 	andeq	r0, r0, ip, lsl r0
 22c:	000001f8 	strdeq	r0, [r0], -r8
 230:	c0101178 	andsgt	r1, r0, r8, ror r1
 234:	0000007c 	andeq	r0, r0, ip, ror r0
 238:	8b040e42 	blhi	103b48 <_start-0xbfffc4b8>
 23c:	0b0d4201 	bleq	350a48 <_start-0xbfdaf5b8>
 240:	420d0d76 	andmi	r0, sp, #7552	; 0x1d80
 244:	00000ecb 	andeq	r0, r0, fp, asr #29
 248:	0000001c 	andeq	r0, r0, ip, lsl r0
 24c:	000001f8 	strdeq	r0, [r0], -r8
 250:	c01011f4 			; <UNDEFINED> instruction: 0xc01011f4
 254:	000000ac 	andeq	r0, r0, ip, lsr #1
 258:	8b080e42 	blhi	203b68 <_start-0xbfefc498>
 25c:	42018e02 	andmi	r8, r1, #2, 28
 260:	02040b0c 	andeq	r0, r4, #12, 22	; 0x3000
 264:	080d0c50 	stmdaeq	sp, {r4, r6, sl, fp}
 268:	0000001c 	andeq	r0, r0, ip, lsl r0
 26c:	000001f8 	strdeq	r0, [r0], -r8
 270:	c01012a0 	andsgt	r1, r0, r0, lsr #5
 274:	0000008c 	andeq	r0, r0, ip, lsl #1
 278:	8b040e42 	blhi	103b88 <_start-0xbfffc478>
 27c:	0b0d4201 	bleq	350a88 <_start-0xbfdaf578>
 280:	420d0d7e 	andmi	r0, sp, #8064	; 0x1f80
 284:	00000ecb 	andeq	r0, r0, fp, asr #29
 288:	00000018 	andeq	r0, r0, r8, lsl r0
 28c:	000001f8 	strdeq	r0, [r0], -r8
 290:	c010132c 	andsgt	r1, r0, ip, lsr #6
 294:	00000014 	andeq	r0, r0, r4, lsl r0
 298:	8b080e42 	blhi	203ba8 <_start-0xbfefc458>
 29c:	42018e02 	andmi	r8, r1, #2, 28
 2a0:	00040b0c 	andeq	r0, r4, ip, lsl #22
 2a4:	00000018 	andeq	r0, r0, r8, lsl r0
 2a8:	000001f8 	strdeq	r0, [r0], -r8
 2ac:	c0101340 	andsgt	r1, r0, r0, asr #6
 2b0:	00000014 	andeq	r0, r0, r4, lsl r0
 2b4:	8b080e42 	blhi	203bc4 <_start-0xbfefc43c>
 2b8:	42018e02 	andmi	r8, r1, #2, 28
 2bc:	00040b0c 	andeq	r0, r4, ip, lsl #22
 2c0:	00000018 	andeq	r0, r0, r8, lsl r0
 2c4:	000001f8 	strdeq	r0, [r0], -r8
 2c8:	c0101354 	andsgt	r1, r0, r4, asr r3
 2cc:	00000044 	andeq	r0, r0, r4, asr #32
 2d0:	8b080e42 	blhi	203be0 <_start-0xbfefc420>
 2d4:	42018e02 	andmi	r8, r1, #2, 28
 2d8:	00040b0c 	andeq	r0, r4, ip, lsl #22
 2dc:	0000000c 	andeq	r0, r0, ip
 2e0:	ffffffff 			; <UNDEFINED> instruction: 0xffffffff
 2e4:	7c020001 	stcvc	0, cr0, [r2], {1}
 2e8:	000d0c0e 	andeq	r0, sp, lr, lsl #24
 2ec:	00000018 	andeq	r0, r0, r8, lsl r0
 2f0:	000002dc 	ldrdeq	r0, [r0], -ip
 2f4:	c0101398 	mulsgt	r0, r8, r3
 2f8:	0000001c 	andeq	r0, r0, ip, lsl r0
 2fc:	8b080e42 	blhi	203c0c <_start-0xbfefc3f4>
 300:	42018e02 	andmi	r8, r1, #2, 28
 304:	00040b0c 	andeq	r0, r4, ip, lsl #22
 308:	0000000c 	andeq	r0, r0, ip
 30c:	ffffffff 			; <UNDEFINED> instruction: 0xffffffff
 310:	7c020001 	stcvc	0, cr0, [r2], {1}
 314:	000d0c0e 	andeq	r0, sp, lr, lsl #24
 318:	00000020 	andeq	r0, r0, r0, lsr #32
 31c:	00000308 	andeq	r0, r0, r8, lsl #6
 320:	c01013b4 			; <UNDEFINED> instruction: 0xc01013b4
 324:	00000240 	andeq	r0, r0, r0, asr #4
 328:	8b040e42 	blhi	103c38 <_start-0xbfffc3c8>
 32c:	0b0d4201 	bleq	350b38 <_start-0xbfdaf4c8>
 330:	0d011803 	stceq	8, cr1, [r1, #-12]
 334:	0ecb420d 	cdpeq	2, 12, cr4, cr11, cr13, {0}
 338:	00000000 	andeq	r0, r0, r0
 33c:	00000020 	andeq	r0, r0, r0, lsr #32
 340:	00000308 	andeq	r0, r0, r8, lsl #6
 344:	c01015f4 			; <UNDEFINED> instruction: 0xc01015f4
 348:	0000038c 	andeq	r0, r0, ip, lsl #7
 34c:	8b040e42 	blhi	103c5c <_start-0xbfffc3a4>
 350:	0b0d4201 	bleq	350b5c <_start-0xbfdaf4a4>
 354:	0d01be03 	stceq	14, cr11, [r1, #-12]
 358:	0ecb420d 	cdpeq	2, 12, cr4, cr11, cr13, {0}
 35c:	00000000 	andeq	r0, r0, r0
 360:	00000020 	andeq	r0, r0, r0, lsr #32
 364:	00000308 	andeq	r0, r0, r8, lsl #6
 368:	c0101980 	andsgt	r1, r0, r0, lsl #19
 36c:	000004c4 	andeq	r0, r0, r4, asr #9
 370:	8b080e42 	blhi	203c80 <_start-0xbfefc380>
 374:	42018e02 	andmi	r8, r1, #2, 28
 378:	03040b0c 	movweq	r0, #19212	; 0x4b0c
 37c:	0d0c025c 	sfmeq	f0, 4, [ip, #-368]	; 0xfffffe90
 380:	00000008 	andeq	r0, r0, r8
 384:	0000001c 	andeq	r0, r0, ip, lsl r0
 388:	00000308 	andeq	r0, r0, r8, lsl #6
 38c:	c0101e44 	andsgt	r1, r0, r4, asr #28
 390:	00000074 	andeq	r0, r0, r4, ror r0
 394:	8b040e42 	blhi	103ca4 <_start-0xbfffc35c>
 398:	0b0d4201 	bleq	350ba4 <_start-0xbfdaf45c>
 39c:	420d0d72 	andmi	r0, sp, #7296	; 0x1c80
 3a0:	00000ecb 	andeq	r0, r0, fp, asr #29
 3a4:	0000001c 	andeq	r0, r0, ip, lsl r0
 3a8:	00000308 	andeq	r0, r0, r8, lsl #6
 3ac:	c0101eb8 			; <UNDEFINED> instruction: 0xc0101eb8
 3b0:	00000058 	andeq	r0, r0, r8, asr r0
 3b4:	8b040e42 	blhi	103cc4 <_start-0xbfffc33c>
 3b8:	0b0d4201 	bleq	350bc4 <_start-0xbfdaf43c>
 3bc:	420d0d64 	andmi	r0, sp, #100, 26	; 0x1900
 3c0:	00000ecb 	andeq	r0, r0, fp, asr #29
 3c4:	00000018 	andeq	r0, r0, r8, lsl r0
 3c8:	00000308 	andeq	r0, r0, r8, lsl #6
 3cc:	c0101f10 	andsgt	r1, r0, r0, lsl pc
 3d0:	0000001c 	andeq	r0, r0, ip, lsl r0
 3d4:	8b080e42 	blhi	203ce4 <_start-0xbfefc31c>
 3d8:	42018e02 	andmi	r8, r1, #2, 28
 3dc:	00040b0c 	andeq	r0, r4, ip, lsl #22
